
painter.elf:     file format elf32-littlenios2
painter.elf
architecture: nios2, flags 0x00000112:
EXEC_P, HAS_SYMS, D_PAGED
start address 0x000001b4

Program Header:
    LOAD off    0x00001000 vaddr 0x00000000 paddr 0x00000000 align 2**12
         filesz 0x00000020 memsz 0x00000020 flags r-x
    LOAD off    0x00001020 vaddr 0x00000020 paddr 0x00000020 align 2**12
         filesz 0x00074be0 memsz 0x00074be0 flags r-x
    LOAD off    0x00075c00 vaddr 0x00074c00 paddr 0x00078224 align 2**12
         filesz 0x00003624 memsz 0x00003624 flags rw-
    LOAD off    0x00079848 vaddr 0x0007b848 paddr 0x0007b848 align 2**12
         filesz 0x00000000 memsz 0x000002f0 flags rw-

Sections:
Idx Name          Size      VMA       LMA       File off  Algn
  0 .entry        00000020  00000000  00000000  00001000  2**5
                  CONTENTS, ALLOC, LOAD, READONLY, CODE
  1 .exceptions   00000194  00000020  00000020  00001020  2**2
                  CONTENTS, ALLOC, LOAD, READONLY, CODE
  2 .text         00015c94  000001b4  000001b4  000011b4  2**2
                  CONTENTS, ALLOC, LOAD, READONLY, CODE
  3 .rodata       0005edb8  00015e48  00015e48  00016e48  2**2
                  CONTENTS, ALLOC, LOAD, READONLY, DATA
  4 .rwdata       00003624  00074c00  00078224  00075c00  2**2
                  CONTENTS, ALLOC, LOAD, DATA, SMALL_DATA
  5 .bss          000002f0  0007b848  0007b848  00079848  2**2
                  ALLOC, SMALL_DATA
  6 .comment      00000026  00000000  00000000  00079224  2**0
                  CONTENTS, READONLY
  7 .debug_aranges 00000f98  00000000  00000000  00079250  2**3
                  CONTENTS, READONLY, DEBUGGING
  8 .debug_pubnames 00001f4f  00000000  00000000  0007a1e8  2**0
                  CONTENTS, READONLY, DEBUGGING
  9 .debug_info   000300d4  00000000  00000000  0007c137  2**0
                  CONTENTS, READONLY, DEBUGGING
 10 .debug_abbrev 0000977b  00000000  00000000  000ac20b  2**0
                  CONTENTS, READONLY, DEBUGGING
 11 .debug_line   0001b40a  00000000  00000000  000b5986  2**0
                  CONTENTS, READONLY, DEBUGGING
 12 .debug_frame  000028f8  00000000  00000000  000d0d90  2**2
                  CONTENTS, READONLY, DEBUGGING
 13 .debug_str    00002bbd  00000000  00000000  000d3688  2**0
                  CONTENTS, READONLY, DEBUGGING
 14 .debug_loc    0000ddbd  00000000  00000000  000d6245  2**0
                  CONTENTS, READONLY, DEBUGGING
 15 .debug_alt_sim_info 00000060  00000000  00000000  000e4004  2**2
                  CONTENTS, READONLY, DEBUGGING
 16 .debug_ranges 00000a08  00000000  00000000  000e4068  2**3
                  CONTENTS, READONLY, DEBUGGING
 17 .thread_model 00000003  00000000  00000000  000ea56f  2**0
                  CONTENTS, READONLY
 18 .cpu          00000003  00000000  00000000  000ea572  2**0
                  CONTENTS, READONLY
 19 .qsys         00000001  00000000  00000000  000ea575  2**0
                  CONTENTS, READONLY
 20 .simulation_enabled 00000001  00000000  00000000  000ea576  2**0
                  CONTENTS, READONLY
 21 .sysid_hash   00000004  00000000  00000000  000ea577  2**0
                  CONTENTS, READONLY
 22 .sysid_base   00000004  00000000  00000000  000ea57b  2**0
                  CONTENTS, READONLY
 23 .sysid_time   00000004  00000000  00000000  000ea57f  2**0
                  CONTENTS, READONLY
 24 .stderr_dev   00000009  00000000  00000000  000ea583  2**0
                  CONTENTS, READONLY
 25 .stdin_dev    00000009  00000000  00000000  000ea58c  2**0
                  CONTENTS, READONLY
 26 .stdout_dev   00000009  00000000  00000000  000ea595  2**0
                  CONTENTS, READONLY
 27 .sopc_system_name 00000004  00000000  00000000  000ea59e  2**0
                  CONTENTS, READONLY
 28 .quartus_project_dir 00000027  00000000  00000000  000ea5a2  2**0
                  CONTENTS, READONLY
 29 .sopcinfo     000760ca  00000000  00000000  000ea5c9  2**0
                  CONTENTS, READONLY
SYMBOL TABLE:
00000000 l    d  .entry	00000000 .entry
00000020 l    d  .exceptions	00000000 .exceptions
000001b4 l    d  .text	00000000 .text
00015e48 l    d  .rodata	00000000 .rodata
00074c00 l    d  .rwdata	00000000 .rwdata
0007b848 l    d  .bss	00000000 .bss
00000000 l    d  .comment	00000000 .comment
00000000 l    d  .debug_aranges	00000000 .debug_aranges
00000000 l    d  .debug_pubnames	00000000 .debug_pubnames
00000000 l    d  .debug_info	00000000 .debug_info
00000000 l    d  .debug_abbrev	00000000 .debug_abbrev
00000000 l    d  .debug_line	00000000 .debug_line
00000000 l    d  .debug_frame	00000000 .debug_frame
00000000 l    d  .debug_str	00000000 .debug_str
00000000 l    d  .debug_loc	00000000 .debug_loc
00000000 l    d  .debug_alt_sim_info	00000000 .debug_alt_sim_info
00000000 l    d  .debug_ranges	00000000 .debug_ranges
000001fc l       .text	00000000 alt_after_alt_main
00000000 l    df *ABS*	00000000 alt_irq_handler.c
00000000 l    df *ABS*	00000000 tahomabold_20.c
00015e48 l     O .rodata	000000b6 tahomabold_20_33
00015efe l     O .rodata	00000104 tahomabold_20_34
00016002 l     O .rodata	000001a0 tahomabold_20_35
000161a2 l     O .rodata	00000152 tahomabold_20_36
000162f4 l     O .rodata	00000270 tahomabold_20_37
00016564 l     O .rodata	000001ba tahomabold_20_38
0001671e l     O .rodata	0000009c tahomabold_20_39
000167ba l     O .rodata	000000ea tahomabold_20_40
000168a4 l     O .rodata	000000ea tahomabold_20_41
0001698e l     O .rodata	00000152 tahomabold_20_42
00016ae0 l     O .rodata	000001a0 tahomabold_20_43
00016c80 l     O .rodata	0000009c tahomabold_20_44
00016d1c l     O .rodata	000000ea tahomabold_20_45
00016e06 l     O .rodata	0000009c tahomabold_20_46
00016ea2 l     O .rodata	00000138 tahomabold_20_47
00016fda l     O .rodata	00000152 tahomabold_20_48
0001712c l     O .rodata	00000152 tahomabold_20_49
0001727e l     O .rodata	00000152 tahomabold_20_50
000173d0 l     O .rodata	00000152 tahomabold_20_51
00017522 l     O .rodata	00000152 tahomabold_20_52
00017674 l     O .rodata	00000152 tahomabold_20_53
000177c6 l     O .rodata	00000152 tahomabold_20_54
00017918 l     O .rodata	00000152 tahomabold_20_55
00017a6a l     O .rodata	00000152 tahomabold_20_56
00017bbc l     O .rodata	00000152 tahomabold_20_57
00017d0e l     O .rodata	000000b6 tahomabold_20_58
00017dc4 l     O .rodata	000000b6 tahomabold_20_59
00017e7a l     O .rodata	000001a0 tahomabold_20_60
0001801a l     O .rodata	000001a0 tahomabold_20_61
000181ba l     O .rodata	000001a0 tahomabold_20_62
0001835a l     O .rodata	0000011e tahomabold_20_63
00018478 l     O .rodata	000001d4 tahomabold_20_64
0001864c l     O .rodata	0000016c tahomabold_20_65
000187b8 l     O .rodata	0000016c tahomabold_20_66
00018924 l     O .rodata	00000152 tahomabold_20_67
00018a76 l     O .rodata	00000186 tahomabold_20_68
00018bfc l     O .rodata	00000138 tahomabold_20_69
00018d34 l     O .rodata	00000138 tahomabold_20_70
00018e6c l     O .rodata	00000186 tahomabold_20_71
00018ff2 l     O .rodata	00000186 tahomabold_20_72
00019178 l     O .rodata	00000104 tahomabold_20_73
0001927c l     O .rodata	00000104 tahomabold_20_74
00019380 l     O .rodata	0000016c tahomabold_20_75
000194ec l     O .rodata	0000011e tahomabold_20_76
0001960a l     O .rodata	000001d4 tahomabold_20_77
000197de l     O .rodata	00000186 tahomabold_20_78
00019964 l     O .rodata	00000186 tahomabold_20_79
00019aea l     O .rodata	00000152 tahomabold_20_80
00019c3c l     O .rodata	00000186 tahomabold_20_81
00019dc2 l     O .rodata	00000186 tahomabold_20_82
00019f48 l     O .rodata	00000152 tahomabold_20_83
0001a09a l     O .rodata	00000138 tahomabold_20_84
0001a1d2 l     O .rodata	00000186 tahomabold_20_85
0001a358 l     O .rodata	0000016c tahomabold_20_86
0001a4c4 l     O .rodata	00000222 tahomabold_20_87
0001a6e6 l     O .rodata	0000016c tahomabold_20_88
0001a852 l     O .rodata	0000016c tahomabold_20_89
0001a9be l     O .rodata	00000138 tahomabold_20_90
0001aaf6 l     O .rodata	000000ea tahomabold_20_91
0001abe0 l     O .rodata	00000138 tahomabold_20_92
0001ad18 l     O .rodata	000000ea tahomabold_20_93
0001ae02 l     O .rodata	000001a0 tahomabold_20_94
0001afa2 l     O .rodata	00000152 tahomabold_20_95
0001b0f4 l     O .rodata	0000011e tahomabold_20_96
0001b212 l     O .rodata	00000138 tahomabold_20_97
0001b34a l     O .rodata	00000152 tahomabold_20_98
0001b49c l     O .rodata	0000011e tahomabold_20_99
0001b5ba l     O .rodata	00000152 tahomabold_20_100
0001b70c l     O .rodata	00000138 tahomabold_20_101
0001b844 l     O .rodata	000000d0 tahomabold_20_102
0001b914 l     O .rodata	00000152 tahomabold_20_103
0001ba66 l     O .rodata	00000152 tahomabold_20_104
0001bbb8 l     O .rodata	0000009c tahomabold_20_105
0001bc54 l     O .rodata	000000ea tahomabold_20_106
0001bd3e l     O .rodata	00000138 tahomabold_20_107
0001be76 l     O .rodata	0000009c tahomabold_20_108
0001bf12 l     O .rodata	000001ee tahomabold_20_109
0001c100 l     O .rodata	00000152 tahomabold_20_110
0001c252 l     O .rodata	00000138 tahomabold_20_111
0001c38a l     O .rodata	00000152 tahomabold_20_112
0001c4dc l     O .rodata	00000152 tahomabold_20_113
0001c62e l     O .rodata	000000ea tahomabold_20_114
0001c718 l     O .rodata	00000104 tahomabold_20_115
0001c81c l     O .rodata	000000d0 tahomabold_20_116
0001c8ec l     O .rodata	00000152 tahomabold_20_117
0001ca3e l     O .rodata	00000138 tahomabold_20_118
0001cb76 l     O .rodata	000001d4 tahomabold_20_119
0001cd4a l     O .rodata	00000138 tahomabold_20_120
0001ce82 l     O .rodata	00000138 tahomabold_20_121
0001cfba l     O .rodata	0000011e tahomabold_20_122
0001d0d8 l     O .rodata	00000138 tahomabold_20_123
0001d210 l     O .rodata	00000152 tahomabold_20_124
0001d362 l     O .rodata	00000138 tahomabold_20_125
0001d49a l     O .rodata	000001a0 tahomabold_20_126
00000000 l    df *ABS*	00000000 tahomabold_32.c
0001d63a l     O .rodata	000001b8 tahomabold_32_33
0001d7f2 l     O .rodata	00000280 tahomabold_32_34
0001da72 l     O .rodata	00000410 tahomabold_32_35
0001de82 l     O .rodata	00000320 tahomabold_32_36
0001e1a2 l     O .rodata	000005f0 tahomabold_32_37
0001e792 l     O .rodata	00000410 tahomabold_32_38
0001eba2 l     O .rodata	00000168 tahomabold_32_39
0001ed0a l     O .rodata	00000258 tahomabold_32_40
0001ef62 l     O .rodata	00000258 tahomabold_32_41
0001f1ba l     O .rodata	00000320 tahomabold_32_42
0001f4da l     O .rodata	00000410 tahomabold_32_43
0001f8ea l     O .rodata	00000190 tahomabold_32_44
0001fa7a l     O .rodata	00000230 tahomabold_32_45
0001fcaa l     O .rodata	00000190 tahomabold_32_46
0001fe3a l     O .rodata	000002d0 tahomabold_32_47
0002010a l     O .rodata	00000320 tahomabold_32_48
0002042a l     O .rodata	00000320 tahomabold_32_49
0002074a l     O .rodata	00000320 tahomabold_32_50
00020a6a l     O .rodata	00000320 tahomabold_32_51
00020d8a l     O .rodata	00000320 tahomabold_32_52
000210aa l     O .rodata	00000320 tahomabold_32_53
000213ca l     O .rodata	00000320 tahomabold_32_54
000216ea l     O .rodata	00000320 tahomabold_32_55
00021a0a l     O .rodata	00000320 tahomabold_32_56
00021d2a l     O .rodata	00000320 tahomabold_32_57
0002204a l     O .rodata	000001e0 tahomabold_32_58
0002222a l     O .rodata	000001e0 tahomabold_32_59
0002240a l     O .rodata	00000410 tahomabold_32_60
0002281a l     O .rodata	00000410 tahomabold_32_61
00022c2a l     O .rodata	00000410 tahomabold_32_62
0002303a l     O .rodata	000002d0 tahomabold_32_63
0002330a l     O .rodata	00000488 tahomabold_32_64
00023792 l     O .rodata	00000370 tahomabold_32_65
00023b02 l     O .rodata	00000370 tahomabold_32_66
00023e72 l     O .rodata	00000348 tahomabold_32_67
000241ba l     O .rodata	000003c0 tahomabold_32_68
0002457a l     O .rodata	00000320 tahomabold_32_69
0002489a l     O .rodata	000002f8 tahomabold_32_70
00024b92 l     O .rodata	000003c0 tahomabold_32_71
00024f52 l     O .rodata	000003c0 tahomabold_32_72
00025312 l     O .rodata	00000258 tahomabold_32_73
0002556a l     O .rodata	00000280 tahomabold_32_74
000257ea l     O .rodata	00000398 tahomabold_32_75
00025b82 l     O .rodata	000002d0 tahomabold_32_76
00025e52 l     O .rodata	00000488 tahomabold_32_77
000262da l     O .rodata	000003e8 tahomabold_32_78
000266c2 l     O .rodata	000003e8 tahomabold_32_79
00026aaa l     O .rodata	00000348 tahomabold_32_80
00026df2 l     O .rodata	000003e8 tahomabold_32_81
000271da l     O .rodata	000003c0 tahomabold_32_82
0002759a l     O .rodata	00000320 tahomabold_32_83
000278ba l     O .rodata	00000320 tahomabold_32_84
00027bda l     O .rodata	000003c0 tahomabold_32_85
00027f9a l     O .rodata	00000370 tahomabold_32_86
0002830a l     O .rodata	00000528 tahomabold_32_87
00028832 l     O .rodata	00000370 tahomabold_32_88
00028ba2 l     O .rodata	00000370 tahomabold_32_89
00028f12 l     O .rodata	00000320 tahomabold_32_90
00029232 l     O .rodata	00000258 tahomabold_32_91
0002948a l     O .rodata	000002d0 tahomabold_32_92
0002975a l     O .rodata	00000258 tahomabold_32_93
000299b2 l     O .rodata	00000410 tahomabold_32_94
00029dc2 l     O .rodata	00000320 tahomabold_32_95
0002a0e2 l     O .rodata	000002a8 tahomabold_32_96
0002a38a l     O .rodata	000002f8 tahomabold_32_97
0002a682 l     O .rodata	00000320 tahomabold_32_98
0002a9a2 l     O .rodata	000002a8 tahomabold_32_99
0002ac4a l     O .rodata	00000320 tahomabold_32_100
0002af6a l     O .rodata	000002f8 tahomabold_32_101
0002b262 l     O .rodata	00000230 tahomabold_32_102
0002b492 l     O .rodata	00000320 tahomabold_32_103
0002b7b2 l     O .rodata	00000320 tahomabold_32_104
0002bad2 l     O .rodata	00000190 tahomabold_32_105
0002bc62 l     O .rodata	00000208 tahomabold_32_106
0002be6a l     O .rodata	000002f8 tahomabold_32_107
0002c162 l     O .rodata	00000190 tahomabold_32_108
0002c2f2 l     O .rodata	000004d8 tahomabold_32_109
0002c7ca l     O .rodata	00000320 tahomabold_32_110
0002caea l     O .rodata	00000320 tahomabold_32_111
0002ce0a l     O .rodata	00000320 tahomabold_32_112
0002d12a l     O .rodata	00000320 tahomabold_32_113
0002d44a l     O .rodata	00000230 tahomabold_32_114
0002d67a l     O .rodata	00000280 tahomabold_32_115
0002d8fa l     O .rodata	00000208 tahomabold_32_116
0002db02 l     O .rodata	00000320 tahomabold_32_117
0002de22 l     O .rodata	000002f8 tahomabold_32_118
0002e11a l     O .rodata	00000460 tahomabold_32_119
0002e57a l     O .rodata	000002f8 tahomabold_32_120
0002e872 l     O .rodata	000002d0 tahomabold_32_121
0002eb42 l     O .rodata	000002a8 tahomabold_32_122
0002edea l     O .rodata	00000320 tahomabold_32_123
0002f10a l     O .rodata	00000320 tahomabold_32_124
0002f42a l     O .rodata	00000320 tahomabold_32_125
0002f74a l     O .rodata	00000410 tahomabold_32_126
00000000 l    df *ABS*	00000000 geometry.c
00000000 l    df *ABS*	00000000 gesture.c
00000000 l    df *ABS*	00000000 simple_graphics.c
00000000 l    df *ABS*	00000000 simple_text.c
00000000 l    df *ABS*	00000000 gui.c
000781dc l     O .rwdata	00000004 y.4275
0007b848 l     O .bss	00000004 x.4274
00000000 l    df *ABS*	00000000 gui_vpg.c
00000000 l    df *ABS*	00000000 main.c
00000000 l    df *ABS*	00000000 I2C.c
00000000 l    df *ABS*	00000000 I2C_core.c
00000000 l    df *ABS*	00000000 debug.c
00000000 l    df *ABS*	00000000 multi_touch2.c
00007e3c l     F .text	00000344 mtc2_QueryData
00008180 l     F .text	00000068 mtc2_ISR
00000000 l    df *ABS*	00000000 queue.c
00000000 l    df *ABS*	00000000 vip_fr.c
00000000 l    df *ABS*	00000000 w_sqrt.c
00000000 l    df *ABS*	00000000 e_sqrt.c
00000000 l    df *ABS*	00000000 s_isnand.c
00000000 l    df *ABS*	00000000 s_lib_ver.c
00000000 l    df *ABS*	00000000 s_matherr.c
00000000 l    df *ABS*	00000000 dp-bit.c
00009190 l     F .text	00000410 _fpadd_parts
00000000 l    df *ABS*	00000000 dp-bit.c
00000000 l    df *ABS*	00000000 dp-bit.c
00000000 l    df *ABS*	00000000 dp-bit.c
00000000 l    df *ABS*	00000000 dp-bit.c
00000000 l    df *ABS*	00000000 dp-bit.c
00000000 l    df *ABS*	00000000 dp-bit.c
00000000 l    df *ABS*	00000000 lib2-divmod.c
00009f08 l     F .text	0000007c udivmodsi4
00000000 l    df *ABS*	00000000 lib2-mul.c
00000000 l    df *ABS*	00000000 libgcc2.c
00000000 l    df *ABS*	00000000 libgcc2.c
00000000 l    df *ABS*	00000000 dp-bit.c
00000000 l    df *ABS*	00000000 dp-bit.c
00000000 l    df *ABS*	00000000 dp-bit.c
00000000 l    df *ABS*	00000000 libgcc2.c
00000000 l    df *ABS*	00000000 errno.c
00000000 l    df *ABS*	00000000 impure.c
000767bc l     O .rwdata	00000400 impure_data
00000000 l    df *ABS*	00000000 malloc.c
00000000 l    df *ABS*	00000000 mallocr.c
00000000 l    df *ABS*	00000000 memcpy.c
00000000 l    df *ABS*	00000000 memset.c
00000000 l    df *ABS*	00000000 printf.c
00000000 l    df *ABS*	00000000 putchar.c
00000000 l    df *ABS*	00000000 puts.c
00000000 l    df *ABS*	00000000 sbrkr.c
00000000 l    df *ABS*	00000000 sprintf.c
00000000 l    df *ABS*	00000000 strcpy.c
00000000 l    df *ABS*	00000000 strlen.c
00000000 l    df *ABS*	00000000 vfprintf.c
0000b388 l     F .text	00000058 __sprint_r
00074a4e l     O .rodata	00000010 blanks.3452
00074a3e l     O .rodata	00000010 zeroes.3453
00000000 l    df *ABS*	00000000 vsnprintf.c
00000000 l    df *ABS*	00000000 wsetup.c
00000000 l    df *ABS*	00000000 dtoa.c
0000d4f8 l     F .text	00000244 quorem
00000000 l    df *ABS*	00000000 fflush.c
00000000 l    df *ABS*	00000000 findfp.c
0000ef20 l     F .text	00000058 std
0000f02c l     F .text	00000008 __fp_lock
0000f034 l     F .text	00000008 __fp_unlock
00000000 l    df *ABS*	00000000 mallocr.c
00000000 l    df *ABS*	00000000 fvwrite.c
00000000 l    df *ABS*	00000000 fwalk.c
00000000 l    df *ABS*	00000000 int_errno.c
00000000 l    df *ABS*	00000000 locale.c
000781f8 l     O .rwdata	00000004 charset
00074a80 l     O .rodata	00000030 lconv
00000000 l    df *ABS*	00000000 makebuf.c
00000000 l    df *ABS*	00000000 memchr.c
00000000 l    df *ABS*	00000000 memmove.c
00000000 l    df *ABS*	00000000 mprec.c
00074bc8 l     O .rodata	0000000c p05.2458
00000000 l    df *ABS*	00000000 putc.c
00000000 l    df *ABS*	00000000 mallocr.c
00000000 l    df *ABS*	00000000 s_isinfd.c
00000000 l    df *ABS*	00000000 stdio.c
00000000 l    df *ABS*	00000000 strcmp.c
00000000 l    df *ABS*	00000000 wbuf.c
00000000 l    df *ABS*	00000000 writer.c
00000000 l    df *ABS*	00000000 mallocr.c
00000000 l    df *ABS*	00000000 closer.c
00000000 l    df *ABS*	00000000 fclose.c
00000000 l    df *ABS*	00000000 fstatr.c
00000000 l    df *ABS*	00000000 isattyr.c
00000000 l    df *ABS*	00000000 lseekr.c
00000000 l    df *ABS*	00000000 readr.c
00000000 l    df *ABS*	00000000 libgcc2.c
00000000 l    df *ABS*	00000000 libgcc2.c
00000000 l    df *ABS*	00000000 dp-bit.c
00000000 l    df *ABS*	00000000 dp-bit.c
00000000 l    df *ABS*	00000000 dp-bit.c
00000000 l    df *ABS*	00000000 dp-bit.c
00000000 l    df *ABS*	00000000 dp-bit.c
00000000 l    df *ABS*	00000000 alt_close.c
000132b4 l     F .text	00000060 alt_get_errno
00000000 l    df *ABS*	00000000 alt_dcache_flush_all.c
00000000 l    df *ABS*	00000000 alt_dev.c
00013358 l     F .text	0000002c alt_dev_null_write
00000000 l    df *ABS*	00000000 alt_errno.c
00000000 l    df *ABS*	00000000 alt_fstat.c
0001345c l     F .text	00000060 alt_get_errno
00000000 l    df *ABS*	00000000 alt_iic.c
00000000 l    df *ABS*	00000000 alt_iic_isr_register.c
00000000 l    df *ABS*	00000000 alt_irq_vars.c
00000000 l    df *ABS*	00000000 alt_isatty.c
0001384c l     F .text	00000060 alt_get_errno
00000000 l    df *ABS*	00000000 alt_load.c
0001392c l     F .text	0000006c alt_load_section
00000000 l    df *ABS*	00000000 alt_lseek.c
00013a8c l     F .text	00000060 alt_get_errno
00000000 l    df *ABS*	00000000 alt_main.c
00000000 l    df *ABS*	00000000 alt_malloc_lock.c
00000000 l    df *ABS*	00000000 alt_read.c
00013cbc l     F .text	00000060 alt_get_errno
00000000 l    df *ABS*	00000000 alt_release_fd.c
00000000 l    df *ABS*	00000000 alt_sbrk.c
00078218 l     O .rwdata	00000004 heap_end
00000000 l    df *ABS*	00000000 alt_tick.c
00000000 l    df *ABS*	00000000 alt_usleep.c
00000000 l    df *ABS*	00000000 alt_write.c
00014148 l     F .text	00000060 alt_get_errno
00000000 l    df *ABS*	00000000 alt_sys_init.c
00077178 l     O .rwdata	00001060 jtag_uart
00014234 l     F .text	00000038 alt_dev_reg
00000000 l    df *ABS*	00000000 altera_avalon_jtag_uart_fd.c
00000000 l    df *ABS*	00000000 altera_avalon_jtag_uart_init.c
00014474 l     F .text	00000228 altera_avalon_jtag_uart_irq
0001469c l     F .text	000000b0 altera_avalon_jtag_uart_timeout
00000000 l    df *ABS*	00000000 altera_avalon_jtag_uart_ioctl.c
00000000 l    df *ABS*	00000000 altera_avalon_jtag_uart_read.c
00000000 l    df *ABS*	00000000 altera_avalon_jtag_uart_write.c
00000000 l    df *ABS*	00000000 altera_avalon_timer_sc.c
00014d18 l     F .text	00000070 alt_avalon_timer_sc_irq
00000000 l    df *ABS*	00000000 alt_alarm_start.c
00000000 l    df *ABS*	00000000 alt_busy_sleep.c
00000000 l    df *ABS*	00000000 alt_dev_llist_insert.c
0001517c l     F .text	00000060 alt_get_errno
00000000 l    df *ABS*	00000000 alt_do_ctors.c
00000000 l    df *ABS*	00000000 alt_do_dtors.c
00000000 l    df *ABS*	00000000 alt_icache_flush_all.c
00000000 l    df *ABS*	00000000 alt_io_redirect.c
000152d4 l     F .text	000000d8 alt_open_fd
00000000 l    df *ABS*	00000000 alt_open.c
00015424 l     F .text	000000f8 alt_file_locked
000156a8 l     F .text	00000060 alt_get_errno
00000000 l    df *ABS*	00000000 altera_nios2_qsys_irq.c
00000000 l    df *ABS*	00000000 alt_find_dev.c
00000000 l    df *ABS*	00000000 alt_find_file.c
00000000 l    df *ABS*	00000000 alt_get_fd.c
00000000 l    df *ABS*	00000000 alt_icache_flush.c
00000000 l    df *ABS*	00000000 atexit.c
00000000 l    df *ABS*	00000000 exit.c
00000000 l    df *ABS*	00000000 memcmp.c
00000000 l    df *ABS*	00000000 __atexit.c
00000000 l    df *ABS*	00000000 __call_atexit.c
00015c30 l     F .text	00000004 register_fini
00000000 l    df *ABS*	00000000 alt_exit.c
00015de4 l     F .text	00000040 alt_sim_halt
0000b06c g     F .text	0000001c putchar
0000154c g     F .text	000002ec vid_draw_horiz_line
00010498 g     F .text	00000094 _mprec_log10
000061b4 g     F .text	0000011c I2C_Read
00010584 g     F .text	00000088 __any_on
00011fd4 g     F .text	00000070 _isatty_r
00074ba0 g     O .rodata	00000028 __mprec_tinytens
00013aec g     F .text	0000006c alt_main
0000b288 g     F .text	0000008c strcpy
0000b090 g     F .text	000000a0 _puts_r
0007b8a8 g     O .bss	00000100 alt_irq
00012044 g     F .text	00000078 _lseek_r
00007334 g     F .text	00000074 ACK_check
00001924 g     F .text	00000068 vid_color_convert16_24
00008d60 g     F .text	00000130 sqrt
00006fc0 g     F .text	00000094 I2CL_Read16
00078224 g       *ABS*	00000000 __flash_rwdata_start
0000729c g     F .text	00000098 ACK_single_check
00012e00 g     F .text	00000088 __eqdf2
0007bb38 g       *ABS*	00000000 __alt_heap_start
00008598 g     F .text	00000064 QUEUE_IsFull
0000aff4 g     F .text	00000044 printf
00004100 g     F .text	000001e0 GUI_DeskInit
00011940 g     F .text	00000068 __sseek
0000ef88 g     F .text	000000a4 __sinit
00011b40 g     F .text	00000130 __swbuf_r
0000fc94 g     F .text	00000084 _setlocale_r
0000f088 g     F .text	0000009c __sfmoreglue
00013b78 g     F .text	00000020 __malloc_unlock
00000e90 g     F .text	0000013c vid_draw_box
000005bc g     F .text	00000044 PtCopy
00003464 g     F .text	00000278 vid_print_string_alpha
0000ffac g     F .text	000000e0 memmove
000073a8 g     F .text	0000021c OC_I2C_Write
0000494c g     F .text	000002f0 GUI_ShowGesture
0000f078 g     F .text	00000010 _cleanup
0001060c g     F .text	000000bc _Balloc
00076380 g     O .rwdata	00000415 cour10_font_array
00012f10 g     F .text	00000088 __gtdf2
00000c60 g     F .text	0000011c vid_move_block
0000a744 g     F .text	00000010 __errno
00006e20 g     F .text	000001a0 I2CL_MultipleWrite
0000400c g     F .text	000000f4 vid_string_pixel_length_alpha
000066d4 g     F .text	0000013c i2c_write
00000000 g     F .entry	0000001c __reset
00008aac g     F .text	00000080 DRAW_EraseScreen
00005f1c g     F .text	00000040 my_wait
00000020 g       *ABS*	00000000 __flash_exceptions_start
00011f60 g     F .text	00000074 _fstat_r
0007b858 g     O .bss	00000004 errno
000062d0 g     F .text	0000017c I2C_Read16
0007b870 g     O .bss	00000004 alt_argv
000801d8 g       *ABS*	00000000 _gp
00013ff4 g     F .text	00000030 usleep
000056e4 g     F .text	0000009c VPG_ColorPanel
000036dc g     F .text	00000154 seperate_color_channels
00076ff8 g     O .rwdata	00000180 alt_fd_list
00008c78 g     F .text	00000038 FrameReader_Go
0000b088 g     F .text	00000008 _putchar_r
00015728 g     F .text	00000094 alt_find_dev
0000aebc g     F .text	000000a0 memcpy
0000f06c g     F .text	0000000c _cleanup_r
00009d38 g     F .text	000000f8 __floatsidf
00002414 g     F .text	00000688 vid_round_corner_points
000153ac g     F .text	00000078 alt_io_redirect
00009cb0 g     F .text	00000088 __ltdf2
0000847c g     F .text	00000034 MTC2_ClearEvent
00015e48 g       *ABS*	00000000 __DTOR_END__
000042e0 g     F .text	00000094 GUI_CheckButton
0000b130 g     F .text	00000014 puts
00000600 g     F .text	00000058 vid_clean_screen
000103e8 g     F .text	000000b0 __ratio
00008550 g     F .text	00000048 QUEUE_IsEmpty
00000750 g     F .text	0000014c vid_scroll_string_init
000148b4 g     F .text	00000224 altera_avalon_jtag_uart_read
0000a768 g     F .text	00000014 malloc
0000b038 g     F .text	00000034 _printf_r
0000a044 g     F .text	00000008 __udivsi3
00013788 g     F .text	000000c4 isatty
00074ab0 g     O .rodata	000000c8 __mprec_tens
00008324 g     F .text	00000158 MTC2_GetStatus
0000fc70 g     F .text	00000008 __locale_charset
0000d37c g     F .text	00000040 vsnprintf
00004374 g     F .text	0000051c GUI_DeskDraw
000159ac g     F .text	00000090 alt_icache_flush
0000644c g     F .text	00000180 I2C_MultipleRead
0007b84c g     O .bss	00000004 __malloc_top_pad
00008728 g     F .text	00000030 QUEUE_Empty
000781f4 g     O .rwdata	00000004 __mb_cur_max
0000fc78 g     F .text	0000000c _localeconv_r
00010d70 g     F .text	0000003c __i2b
0000f654 g     F .text	0000049c __sfvwrite_r
00008694 g     F .text	00000094 QUEUE_Pop
0000b144 g     F .text	00000070 _sbrk_r
000004c8 g     F .text	00000034 RectHeight
00008a04 g     F .text	000000a8 VIPFR_ActiveDrawFrame
00008b2c g     F .text	0000008c FrameReader_SetFrame0
000120bc g     F .text	00000078 _read_r
00076fc4 g     O .rwdata	0000000c __lc_ctype
0007820c g     O .rwdata	00000004 alt_max_fd
0000a544 g     F .text	00000138 __unpack_d
0000562c g     F .text	000000b8 VPG_XLine
00011e3c g     F .text	00000110 _fclose_r
0000eeec g     F .text	00000034 fflush
0007b850 g     O .bss	00000004 __malloc_max_sbrked_mem
00006ab8 g     F .text	00000188 I2CL_Read
000757c0 g     O .rwdata	00000bc0 tahomabold_32
00009620 g     F .text	00000074 __adddf3
00004c7c g     F .text	000000ac GUI_ClearPaintArea
00000284 g     F .text	00000040 PtSet
000102c8 g     F .text	00000120 __b2d
000127a0 g     F .text	00000660 __umoddi3
00013998 g     F .text	000000f4 lseek
000781e0 g     O .rwdata	00000004 __fdlib_version
000781e8 g     O .rwdata	00000004 _global_impure_ptr
00001edc g     F .text	0000016c vid_draw_circle
00011304 g     F .text	000005f4 _realloc_r
0007bb38 g       *ABS*	00000000 __bss_end
00013690 g     F .text	000000f8 alt_iic_isr_register
00013ee8 g     F .text	0000010c alt_tick
00006058 g     F .text	0000015c I2C_Write16
000003a8 g     F .text	00000088 RectOffset
000081e8 g     F .text	000000f4 MTC2_Init
00012134 g     F .text	0000066c __udivdi3
00074b78 g     O .rodata	00000028 __mprec_bigtens
00010ff8 g     F .text	00000120 __s2b
00001c60 g     F .text	0000027c vid_draw_sloped_line
00013020 g     F .text	00000194 __floatunsidf
000101e8 g     F .text	00000060 __mcmp
00005874 g     F .text	000000e0 VPG_VGrid
0000f054 g     F .text	00000018 __fp_lock_all
00013648 g     F .text	00000048 alt_ic_irq_enabled
00005f5c g     F .text	000000fc I2C_Write
00002048 g     F .text	000003cc vid_draw_round_corner_box
00007820 g     F .text	00000218 OC_I2CL_Write
00013e50 g     F .text	00000098 alt_alarm_stop
0007b868 g     O .bss	00000004 alt_irq_active
000075c4 g     F .text	00000068 ACK_judge_for_read
000000ec g     F .exceptions	000000c8 alt_irq_handler
00076fd0 g     O .rwdata	00000028 alt_dev_null
000070e8 g     F .text	00000058 Write32_Data
00007054 g     F .text	00000094 I2CL_Write16
000065cc g     F .text	00000088 i2c_start
00013314 g     F .text	00000044 alt_dcache_flush_all
000100b4 g     F .text	00000070 __hi0bits
00009e30 g     F .text	000000d8 __fixdfsi
00078224 g       *ABS*	00000000 __ram_rwdata_end
00002f14 g     F .text	00000348 vid_draw_triangle
00078204 g     O .rwdata	00000008 alt_dev_list
00014024 g     F .text	00000124 write
0001121c g     F .text	000000e8 _putc_r
00076798 g     O .rwdata	00000024 szPallete
00003338 g     F .text	0000012c CropImage16
00074c00 g       *ABS*	00000000 __ram_rodata_end
00013384 g     F .text	000000d8 fstat
0000089c g     F .text	000003c4 vid_scroll_string
00007cd8 g     F .text	00000060 myprintf
00010ed8 g     F .text	00000120 __pow5mult
0007b85c g     O .bss	00000004 __nlocale_changed
0000a04c g     F .text	00000008 __umodsi3
00000494 g     F .text	00000034 RectWidth
0000325c g     F .text	000000dc CopyImage16
0007bb38 g       *ABS*	00000000 end
00005d24 g     F .text	00000128 GUI_VPG
00008970 g     F .text	00000040 VIPFR_Go
00005508 g     F .text	00000064 GUI_ShowInfo
000143b4 g     F .text	000000c0 altera_avalon_jtag_uart_init
00000fcc g     F .text	000000ec vid_print_char
00015e44 g       *ABS*	00000000 __CTOR_LIST__
00800000 g       *ABS*	00000000 __alt_stack_pointer
00014d88 g     F .text	00000090 alt_avalon_timer_sc_init
0000a1b0 g     F .text	00000080 __clzsi2
00014ad8 g     F .text	00000240 altera_avalon_jtag_uart_write
00005ba8 g     F .text	0000017c GUI_ShowPAT
00002af0 g     F .text	00000054 min3
00000658 g     F .text	000000bc vid_draw_line
00008758 g     F .text	000000cc VIPFR_Init
0000ef78 g     F .text	00000004 __sfp_lock_acquire
0000fec8 g     F .text	000000e4 memchr
0000b3e0 g     F .text	00001ec4 ___vfprintf_internal_r
0000b228 g     F .text	00000060 _sprintf_r
0000f340 g     F .text	00000314 _free_r
00015c34 g     F .text	000001b0 __call_exitprocs
0007b860 g     O .bss	00000004 __mlocale_changed
00005780 g     F .text	000000f4 VPG_Grid
000781f0 g     O .rwdata	00000004 __malloc_sbrk_base
000001b4 g     F .text	0000004c _start
0007b878 g     O .bss	00000004 _alt_tick_rate
000082dc g     F .text	00000048 MTC2_UnInit
000109d0 g     F .text	0000014c __lshift
000085fc g     F .text	00000098 QUEUE_Push
0007b87c g     O .bss	00000004 _alt_nticks
00002ba8 g     F .text	0000010c vid_put_pixel_in_span_map
00013b98 g     F .text	00000124 read
00008824 g     F .text	0000003c VIPFR_UnInit
00005a34 g     F .text	00000174 VPG_ColorBar
000141dc g     F .text	00000058 alt_sys_init
00015afc g     F .text	00000134 __register_exitproc
00010b1c g     F .text	00000254 __multiply
000012c0 g     F .text	0000028c vid_paint_block
0001474c g     F .text	00000074 altera_avalon_jtag_uart_close
0000a054 g     F .text	00000038 __mulsi3
00074c00 g       *ABS*	00000000 __ram_rwdata_start
00015e48 g       *ABS*	00000000 __ram_rodata_start
0007b880 g     O .bss	00000028 __malloc_current_mallinfo
000106c8 g     F .text	0000017c __d2b
00005954 g     F .text	000000e0 VPG_HGrid
00001884 g     F .text	000000a0 vid_color_convert24_16
0001426c g     F .text	00000058 altera_avalon_jtag_uart_read_fd
000158dc g     F .text	000000d0 alt_get_fd
00014f6c g     F .text	0000015c alt_busy_sleep
0000a67c g     F .text	000000c8 __fpcmp_parts_d
00011dcc g     F .text	00000070 _close_r
00004d28 g     F .text	000007e0 GUI
00003bb8 g     F .text	000002a8 alpha_blending
00015a88 g     F .text	00000074 memcmp
0001431c g     F .text	00000048 altera_avalon_jtag_uart_close_fd
0007bb38 g       *ABS*	00000000 __alt_stack_base
00014364 g     F .text	00000050 altera_avalon_jtag_uart_ioctl_fd
0002fb5c g     O .rodata	000448f0 gesture_bmp
0000d3bc g     F .text	0000013c __swsetup_r
00007198 g     F .text	00000104 oc_i2c_init
00009a58 g     F .text	00000258 __divdf3
0000f124 g     F .text	000000f0 __sfp
0001052c g     F .text	00000058 __copybits
00076bbc g     O .rwdata	00000408 __malloc_av_
0000ef84 g     F .text	00000004 __sinit_lock_release
0000d2c8 g     F .text	000000b4 _vsnprintf_r
00006654 g     F .text	00000080 i2c_stop
00009694 g     F .text	000003c4 __muldf3
00011a24 g     F .text	00000060 __sread
000157bc g     F .text	00000120 alt_find_file
000150c8 g     F .text	000000b4 alt_dev_llist_insert
00013b58 g     F .text	00000020 __malloc_lock
0000198c g     F .text	000002d4 vid_copy_line_to_frame_buffer
00013d94 g     F .text	000000bc sbrk
0000ecf0 g     F .text	000001fc _fflush_r
00011d04 g     F .text	000000c8 _calloc_r
000084b0 g     F .text	00000070 QUEUE_New
0007b848 g       *ABS*	00000000 __bss_start
0000af5c g     F .text	00000098 memset
00005e4c g     F .text	000000d0 main
0007b874 g     O .bss	00000004 alt_envp
0007b854 g     O .bss	00000004 __malloc_max_total_mem
00007d38 g     F .text	00000080 myprintf_hexarray
000142c4 g     F .text	00000058 altera_avalon_jtag_uart_write_fd
0000556c g     F .text	00000060 GUI_ShowTouchPoint
00006810 g     F .text	0000014c i2c_read
00011c70 g     F .text	0000001c __swbuf
00008c44 g     F .text	00000034 FrameReader_SelectFrame
00074c00 g     O .rwdata	00000bc0 tahomabold_20
00011938 g     F .text	00000008 __sclose
00009188 g     F .text	00000008 matherr
00800000 g       *ABS*	00000000 __alt_heap_limit
00003e60 g     F .text	000001ac vid_print_char_alpha
00011f4c g     F .text	00000014 fclose
000781d8 g     O .rwdata	00000004 cour10_font
0007b9a8 g     O .bss	00000190 _atexit0
0000d73c g     F .text	000015b4 _dtoa_r
0000a77c g     F .text	00000740 _malloc_r
00078210 g     O .rwdata	00000004 alt_errno
0000fbb8 g     F .text	000000b8 _fwalk
000004fc g     F .text	000000c0 PtDistance
000002c4 g     F .text	0000005c RectSet
00011118 g     F .text	00000104 putc
00009f84 g     F .text	00000060 __divsi3
00000430 g     F .text	00000064 RectCopy
000748c4 g     O .rodata	00000014 __thenan_df
0000f214 g     F .text	0000012c _malloc_trim_r
00015e48 g       *ABS*	00000000 __CTOR_END__
000089b0 g     F .text	00000054 VIPFR_GetDrawFrame
00011a84 g     F .text	000000bc strcmp
00003988 g     F .text	00000230 read_from_frame
00015e48 g       *ABS*	00000000 __flash_rodata_start
00015e48 g       *ABS*	00000000 __DTOR_LIST__
00001240 g     F .text	00000080 vid_get_pixel
00012e88 g     F .text	00000088 __nedf2
000141a8 g     F .text	00000034 alt_irq_init
00013d1c g     F .text	00000078 alt_release_fd
0000b1b4 g     F .text	00000074 sprintf
000748d8 g     O .rodata	00000100 __clz_tab
00007ca8 g     F .text	00000030 debug_output
0007b864 g     O .bss	00000004 _PathLocale
00015a3c g     F .text	00000014 atexit
00011c8c g     F .text	00000078 _write_r
00000200 g     F .text	00000084 IsPtInRect
0000fd18 g     F .text	0000001c setlocale
000781e4 g     O .rwdata	00000004 _impure_ptr
0007b86c g     O .bss	00000004 alt_argc
00015240 g     F .text	00000064 _do_dtors
00007db8 g     F .text	00000084 myprintf_dwordarray
00006c40 g     F .text	000001e0 I2CL_MultipleRead
00000020 g       .exceptions	00000000 alt_irq_entry
00010248 g     F .text	00000080 __ulp
000118f8 g     F .text	00000040 __isinfd
0000f03c g     F .text	00000018 __fp_unlock_all
000781fc g     O .rwdata	00000008 alt_fs_list
00007140 g     F .text	00000058 Read32_Data
00000d7c g     F .text	00000114 vid_print_string
0000762c g     F .text	000001f4 OC_I2C_Read
00008bb8 g     F .text	0000008c FrameReader_SetFrame1
00000020 g       *ABS*	00000000 __ram_exceptions_start
0000fc84 g     F .text	00000010 localeconv
00008e90 g     F .text	000002c8 __ieee754_sqrt
000134bc g     F .text	00000050 alt_ic_isr_register
00078224 g       *ABS*	00000000 _edata
00004c3c g     F .text	00000040 GUI_TraceGesture
0007bb38 g       *ABS*	00000000 _end
000055cc g     F .text	00000060 ShowInfo
00002a9c g     F .text	00000054 max3
000001b4 g       *ABS*	00000000 __ram_exceptions_end
000147c0 g     F .text	000000f4 altera_avalon_jtag_uart_ioctl
00008cb0 g     F .text	000000b0 VIPFR_ReserveBackground
000135a8 g     F .text	000000a0 alt_ic_irq_disable
00001838 g     F .text	0000004c vid_merge_colors
000119a8 g     F .text	0000007c __swrite
000781ec g     O .rwdata	00000004 __malloc_trim_threshold
00015708 g     F .text	00000020 altera_nios2_qsys_irq_init
00015a50 g     F .text	00000038 exit
0000faf0 g     F .text	000000c8 _fwalk_reent
00010844 g     F .text	0000018c __mdiff
00004890 g     F .text	000000bc IsContinuedPoint
00009fe4 g     F .text	00000060 __modsi3
00800000 g       *ABS*	00000000 __alt_data_end
00000020 g     F .exceptions	00000000 alt_exception
0000ef7c g     F .text	00000004 __sfp_lock_release
00000000 g       *ABS*	00000000 __alt_mem_sdram
00008520 g     F .text	00000030 QUEUE_Delete
000010b8 g     F .text	00000188 vid_set_pixel
00008860 g     F .text	00000110 VIPFR_SetFrameSize
00007a38 g     F .text	00000270 OC_I2CL_Read
00015e24 g     F .text	00000020 _exit
00009158 g     F .text	00000030 __isnand
00014e18 g     F .text	00000154 alt_alarm_start
00000714 g     F .text	0000003c vid_scroll_string_quit
0000a08c g     F .text	00000124 __muldi3
0000fd34 g     F .text	00000194 __smakebuf_r
0000b314 g     F .text	00000074 strlen
0001551c g     F .text	0000018c open
00012f98 g     F .text	00000088 __gedf2
00000320 g     F .text	00000088 RectInflate
000152a4 g     F .text	00000030 alt_icache_flush_all
00078214 g     O .rwdata	00000004 alt_priority_mask
0001350c g     F .text	0000009c alt_ic_irq_enable
0000d2a4 g     F .text	00000024 __vfprintf_internal
000095a0 g     F .text	00000080 __subdf3
00002cb4 g     F .text	00000260 vid_bres_scan_edges
00010124 g     F .text	000000c4 __lo0bits
0007821c g     O .rwdata	00000008 alt_alarm_list
00002b44 g     F .text	00000064 max_diff3
000151dc g     F .text	00000064 _do_ctors
0000695c g     F .text	0000015c I2CL_Write
00003830 g     F .text	00000158 merge_color_channels
000131b4 g     F .text	00000100 close
000138ac g     F .text	00000080 alt_load
0000a230 g     F .text	00000314 __pack_d
0000a754 g     F .text	00000014 free
0000ef80 g     F .text	00000004 __sinit_lock_acquire
00010dac g     F .text	0000012c __multadd
0001008c g     F .text	00000028 _Bfree



Disassembly of section .entry:

00000000 <__reset>:
#if NIOS2_ICACHE_SIZE > 0 && defined(ALT_ALLOW_CODE_AT_RESET) && !defined(ALT_SIM_OPTIMIZE)
    /* Assume the instruction cache size is always a power of two. */
#if NIOS2_ICACHE_SIZE > 0x8000
    movhi r2, %hi(NIOS2_ICACHE_SIZE)
#else
    movui r2, NIOS2_ICACHE_SIZE
   0:	00840014 	movui	r2,4096
#endif

0:
    initi r2
   4:	1001483a 	initi	r2
    addi r2, r2, -NIOS2_ICACHE_LINE_SIZE
   8:	10bff804 	addi	r2,r2,-32
    bgt r2, zero, 0b
   c:	00bffd16 	blt	zero,r2,4 <__reset+0x4>
 * Jump to the _start entry point in the .text section if reset code
 * is allowed or if optimizing for RTL simulation.
 */
#if defined(ALT_ALLOW_CODE_AT_RESET) || defined(ALT_SIM_OPTIMIZE)
    /* Jump to the _start entry point in the .text section. */
    movhi r1, %hi(_start)
  10:	00400034 	movhi	at,0
    ori r1, r1, %lo(_start)
  14:	08406d14 	ori	at,at,436
    jmp r1
  18:	0800683a 	jmp	at
  1c:	00000000 	call	0 <__reset>

Disassembly of section .exceptions:

00000020 <alt_exception>:
         * Process an exception.  For all exceptions we must preserve all
         * caller saved registers on the stack (See the Nios2 ABI
         * documentation for details).
         */

        addi  sp, sp, -76
  20:	deffed04 	addi	sp,sp,-76

#endif

#endif

        stw   ra,  0(sp)
  24:	dfc00015 	stw	ra,0(sp)
        /*
         * Leave a gap in the stack frame at 4(sp) for the muldiv handler to
         * store zero into.
         */

        stw   r1,   8(sp)
  28:	d8400215 	stw	at,8(sp)
        stw   r2,  12(sp)
  2c:	d8800315 	stw	r2,12(sp)
        stw   r3,  16(sp)
  30:	d8c00415 	stw	r3,16(sp)
        stw   r4,  20(sp)
  34:	d9000515 	stw	r4,20(sp)
        stw   r5,  24(sp)
  38:	d9400615 	stw	r5,24(sp)
        stw   r6,  28(sp)
  3c:	d9800715 	stw	r6,28(sp)
        stw   r7,  32(sp)
  40:	d9c00815 	stw	r7,32(sp)

        rdctl r5, estatus
  44:	000b307a 	rdctl	r5,estatus

        stw   r8,  36(sp)
  48:	da000915 	stw	r8,36(sp)
        stw   r9,  40(sp)
  4c:	da400a15 	stw	r9,40(sp)
        stw   r10, 44(sp)
  50:	da800b15 	stw	r10,44(sp)
        stw   r11, 48(sp)
  54:	dac00c15 	stw	r11,48(sp)
        stw   r12, 52(sp)
  58:	db000d15 	stw	r12,52(sp)
        stw   r13, 56(sp)
  5c:	db400e15 	stw	r13,56(sp)
        stw   r14, 60(sp)
  60:	db800f15 	stw	r14,60(sp)
        stw   r15, 64(sp)
  64:	dbc01015 	stw	r15,64(sp)
        /*
         * ea-4 contains the address of the instruction being executed
         * when the exception occured. For interrupt exceptions, we will
         * will be re-issue the isntruction. Store it in 72(sp)
         */
        stw   r5,  68(sp)  /* estatus */
  68:	d9401115 	stw	r5,68(sp)
        addi  r15, ea, -4  /* instruction that caused exception */
  6c:	ebffff04 	addi	r15,ea,-4
        stw   r15,  72(sp)
  70:	dbc01215 	stw	r15,72(sp)
#else
        /*
         * Test to see if the exception was a software exception or caused 
         * by an external interrupt, and vector accordingly.
         */
        rdctl r4, ipending
  74:	0009313a 	rdctl	r4,ipending
        andi  r2, r5, 1
  78:	2880004c 	andi	r2,r5,1
        beq   r2, zero, .Lnot_irq
  7c:	10000326 	beq	r2,zero,8c <alt_exception+0x6c>
        beq   r4, zero, .Lnot_irq
  80:	20000226 	beq	r4,zero,8c <alt_exception+0x6c>
        /*
         * Now that all necessary registers have been preserved, call 
         * alt_irq_handler() to process the interrupts.
         */

        call alt_irq_handler
  84:	00000ec0 	call	ec <alt_irq_handler>

        .section .exceptions.irqreturn, "xa"

        br    .Lexception_exit
  88:	00000306 	br	98 <alt_exception+0x78>
         * upon completion, so we write ea (address of instruction *after*
         * the one where the exception occured) into 72(sp). The actual
         * instruction that caused the exception is written in r2, which these
         * handlers will utilize.
         */
        stw   ea,  72(sp)  /* Don't re-issue */
  8c:	df401215 	stw	ea,72(sp)
        ldw   r2, -4(ea)   /* Instruction that caused exception */
  90:	e8bfff17 	ldw	r2,-4(ea)
#ifdef NIOS2_HAS_DEBUG_STUB
       /*
        *  Either tell the user now (if there is a debugger attached) or go into
        *  the debug monitor which will loop until a debugger is attached.
        */
        break
  94:	003da03a 	break	0
        /* 
         * Restore the saved registers, so that all general purpose registers 
         * have been restored to their state at the time the interrupt occured.
         */

        ldw   r5,  68(sp)
  98:	d9401117 	ldw	r5,68(sp)
        ldw   ea,  72(sp)  /* This becomes the PC once eret is executed */
  9c:	df401217 	ldw	ea,72(sp)
        ldw   ra,   0(sp)
  a0:	dfc00017 	ldw	ra,0(sp)

        wrctl estatus, r5
  a4:	2801707a 	wrctl	estatus,r5

        ldw   r1,   8(sp)
  a8:	d8400217 	ldw	at,8(sp)
        ldw   r2,  12(sp)
  ac:	d8800317 	ldw	r2,12(sp)
        ldw   r3,  16(sp)
  b0:	d8c00417 	ldw	r3,16(sp)
        ldw   r4,  20(sp)
  b4:	d9000517 	ldw	r4,20(sp)
        ldw   r5,  24(sp)
  b8:	d9400617 	ldw	r5,24(sp)
        ldw   r6,  28(sp)
  bc:	d9800717 	ldw	r6,28(sp)
        ldw   r7,  32(sp)
  c0:	d9c00817 	ldw	r7,32(sp)
#ifdef ALT_STACK_CHECK
        ldw   et, %gprel(alt_exception_old_stack_limit)(gp)
#endif
#endif

        ldw   r8,  36(sp)
  c4:	da000917 	ldw	r8,36(sp)
        ldw   r9,  40(sp)
  c8:	da400a17 	ldw	r9,40(sp)
        ldw   r10, 44(sp)
  cc:	da800b17 	ldw	r10,44(sp)
        ldw   r11, 48(sp)
  d0:	dac00c17 	ldw	r11,48(sp)
        ldw   r12, 52(sp)
  d4:	db000d17 	ldw	r12,52(sp)
        ldw   r13, 56(sp)
  d8:	db400e17 	ldw	r13,56(sp)
        ldw   r14, 60(sp)
  dc:	db800f17 	ldw	r14,60(sp)
        ldw   r15, 64(sp)
  e0:	dbc01017 	ldw	r15,64(sp)
#endif

        ldw   sp,  76(sp)

#else
        addi  sp, sp, 76
  e4:	dec01304 	addi	sp,sp,76

        /*
         * Return to the interrupted instruction.
         */

        eret
  e8:	ef80083a 	eret

000000ec <alt_irq_handler>:
 * instruction is present if the macro ALT_CI_INTERRUPT_VECTOR defined.
 */

void alt_irq_handler (void) __attribute__ ((section (".exceptions")));
void alt_irq_handler (void)
{
  ec:	defff904 	addi	sp,sp,-28
  f0:	dfc00615 	stw	ra,24(sp)
  f4:	df000515 	stw	fp,20(sp)
  f8:	df000504 	addi	fp,sp,20
#ifndef NIOS2_EIC_PRESENT
static ALT_INLINE alt_u32 ALT_ALWAYS_INLINE alt_irq_pending (void)
{
  alt_u32 active;

  NIOS2_READ_IPENDING (active);
  fc:	0005313a 	rdctl	r2,ipending
 100:	e0bffc15 	stw	r2,-16(fp)

  return active;
 104:	e0bffc17 	ldw	r2,-16(fp)
   * Consider the case where the high priority interupt is asserted during
   * the interrupt entry sequence for a lower priority interrupt to see why
   * this is the case.
   */

  active = alt_irq_pending ();
 108:	e0bfff15 	stw	r2,-4(fp)

  do
  {
    i = 0;
 10c:	e03ffd15 	stw	zero,-12(fp)
    mask = 1;
 110:	00800044 	movi	r2,1
 114:	e0bffe15 	stw	r2,-8(fp)
     * called to clear the interrupt condition.
     */

    do
    {
      if (active & mask)
 118:	e0ffff17 	ldw	r3,-4(fp)
 11c:	e0bffe17 	ldw	r2,-8(fp)
 120:	1884703a 	and	r2,r3,r2
 124:	1005003a 	cmpeq	r2,r2,zero
 128:	1000161e 	bne	r2,zero,184 <alt_irq_handler+0x98>
      { 
#ifdef ALT_ENHANCED_INTERRUPT_API_PRESENT
        alt_irq[i].handler(alt_irq[i].context); 
 12c:	e0bffd17 	ldw	r2,-12(fp)
 130:	00c00234 	movhi	r3,8
 134:	18ee2a04 	addi	r3,r3,-18264
 138:	100490fa 	slli	r2,r2,3
 13c:	10c5883a 	add	r2,r2,r3
 140:	11400017 	ldw	r5,0(r2)
 144:	e0bffd17 	ldw	r2,-12(fp)
 148:	00c00234 	movhi	r3,8
 14c:	18ee2a04 	addi	r3,r3,-18264
 150:	100490fa 	slli	r2,r2,3
 154:	10c5883a 	add	r2,r2,r3
 158:	10800104 	addi	r2,r2,4
 15c:	11000017 	ldw	r4,0(r2)
 160:	283ee83a 	callr	r5
#ifndef NIOS2_EIC_PRESENT
static ALT_INLINE alt_u32 ALT_ALWAYS_INLINE alt_irq_pending (void)
{
  alt_u32 active;

  NIOS2_READ_IPENDING (active);
 164:	0005313a 	rdctl	r2,ipending
 168:	e0bffb15 	stw	r2,-20(fp)

  return active;
 16c:	e0bffb17 	ldw	r2,-20(fp)
      mask <<= 1;
      i++;

    } while (1);

    active = alt_irq_pending ();
 170:	e0bfff15 	stw	r2,-4(fp)
    
  } while (active);
 174:	e0bfff17 	ldw	r2,-4(fp)
 178:	1004c03a 	cmpne	r2,r2,zero
 17c:	103fe31e 	bne	r2,zero,10c <alt_irq_handler+0x20>
 180:	00000706 	br	1a0 <alt_irq_handler+0xb4>
#else
        alt_irq[i].handler(alt_irq[i].context, i); 
#endif
        break;
      }
      mask <<= 1;
 184:	e0bffe17 	ldw	r2,-8(fp)
 188:	1085883a 	add	r2,r2,r2
 18c:	e0bffe15 	stw	r2,-8(fp)
      i++;
 190:	e0bffd17 	ldw	r2,-12(fp)
 194:	10800044 	addi	r2,r2,1
 198:	e0bffd15 	stw	r2,-12(fp)

    } while (1);
 19c:	003fde06 	br	118 <alt_irq_handler+0x2c>
  /*
   * Notify the operating system that interrupt processing is complete.
   */ 

  ALT_OS_INT_EXIT();
}
 1a0:	e037883a 	mov	sp,fp
 1a4:	dfc00117 	ldw	ra,4(sp)
 1a8:	df000017 	ldw	fp,0(sp)
 1ac:	dec00204 	addi	sp,sp,8
 1b0:	f800283a 	ret

Disassembly of section .text:

000001b4 <_start>:

    /* Assume the data cache size is always a power of two. */
#if NIOS2_DCACHE_SIZE > 0x8000
    movhi r2, %hi(NIOS2_DCACHE_SIZE)
#else
    movui r2, NIOS2_DCACHE_SIZE
     1b4:	00820014 	movui	r2,2048
#endif

0:
    initd 0(r2)
     1b8:	10000033 	initd	0(r2)
    addi r2, r2, -NIOS2_DCACHE_LINE_SIZE
     1bc:	10bff804 	addi	r2,r2,-32
    bgt r2, zero, 0b
     1c0:	00bffd16 	blt	zero,r2,1b8 <_start+0x4>
#if (NIOS2_NUM_OF_SHADOW_REG_SETS == 0)    
    /*
     * Now that the caches are initialized, set up the stack pointer.
     * The value provided by the linker is assumed to be correctly aligned.
     */
    movhi sp, %hi(__alt_stack_pointer)
     1c4:	06c02034 	movhi	sp,128
    ori sp, sp, %lo(__alt_stack_pointer)
     1c8:	dec00014 	ori	sp,sp,0

    /* Set up the global pointer. */
    movhi gp, %hi(_gp)
     1cc:	06800234 	movhi	gp,8
    ori gp, gp, %lo(_gp)
     1d0:	d6807614 	ori	gp,gp,472
 */
#ifndef ALT_SIM_OPTIMIZE
    /* Log that the BSS is about to be cleared. */
    ALT_LOG_PUTS(alt_log_msg_bss)

    movhi r2, %hi(__bss_start)
     1d4:	008001f4 	movhi	r2,7
    ori r2, r2, %lo(__bss_start)
     1d8:	10ae1214 	ori	r2,r2,47176

    movhi r3, %hi(__bss_end)
     1dc:	00c001f4 	movhi	r3,7
    ori r3, r3, %lo(__bss_end)
     1e0:	18eece14 	ori	r3,r3,47928

    beq r2, r3, 1f
     1e4:	10c00326 	beq	r2,r3,1f4 <_start+0x40>

0:
    stw zero, (r2)
     1e8:	10000015 	stw	zero,0(r2)
    addi r2, r2, 4
     1ec:	10800104 	addi	r2,r2,4
    bltu r2, r3, 0b
     1f0:	10fffd36 	bltu	r2,r3,1e8 <_start+0x34>
     * section aren't defined until alt_load() has been called).
     */
    mov   et, zero
#endif

    call alt_load
     1f4:	00138ac0 	call	138ac <alt_load>

    /* Log that alt_main is about to be called. */
    ALT_LOG_PUTS(alt_log_msg_alt_main)

    /* Call the C entry point. It should never return. */
    call alt_main
     1f8:	0013aec0 	call	13aec <alt_main>

000001fc <alt_after_alt_main>:

    /* Wait in infinite loop in case alt_main does return. */
alt_after_alt_main:
    br alt_after_alt_main
     1fc:	003fff06 	br	1fc <alt_after_alt_main>

00000200 <IsPtInRect>:

//#define BOUND(x, mini, maxi) ((x<(mini)?(mini):( (x>(maxi))?(maxi):(x) )))

//#define COPY_POINT(pt_des, pt_src)  memcpy(&pt_des, &pt_src,sizeof(POINT))

bool IsPtInRect(POINT *pt, RECT *rc){
     200:	defffc04 	addi	sp,sp,-16
     204:	df000315 	stw	fp,12(sp)
     208:	df000304 	addi	fp,sp,12
     20c:	e13ffe15 	stw	r4,-8(fp)
     210:	e17fff15 	stw	r5,-4(fp)
    bool bYes = FALSE;
     214:	e03ffd15 	stw	zero,-12(fp)
    
    if (pt->x >= rc->left && pt->x <= rc->right && pt->y >= rc->top && pt->y <= rc->bottom)
     218:	e0bffe17 	ldw	r2,-8(fp)
     21c:	10c00017 	ldw	r3,0(r2)
     220:	e0bfff17 	ldw	r2,-4(fp)
     224:	10800017 	ldw	r2,0(r2)
     228:	18801116 	blt	r3,r2,270 <IsPtInRect+0x70>
     22c:	e0bffe17 	ldw	r2,-8(fp)
     230:	10c00017 	ldw	r3,0(r2)
     234:	e0bfff17 	ldw	r2,-4(fp)
     238:	10800117 	ldw	r2,4(r2)
     23c:	10c00c16 	blt	r2,r3,270 <IsPtInRect+0x70>
     240:	e0bffe17 	ldw	r2,-8(fp)
     244:	10c00117 	ldw	r3,4(r2)
     248:	e0bfff17 	ldw	r2,-4(fp)
     24c:	10800217 	ldw	r2,8(r2)
     250:	18800716 	blt	r3,r2,270 <IsPtInRect+0x70>
     254:	e0bffe17 	ldw	r2,-8(fp)
     258:	10c00117 	ldw	r3,4(r2)
     25c:	e0bfff17 	ldw	r2,-4(fp)
     260:	10800317 	ldw	r2,12(r2)
     264:	10c00216 	blt	r2,r3,270 <IsPtInRect+0x70>
        bYes = TRUE;
     268:	00800044 	movi	r2,1
     26c:	e0bffd15 	stw	r2,-12(fp)
    
    return bYes;
     270:	e0bffd17 	ldw	r2,-12(fp)
}
     274:	e037883a 	mov	sp,fp
     278:	df000017 	ldw	fp,0(sp)
     27c:	dec00104 	addi	sp,sp,4
     280:	f800283a 	ret

00000284 <PtSet>:

void PtSet(POINT *pt, int x, int y){
     284:	defffc04 	addi	sp,sp,-16
     288:	df000315 	stw	fp,12(sp)
     28c:	df000304 	addi	fp,sp,12
     290:	e13ffd15 	stw	r4,-12(fp)
     294:	e17ffe15 	stw	r5,-8(fp)
     298:	e1bfff15 	stw	r6,-4(fp)
    pt->x = x;
     29c:	e0fffd17 	ldw	r3,-12(fp)
     2a0:	e0bffe17 	ldw	r2,-8(fp)
     2a4:	18800015 	stw	r2,0(r3)
    pt->y = y;
     2a8:	e0fffd17 	ldw	r3,-12(fp)
     2ac:	e0bfff17 	ldw	r2,-4(fp)
     2b0:	18800115 	stw	r2,4(r3)
}
     2b4:	e037883a 	mov	sp,fp
     2b8:	df000017 	ldw	fp,0(sp)
     2bc:	dec00104 	addi	sp,sp,4
     2c0:	f800283a 	ret

000002c4 <RectSet>:

void RectSet(RECT *rc, int left, int right, int top, int bottom){
     2c4:	defffb04 	addi	sp,sp,-20
     2c8:	df000415 	stw	fp,16(sp)
     2cc:	df000404 	addi	fp,sp,16
     2d0:	e13ffc15 	stw	r4,-16(fp)
     2d4:	e17ffd15 	stw	r5,-12(fp)
     2d8:	e1bffe15 	stw	r6,-8(fp)
     2dc:	e1ffff15 	stw	r7,-4(fp)
    rc->left = left;
     2e0:	e0fffc17 	ldw	r3,-16(fp)
     2e4:	e0bffd17 	ldw	r2,-12(fp)
     2e8:	18800015 	stw	r2,0(r3)
    rc->right = right;
     2ec:	e0fffc17 	ldw	r3,-16(fp)
     2f0:	e0bffe17 	ldw	r2,-8(fp)
     2f4:	18800115 	stw	r2,4(r3)
    rc->top = top;
     2f8:	e0fffc17 	ldw	r3,-16(fp)
     2fc:	e0bfff17 	ldw	r2,-4(fp)
     300:	18800215 	stw	r2,8(r3)
    rc->bottom = bottom;
     304:	e0fffc17 	ldw	r3,-16(fp)
     308:	e0800117 	ldw	r2,4(fp)
     30c:	18800315 	stw	r2,12(r3)
}
     310:	e037883a 	mov	sp,fp
     314:	df000017 	ldw	fp,0(sp)
     318:	dec00104 	addi	sp,sp,4
     31c:	f800283a 	ret

00000320 <RectInflate>:

void RectInflate(RECT *rc, int x, int y){
     320:	defffc04 	addi	sp,sp,-16
     324:	df000315 	stw	fp,12(sp)
     328:	df000304 	addi	fp,sp,12
     32c:	e13ffd15 	stw	r4,-12(fp)
     330:	e17ffe15 	stw	r5,-8(fp)
     334:	e1bfff15 	stw	r6,-4(fp)
    rc->left -= x;
     338:	e0bffd17 	ldw	r2,-12(fp)
     33c:	10c00017 	ldw	r3,0(r2)
     340:	e0bffe17 	ldw	r2,-8(fp)
     344:	1887c83a 	sub	r3,r3,r2
     348:	e0bffd17 	ldw	r2,-12(fp)
     34c:	10c00015 	stw	r3,0(r2)
    rc->right += x;
     350:	e0bffd17 	ldw	r2,-12(fp)
     354:	10c00117 	ldw	r3,4(r2)
     358:	e0bffe17 	ldw	r2,-8(fp)
     35c:	1887883a 	add	r3,r3,r2
     360:	e0bffd17 	ldw	r2,-12(fp)
     364:	10c00115 	stw	r3,4(r2)
    rc->top -= y;
     368:	e0bffd17 	ldw	r2,-12(fp)
     36c:	10c00217 	ldw	r3,8(r2)
     370:	e0bfff17 	ldw	r2,-4(fp)
     374:	1887c83a 	sub	r3,r3,r2
     378:	e0bffd17 	ldw	r2,-12(fp)
     37c:	10c00215 	stw	r3,8(r2)
    rc->bottom += y;
     380:	e0bffd17 	ldw	r2,-12(fp)
     384:	10c00317 	ldw	r3,12(r2)
     388:	e0bfff17 	ldw	r2,-4(fp)
     38c:	1887883a 	add	r3,r3,r2
     390:	e0bffd17 	ldw	r2,-12(fp)
     394:	10c00315 	stw	r3,12(r2)
}
     398:	e037883a 	mov	sp,fp
     39c:	df000017 	ldw	fp,0(sp)
     3a0:	dec00104 	addi	sp,sp,4
     3a4:	f800283a 	ret

000003a8 <RectOffset>:

void RectOffset(RECT *rc, int x, int y){
     3a8:	defffc04 	addi	sp,sp,-16
     3ac:	df000315 	stw	fp,12(sp)
     3b0:	df000304 	addi	fp,sp,12
     3b4:	e13ffd15 	stw	r4,-12(fp)
     3b8:	e17ffe15 	stw	r5,-8(fp)
     3bc:	e1bfff15 	stw	r6,-4(fp)
    rc->left += x;
     3c0:	e0bffd17 	ldw	r2,-12(fp)
     3c4:	10c00017 	ldw	r3,0(r2)
     3c8:	e0bffe17 	ldw	r2,-8(fp)
     3cc:	1887883a 	add	r3,r3,r2
     3d0:	e0bffd17 	ldw	r2,-12(fp)
     3d4:	10c00015 	stw	r3,0(r2)
    rc->right += x;
     3d8:	e0bffd17 	ldw	r2,-12(fp)
     3dc:	10c00117 	ldw	r3,4(r2)
     3e0:	e0bffe17 	ldw	r2,-8(fp)
     3e4:	1887883a 	add	r3,r3,r2
     3e8:	e0bffd17 	ldw	r2,-12(fp)
     3ec:	10c00115 	stw	r3,4(r2)
    rc->top += y;
     3f0:	e0bffd17 	ldw	r2,-12(fp)
     3f4:	10c00217 	ldw	r3,8(r2)
     3f8:	e0bfff17 	ldw	r2,-4(fp)
     3fc:	1887883a 	add	r3,r3,r2
     400:	e0bffd17 	ldw	r2,-12(fp)
     404:	10c00215 	stw	r3,8(r2)
    rc->bottom += y;
     408:	e0bffd17 	ldw	r2,-12(fp)
     40c:	10c00317 	ldw	r3,12(r2)
     410:	e0bfff17 	ldw	r2,-4(fp)
     414:	1887883a 	add	r3,r3,r2
     418:	e0bffd17 	ldw	r2,-12(fp)
     41c:	10c00315 	stw	r3,12(r2)
}
     420:	e037883a 	mov	sp,fp
     424:	df000017 	ldw	fp,0(sp)
     428:	dec00104 	addi	sp,sp,4
     42c:	f800283a 	ret

00000430 <RectCopy>:

void RectCopy(RECT *rcDes, RECT *rcSrc){
     430:	defffd04 	addi	sp,sp,-12
     434:	df000215 	stw	fp,8(sp)
     438:	df000204 	addi	fp,sp,8
     43c:	e13ffe15 	stw	r4,-8(fp)
     440:	e17fff15 	stw	r5,-4(fp)
    rcDes->left = rcSrc->left;
     444:	e0bfff17 	ldw	r2,-4(fp)
     448:	10c00017 	ldw	r3,0(r2)
     44c:	e0bffe17 	ldw	r2,-8(fp)
     450:	10c00015 	stw	r3,0(r2)
    rcDes->right = rcSrc->right;
     454:	e0bfff17 	ldw	r2,-4(fp)
     458:	10c00117 	ldw	r3,4(r2)
     45c:	e0bffe17 	ldw	r2,-8(fp)
     460:	10c00115 	stw	r3,4(r2)
    rcDes->top = rcSrc->top;
     464:	e0bfff17 	ldw	r2,-4(fp)
     468:	10c00217 	ldw	r3,8(r2)
     46c:	e0bffe17 	ldw	r2,-8(fp)
     470:	10c00215 	stw	r3,8(r2)
    rcDes->bottom = rcSrc->bottom;
     474:	e0bfff17 	ldw	r2,-4(fp)
     478:	10c00317 	ldw	r3,12(r2)
     47c:	e0bffe17 	ldw	r2,-8(fp)
     480:	10c00315 	stw	r3,12(r2)
}
     484:	e037883a 	mov	sp,fp
     488:	df000017 	ldw	fp,0(sp)
     48c:	dec00104 	addi	sp,sp,4
     490:	f800283a 	ret

00000494 <RectWidth>:

int RectWidth(RECT *rc){
     494:	defffe04 	addi	sp,sp,-8
     498:	df000115 	stw	fp,4(sp)
     49c:	df000104 	addi	fp,sp,4
     4a0:	e13fff15 	stw	r4,-4(fp)
    return (rc->right-rc->left);
     4a4:	e0bfff17 	ldw	r2,-4(fp)
     4a8:	10c00117 	ldw	r3,4(r2)
     4ac:	e0bfff17 	ldw	r2,-4(fp)
     4b0:	10800017 	ldw	r2,0(r2)
     4b4:	1885c83a 	sub	r2,r3,r2
}
     4b8:	e037883a 	mov	sp,fp
     4bc:	df000017 	ldw	fp,0(sp)
     4c0:	dec00104 	addi	sp,sp,4
     4c4:	f800283a 	ret

000004c8 <RectHeight>:

int RectHeight(RECT *rc){
     4c8:	defffe04 	addi	sp,sp,-8
     4cc:	df000115 	stw	fp,4(sp)
     4d0:	df000104 	addi	fp,sp,4
     4d4:	e13fff15 	stw	r4,-4(fp)
    return (rc->bottom-rc->top);
     4d8:	e0bfff17 	ldw	r2,-4(fp)
     4dc:	10c00317 	ldw	r3,12(r2)
     4e0:	e0bfff17 	ldw	r2,-4(fp)
     4e4:	10800217 	ldw	r2,8(r2)
     4e8:	1885c83a 	sub	r2,r3,r2
}
     4ec:	e037883a 	mov	sp,fp
     4f0:	df000017 	ldw	fp,0(sp)
     4f4:	dec00104 	addi	sp,sp,4
     4f8:	f800283a 	ret

000004fc <PtDistance>:

int PtDistance(POINT *pt1, POINT *pt2){
     4fc:	defff804 	addi	sp,sp,-32
     500:	dfc00715 	stw	ra,28(sp)
     504:	df000615 	stw	fp,24(sp)
     508:	dc000515 	stw	r16,20(sp)
     50c:	df000504 	addi	fp,sp,20
     510:	e13ffe15 	stw	r4,-8(fp)
     514:	e17fff15 	stw	r5,-4(fp)
    int nDistance;
    int a, b;
    a = pt1->x - pt2->x;
     518:	e0bffe17 	ldw	r2,-8(fp)
     51c:	10c00017 	ldw	r3,0(r2)
     520:	e0bfff17 	ldw	r2,-4(fp)
     524:	10800017 	ldw	r2,0(r2)
     528:	1885c83a 	sub	r2,r3,r2
     52c:	e0bffc15 	stw	r2,-16(fp)
    b = pt1->y - pt2->y;
     530:	e0bffe17 	ldw	r2,-8(fp)
     534:	10c00117 	ldw	r3,4(r2)
     538:	e0bfff17 	ldw	r2,-4(fp)
     53c:	10800117 	ldw	r2,4(r2)
     540:	1885c83a 	sub	r2,r3,r2
     544:	e0bffb15 	stw	r2,-20(fp)
    nDistance = a*a + b*b;
     548:	e13ffc17 	ldw	r4,-16(fp)
     54c:	e17ffc17 	ldw	r5,-16(fp)
     550:	000a0540 	call	a054 <__mulsi3>
     554:	1021883a 	mov	r16,r2
     558:	e13ffb17 	ldw	r4,-20(fp)
     55c:	e17ffb17 	ldw	r5,-20(fp)
     560:	000a0540 	call	a054 <__mulsi3>
     564:	8085883a 	add	r2,r16,r2
     568:	e0bffd15 	stw	r2,-12(fp)
    nDistance = sqrt(nDistance);
     56c:	e13ffd17 	ldw	r4,-12(fp)
     570:	0009d380 	call	9d38 <__floatsidf>
     574:	100b883a 	mov	r5,r2
     578:	180d883a 	mov	r6,r3
     57c:	2809883a 	mov	r4,r5
     580:	300b883a 	mov	r5,r6
     584:	0008d600 	call	8d60 <sqrt>
     588:	100b883a 	mov	r5,r2
     58c:	180d883a 	mov	r6,r3
     590:	2809883a 	mov	r4,r5
     594:	300b883a 	mov	r5,r6
     598:	0009e300 	call	9e30 <__fixdfsi>
     59c:	e0bffd15 	stw	r2,-12(fp)
    
    return nDistance;
     5a0:	e0bffd17 	ldw	r2,-12(fp)
}
     5a4:	e037883a 	mov	sp,fp
     5a8:	dfc00217 	ldw	ra,8(sp)
     5ac:	df000117 	ldw	fp,4(sp)
     5b0:	dc000017 	ldw	r16,0(sp)
     5b4:	dec00304 	addi	sp,sp,12
     5b8:	f800283a 	ret

000005bc <PtCopy>:

void PtCopy(POINT *ptDes, POINT *ptSrc){
     5bc:	defffd04 	addi	sp,sp,-12
     5c0:	df000215 	stw	fp,8(sp)
     5c4:	df000204 	addi	fp,sp,8
     5c8:	e13ffe15 	stw	r4,-8(fp)
     5cc:	e17fff15 	stw	r5,-4(fp)
    ptDes->x = ptSrc->x;
     5d0:	e0bfff17 	ldw	r2,-4(fp)
     5d4:	10c00017 	ldw	r3,0(r2)
     5d8:	e0bffe17 	ldw	r2,-8(fp)
     5dc:	10c00015 	stw	r3,0(r2)
    ptDes->y = ptSrc->y;
     5e0:	e0bfff17 	ldw	r2,-4(fp)
     5e4:	10c00117 	ldw	r3,4(r2)
     5e8:	e0bffe17 	ldw	r2,-8(fp)
     5ec:	10c00115 	stw	r3,4(r2)
}
     5f0:	e037883a 	mov	sp,fp
     5f4:	df000017 	ldw	fp,0(sp)
     5f8:	dec00104 	addi	sp,sp,4
     5fc:	f800283a 	ret

00000600 <vid_clean_screen>:
#include "sys/alt_cache.h"
#include "system.h"


// richard add
void vid_clean_screen(alt_video_display* display, int color){
     600:	defffa04 	addi	sp,sp,-24
     604:	dfc00515 	stw	ra,20(sp)
     608:	df000415 	stw	fp,16(sp)
     60c:	df000404 	addi	fp,sp,16
     610:	e13ffe15 	stw	r4,-8(fp)
     614:	e17fff15 	stw	r5,-4(fp)
    vid_paint_block(0 , 0,display->width, display->height, color, display);
     618:	e0bffe17 	ldw	r2,-8(fp)
     61c:	11800517 	ldw	r6,20(r2)
     620:	e0bffe17 	ldw	r2,-8(fp)
     624:	11c00617 	ldw	r7,24(r2)
     628:	e0bfff17 	ldw	r2,-4(fp)
     62c:	d8800015 	stw	r2,0(sp)
     630:	e0bffe17 	ldw	r2,-8(fp)
     634:	d8800115 	stw	r2,4(sp)
     638:	0009883a 	mov	r4,zero
     63c:	000b883a 	mov	r5,zero
     640:	00012c00 	call	12c0 <vid_paint_block>
}
     644:	e037883a 	mov	sp,fp
     648:	dfc00117 	ldw	ra,4(sp)
     64c:	df000017 	ldw	fp,0(sp)
     650:	dec00204 	addi	sp,sp,8
     654:	f800283a 	ret

00000658 <vid_draw_line>:
*           vid_draw_horiz_line(), which is much faster than 
*           vid_draw_sloped_line.
*
******************************************************************/
__inline__ void vid_draw_line(int horiz_start, int vert_start, int horiz_end, int vert_end, int width, int color, alt_video_display* display)
{
     658:	defff704 	addi	sp,sp,-36
     65c:	dfc00815 	stw	ra,32(sp)
     660:	df000715 	stw	fp,28(sp)
     664:	df000704 	addi	fp,sp,28
     668:	e13ffc15 	stw	r4,-16(fp)
     66c:	e17ffd15 	stw	r5,-12(fp)
     670:	e1bffe15 	stw	r6,-8(fp)
     674:	e1ffff15 	stw	r7,-4(fp)
 
  if( vert_start == vert_end )
     678:	e0fffd17 	ldw	r3,-12(fp)
     67c:	e0bfff17 	ldw	r2,-4(fp)
     680:	18800f1e 	bne	r3,r2,6c0 <vid_draw_line+0x68>
//                         (unsigned short)horiz_end,  
//                         (unsigned short)vert_start,
//                         color,
//                         display->buffer_ptrs[display->buffer_being_written]->buffer);

    vid_draw_horiz_line( (unsigned short)horiz_start, 
     684:	e0bffc17 	ldw	r2,-16(fp)
     688:	113fffcc 	andi	r4,r2,65535
     68c:	2120001c 	xori	r4,r4,32768
     690:	21200004 	addi	r4,r4,-32768
     694:	e0bffe17 	ldw	r2,-8(fp)
     698:	117fffcc 	andi	r5,r2,65535
     69c:	2960001c 	xori	r5,r5,32768
     6a0:	29600004 	addi	r5,r5,-32768
     6a4:	e0bffd17 	ldw	r2,-12(fp)
     6a8:	11bfffcc 	andi	r6,r2,65535
     6ac:	e0800417 	ldw	r2,16(fp)
     6b0:	d8800015 	stw	r2,0(sp)
     6b4:	e1c00317 	ldw	r7,12(fp)
     6b8:	000154c0 	call	154c <vid_draw_horiz_line>
     6bc:	00001006 	br	700 <vid_draw_line+0xa8>
                         color,
                         display );
  }
  else
  {
    vid_draw_sloped_line( (unsigned short)horiz_start, 
     6c0:	e0bffc17 	ldw	r2,-16(fp)
     6c4:	113fffcc 	andi	r4,r2,65535
     6c8:	e0bffd17 	ldw	r2,-12(fp)
     6cc:	117fffcc 	andi	r5,r2,65535
     6d0:	e0bffe17 	ldw	r2,-8(fp)
     6d4:	11bfffcc 	andi	r6,r2,65535
     6d8:	e0bfff17 	ldw	r2,-4(fp)
     6dc:	11ffffcc 	andi	r7,r2,65535
     6e0:	e0800217 	ldw	r2,8(fp)
     6e4:	10bfffcc 	andi	r2,r2,65535
     6e8:	d8800015 	stw	r2,0(sp)
     6ec:	e0800317 	ldw	r2,12(fp)
     6f0:	d8800115 	stw	r2,4(sp)
     6f4:	e0800417 	ldw	r2,16(fp)
     6f8:	d8800215 	stw	r2,8(sp)
     6fc:	0001c600 	call	1c60 <vid_draw_sloped_line>
                          (unsigned short)vert_end, 
                          (unsigned short)width, 
                          color,
                          display );
  }
}
     700:	e037883a 	mov	sp,fp
     704:	dfc00117 	ldw	ra,4(sp)
     708:	df000017 	ldw	fp,0(sp)
     70c:	dec00204 	addi	sp,sp,8
     710:	f800283a 	ret

00000714 <vid_scroll_string_quit>:



void vid_scroll_string_quit(vid_text_scroll_struct* scroll)
{
     714:	defffd04 	addi	sp,sp,-12
     718:	dfc00215 	stw	ra,8(sp)
     71c:	df000115 	stw	fp,4(sp)
     720:	df000104 	addi	fp,sp,4
     724:	e13fff15 	stw	r4,-4(fp)
  free(scroll->string);
     728:	e0bfff17 	ldw	r2,-4(fp)
     72c:	11000517 	ldw	r4,20(r2)
     730:	000a7540 	call	a754 <free>
  free(scroll);
     734:	e13fff17 	ldw	r4,-4(fp)
     738:	000a7540 	call	a754 <free>
}
     73c:	e037883a 	mov	sp,fp
     740:	dfc00117 	ldw	ra,4(sp)
     744:	df000017 	ldw	fp,0(sp)
     748:	dec00204 	addi	sp,sp,8
     74c:	f800283a 	ret

00000750 <vid_scroll_string_init>:

vid_text_scroll_struct* vid_scroll_string_init(int hbegin, int vbegin, int hend, int f_color, int b_color, char* font, int ms_delay, char *string)
{
     750:	defff904 	addi	sp,sp,-28
     754:	dfc00615 	stw	ra,24(sp)
     758:	df000515 	stw	fp,20(sp)
     75c:	df000504 	addi	fp,sp,20
     760:	e13ffc15 	stw	r4,-16(fp)
     764:	e17ffd15 	stw	r5,-12(fp)
     768:	e1bffe15 	stw	r6,-8(fp)
     76c:	e1ffff15 	stw	r7,-4(fp)
  vid_text_scroll_struct* scroll;
  scroll = malloc(sizeof (vid_text_scroll_struct));
     770:	01000f04 	movi	r4,60
     774:	000a7680 	call	a768 <malloc>
     778:	e0bffb15 	stw	r2,-20(fp)
  
  scroll->hbegin = hbegin;
     77c:	e0fffb17 	ldw	r3,-20(fp)
     780:	e0bffc17 	ldw	r2,-16(fp)
     784:	18800015 	stw	r2,0(r3)
  scroll->vbegin = vbegin;
     788:	e0fffb17 	ldw	r3,-20(fp)
     78c:	e0bffd17 	ldw	r2,-12(fp)
     790:	18800115 	stw	r2,4(r3)
  scroll->hend = hend;
     794:	e0fffb17 	ldw	r3,-20(fp)
     798:	e0bffe17 	ldw	r2,-8(fp)
     79c:	18800215 	stw	r2,8(r3)
  scroll->f_color = f_color;
     7a0:	e0fffb17 	ldw	r3,-20(fp)
     7a4:	e0bfff17 	ldw	r2,-4(fp)
     7a8:	18800315 	stw	r2,12(r3)
  scroll->b_color = b_color;
     7ac:	e0fffb17 	ldw	r3,-20(fp)
     7b0:	e0800217 	ldw	r2,8(fp)
     7b4:	18800415 	stw	r2,16(r3)
  scroll->string = malloc(strlen(string)+2);
     7b8:	e1000517 	ldw	r4,20(fp)
     7bc:	000b3140 	call	b314 <strlen>
     7c0:	11000084 	addi	r4,r2,2
     7c4:	000a7680 	call	a768 <malloc>
     7c8:	1007883a 	mov	r3,r2
     7cc:	e0bffb17 	ldw	r2,-20(fp)
     7d0:	10c00515 	stw	r3,20(r2)
  strcpy(scroll->string, string);
     7d4:	e0bffb17 	ldw	r2,-20(fp)
     7d8:	11000517 	ldw	r4,20(r2)
     7dc:	e1400517 	ldw	r5,20(fp)
     7e0:	000b2880 	call	b288 <strcpy>
  scroll->font = font;
     7e4:	e0fffb17 	ldw	r3,-20(fp)
     7e8:	e0800317 	ldw	r2,12(fp)
     7ec:	18800615 	stw	r2,24(r3)
  scroll->ms_delay = ms_delay;
     7f0:	e0fffb17 	ldw	r3,-20(fp)
     7f4:	e0800417 	ldw	r2,16(fp)
     7f8:	18800715 	stw	r2,28(r3)
 * alt_nticks() returns the elapsed number of system clock ticks since reset.
 */

static ALT_INLINE alt_u32 ALT_ALWAYS_INLINE alt_nticks (void)
{
  return _alt_nticks;
     7fc:	00800234 	movhi	r2,8
     800:	10ae1f04 	addi	r2,r2,-18308
     804:	10800017 	ldw	r2,0(r2)
  scroll->ticks_at_last_move = alt_nticks();
     808:	1007883a 	mov	r3,r2
     80c:	e0bffb17 	ldw	r2,-20(fp)
     810:	10c00815 	stw	r3,32(r2)
  scroll->text_scroll_index = 0;
     814:	e0bffb17 	ldw	r2,-20(fp)
     818:	10000915 	stw	zero,36(r2)
  scroll->text_scroll_started = 0;
     81c:	e0bffb17 	ldw	r2,-20(fp)
     820:	10000a05 	stb	zero,40(r2)
  scroll->window_width = scroll->hend - scroll->hbegin;
     824:	e0bffb17 	ldw	r2,-20(fp)
     828:	10c00217 	ldw	r3,8(r2)
     82c:	e0bffb17 	ldw	r2,-20(fp)
     830:	10800017 	ldw	r2,0(r2)
     834:	1887c83a 	sub	r3,r3,r2
     838:	e0bffb17 	ldw	r2,-20(fp)
     83c:	10c00b15 	stw	r3,44(r2)
  scroll->length_of_string = strlen(string);
     840:	e1000517 	ldw	r4,20(fp)
     844:	000b3140 	call	b314 <strlen>
     848:	1007883a 	mov	r3,r2
     84c:	e0bffb17 	ldw	r2,-20(fp)
     850:	10c00c15 	stw	r3,48(r2)
  scroll->string_points = scroll->length_of_string * 8;
     854:	e0bffb17 	ldw	r2,-20(fp)
     858:	10800c17 	ldw	r2,48(r2)
     85c:	100690fa 	slli	r3,r2,3
     860:	e0bffb17 	ldw	r2,-20(fp)
     864:	10c00e15 	stw	r3,56(r2)
  scroll->scroll_points = (scroll->window_width + scroll->string_points);
     868:	e0bffb17 	ldw	r2,-20(fp)
     86c:	10c00b17 	ldw	r3,44(r2)
     870:	e0bffb17 	ldw	r2,-20(fp)
     874:	10800e17 	ldw	r2,56(r2)
     878:	1887883a 	add	r3,r3,r2
     87c:	e0bffb17 	ldw	r2,-20(fp)
     880:	10c00d15 	stw	r3,52(r2)
 
  return(scroll);
     884:	e0bffb17 	ldw	r2,-20(fp)
  
}
     888:	e037883a 	mov	sp,fp
     88c:	dfc00117 	ldw	ra,4(sp)
     890:	df000017 	ldw	fp,0(sp)
     894:	dec00204 	addi	sp,sp,8
     898:	f800283a 	ret

0000089c <vid_scroll_string>:


int vid_scroll_string(vid_text_scroll_struct* scroll, alt_video_display* display)
{
     89c:	deffeb04 	addi	sp,sp,-84
     8a0:	dfc01415 	stw	ra,80(sp)
     8a4:	df001315 	stw	fp,76(sp)
     8a8:	dc401215 	stw	r17,72(sp)
     8ac:	dc001115 	stw	r16,68(sp)
     8b0:	df001104 	addi	fp,sp,68
     8b4:	e13ffc15 	stw	r4,-16(fp)
     8b8:	e17ffd15 	stw	r5,-12(fp)

  int x_start, x_end, x_index, string_x_index, string_char_index, char_row, char_column;
  char character, column_mask;
  char* font_char_ptr;
  char pixels_to_move_by = 1;
     8bc:	00800044 	movi	r2,1
     8c0:	e0bff205 	stb	r2,-56(fp)
     8c4:	00800234 	movhi	r2,8
     8c8:	10ae1f04 	addi	r2,r2,-18308
     8cc:	10800017 	ldw	r2,0(r2)
     8d0:	1021883a 	mov	r16,r2

  // If it's time to move the scroll..
  if (alt_nticks() >= (scroll->ticks_at_last_move + ((alt_ticks_per_second() * (scroll->ms_delay)) / 1000))) {
     8d4:	e0bffc17 	ldw	r2,-16(fp)
     8d8:	10800817 	ldw	r2,32(r2)
     8dc:	1023883a 	mov	r17,r2
 * Obtain the system clock rate in ticks/s. 
 */

static ALT_INLINE alt_u32 ALT_ALWAYS_INLINE alt_ticks_per_second (void)
{
  return _alt_tick_rate;
     8e0:	00800234 	movhi	r2,8
     8e4:	10ae1e04 	addi	r2,r2,-18312
     8e8:	10800017 	ldw	r2,0(r2)
     8ec:	1009883a 	mov	r4,r2
     8f0:	e0bffc17 	ldw	r2,-16(fp)
     8f4:	10800717 	ldw	r2,28(r2)
     8f8:	100b883a 	mov	r5,r2
     8fc:	000a0540 	call	a054 <__mulsi3>
     900:	1009883a 	mov	r4,r2
     904:	0140fa04 	movi	r5,1000
     908:	000a0440 	call	a044 <__udivsi3>
     90c:	8885883a 	add	r2,r17,r2
     910:	8080cb36 	bltu	r16,r2,c40 <vid_scroll_string+0x3a4>
 * alt_nticks() returns the elapsed number of system clock ticks since reset.
 */

static ALT_INLINE alt_u32 ALT_ALWAYS_INLINE alt_nticks (void)
{
  return _alt_nticks;
     914:	00800234 	movhi	r2,8
     918:	10ae1f04 	addi	r2,r2,-18308
     91c:	10800017 	ldw	r2,0(r2)
    scroll->ticks_at_last_move = alt_nticks();
     920:	1007883a 	mov	r3,r2
     924:	e0bffc17 	ldw	r2,-16(fp)
     928:	10c00815 	stw	r3,32(r2)
    
    // Track where we are in the scroll.
    if(scroll->text_scroll_started == 0) {
     92c:	e0bffc17 	ldw	r2,-16(fp)
     930:	10800a03 	ldbu	r2,40(r2)
     934:	10803fcc 	andi	r2,r2,255
     938:	1080201c 	xori	r2,r2,128
     93c:	10bfe004 	addi	r2,r2,-128
     940:	1004c03a 	cmpne	r2,r2,zero
     944:	1000061e 	bne	r2,zero,960 <vid_scroll_string+0xc4>
      scroll->text_scroll_index = 0;
     948:	e0bffc17 	ldw	r2,-16(fp)
     94c:	10000915 	stw	zero,36(r2)
      scroll->text_scroll_started = 1;
     950:	e0fffc17 	ldw	r3,-16(fp)
     954:	00800044 	movi	r2,1
     958:	18800a05 	stb	r2,40(r3)
     95c:	00000e06 	br	998 <vid_scroll_string+0xfc>
    } else if(scroll->text_scroll_index >= scroll->scroll_points)  {
     960:	e0bffc17 	ldw	r2,-16(fp)
     964:	10c00917 	ldw	r3,36(r2)
     968:	e0bffc17 	ldw	r2,-16(fp)
     96c:	10800d17 	ldw	r2,52(r2)
     970:	18800316 	blt	r3,r2,980 <vid_scroll_string+0xe4>
      scroll->text_scroll_started = 0;
     974:	e0bffc17 	ldw	r2,-16(fp)
     978:	10000a05 	stb	zero,40(r2)
     97c:	00000606 	br	998 <vid_scroll_string+0xfc>
    } else {
      scroll->text_scroll_index += pixels_to_move_by;
     980:	e0bffc17 	ldw	r2,-16(fp)
     984:	10c00917 	ldw	r3,36(r2)
     988:	e0bff207 	ldb	r2,-56(fp)
     98c:	1887883a 	add	r3,r3,r2
     990:	e0bffc17 	ldw	r2,-16(fp)
     994:	10c00915 	stw	r3,36(r2)
    }
    
    //Find out where we start
    if (scroll->text_scroll_index < scroll->window_width) {
     998:	e0bffc17 	ldw	r2,-16(fp)
     99c:	10c00917 	ldw	r3,36(r2)
     9a0:	e0bffc17 	ldw	r2,-16(fp)
     9a4:	10800b17 	ldw	r2,44(r2)
     9a8:	18800a0e 	bge	r3,r2,9d4 <vid_scroll_string+0x138>
      x_start = scroll->hbegin + scroll->window_width - scroll->text_scroll_index;
     9ac:	e0bffc17 	ldw	r2,-16(fp)
     9b0:	10c00017 	ldw	r3,0(r2)
     9b4:	e0bffc17 	ldw	r2,-16(fp)
     9b8:	10800b17 	ldw	r2,44(r2)
     9bc:	1887883a 	add	r3,r3,r2
     9c0:	e0bffc17 	ldw	r2,-16(fp)
     9c4:	10800917 	ldw	r2,36(r2)
     9c8:	1885c83a 	sub	r2,r3,r2
     9cc:	e0bffb15 	stw	r2,-20(fp)
     9d0:	00000306 	br	9e0 <vid_scroll_string+0x144>
    } else {
      x_start = scroll->hbegin;
     9d4:	e0bffc17 	ldw	r2,-16(fp)
     9d8:	10800017 	ldw	r2,0(r2)
     9dc:	e0bffb15 	stw	r2,-20(fp)
    }
    //Find out where we end
    if (scroll->string_points > scroll->text_scroll_index) {
     9e0:	e0bffc17 	ldw	r2,-16(fp)
     9e4:	10c00e17 	ldw	r3,56(r2)
     9e8:	e0bffc17 	ldw	r2,-16(fp)
     9ec:	10800917 	ldw	r2,36(r2)
     9f0:	10c0040e 	bge	r2,r3,a04 <vid_scroll_string+0x168>
      x_end = scroll->hend;
     9f4:	e0bffc17 	ldw	r2,-16(fp)
     9f8:	10800217 	ldw	r2,8(r2)
     9fc:	e0bffa15 	stw	r2,-24(fp)
     a00:	00000906 	br	a28 <vid_scroll_string+0x18c>
    } else {
      x_end = (scroll->hend - scroll->text_scroll_index + scroll->string_points);
     a04:	e0bffc17 	ldw	r2,-16(fp)
     a08:	10c00217 	ldw	r3,8(r2)
     a0c:	e0bffc17 	ldw	r2,-16(fp)
     a10:	10800917 	ldw	r2,36(r2)
     a14:	1887c83a 	sub	r3,r3,r2
     a18:	e0bffc17 	ldw	r2,-16(fp)
     a1c:	10800e17 	ldw	r2,56(r2)
     a20:	1885883a 	add	r2,r3,r2
     a24:	e0bffa15 	stw	r2,-24(fp)
    }

    // Write the string segment a column (x) at a time
    for(x_index = x_start; x_index < x_end; x_index++) {
     a28:	e0bffb17 	ldw	r2,-20(fp)
     a2c:	e0bff915 	stw	r2,-28(fp)
     a30:	00007106 	br	bf8 <vid_scroll_string+0x35c>
      // Find the x index we're at within the string
      // If first part of string hasnt yet reached left side of scroll window
      if (scroll->text_scroll_index < scroll->window_width) {
     a34:	e0bffc17 	ldw	r2,-16(fp)
     a38:	10c00917 	ldw	r3,36(r2)
     a3c:	e0bffc17 	ldw	r2,-16(fp)
     a40:	10800b17 	ldw	r2,44(r2)
     a44:	1880050e 	bge	r3,r2,a5c <vid_scroll_string+0x1c0>
        string_x_index = (x_index - x_start);
     a48:	e0bff917 	ldw	r2,-28(fp)
     a4c:	e0fffb17 	ldw	r3,-20(fp)
     a50:	10c5c83a 	sub	r2,r2,r3
     a54:	e0bff815 	stw	r2,-32(fp)
     a58:	00000a06 	br	a84 <vid_scroll_string+0x1e8>
      } else {
        string_x_index = scroll->text_scroll_index - scroll->window_width + x_index - x_start;
     a5c:	e0bffc17 	ldw	r2,-16(fp)
     a60:	10c00917 	ldw	r3,36(r2)
     a64:	e0bffc17 	ldw	r2,-16(fp)
     a68:	10800b17 	ldw	r2,44(r2)
     a6c:	1887c83a 	sub	r3,r3,r2
     a70:	e0bff917 	ldw	r2,-28(fp)
     a74:	1887883a 	add	r3,r3,r2
     a78:	e0bffb17 	ldw	r2,-20(fp)
     a7c:	1885c83a 	sub	r2,r3,r2
     a80:	e0bff815 	stw	r2,-32(fp)
      }
      //Find the character we're supposed to be writing
      string_char_index = (string_x_index / 8);
     a84:	e0bff817 	ldw	r2,-32(fp)
     a88:	e0bffe15 	stw	r2,-8(fp)
     a8c:	e0fffe17 	ldw	r3,-8(fp)
     a90:	1804403a 	cmpge	r2,r3,zero
     a94:	1000031e 	bne	r2,zero,aa4 <vid_scroll_string+0x208>
     a98:	e0bffe17 	ldw	r2,-8(fp)
     a9c:	108001c4 	addi	r2,r2,7
     aa0:	e0bffe15 	stw	r2,-8(fp)
     aa4:	e0fffe17 	ldw	r3,-8(fp)
     aa8:	1805d0fa 	srai	r2,r3,3
     aac:	e0bff715 	stw	r2,-36(fp)
      character = scroll->string[string_char_index];
     ab0:	e0bffc17 	ldw	r2,-16(fp)
     ab4:	10c00517 	ldw	r3,20(r2)
     ab8:	e0bff717 	ldw	r2,-36(fp)
     abc:	1885883a 	add	r2,r3,r2
     ac0:	10800003 	ldbu	r2,0(r2)
     ac4:	e0bff445 	stb	r2,-47(fp)
      char_column = (string_x_index % 8);
     ac8:	e0fff817 	ldw	r3,-32(fp)
     acc:	00a00034 	movhi	r2,32768
     ad0:	108001c4 	addi	r2,r2,7
     ad4:	1886703a 	and	r3,r3,r2
     ad8:	e0ffff15 	stw	r3,-4(fp)
     adc:	e0ffff17 	ldw	r3,-4(fp)
     ae0:	1804403a 	cmpge	r2,r3,zero
     ae4:	10000a1e 	bne	r2,zero,b10 <vid_scroll_string+0x274>
     ae8:	e0bfff17 	ldw	r2,-4(fp)
     aec:	10bfffc4 	addi	r2,r2,-1
     af0:	e0bfff15 	stw	r2,-4(fp)
     af4:	00bffe04 	movi	r2,-8
     af8:	e0ffff17 	ldw	r3,-4(fp)
     afc:	1886b03a 	or	r3,r3,r2
     b00:	e0ffff15 	stw	r3,-4(fp)
     b04:	e0bfff17 	ldw	r2,-4(fp)
     b08:	10800044 	addi	r2,r2,1
     b0c:	e0bfff15 	stw	r2,-4(fp)
     b10:	e0ffff17 	ldw	r3,-4(fp)
     b14:	e0fff515 	stw	r3,-44(fp)
      column_mask = (((unsigned int)0x80) >> char_column);
     b18:	00c02004 	movi	r3,128
     b1c:	e0bff517 	ldw	r2,-44(fp)
     b20:	1884d83a 	srl	r2,r3,r2
     b24:	e0bff405 	stb	r2,-48(fp)
      font_char_ptr = (scroll->font + ((character - 0x20) * FONT_10PT_ROW));
     b28:	e0bffc17 	ldw	r2,-16(fp)
     b2c:	14000617 	ldw	r16,24(r2)
     b30:	e13ff447 	ldb	r4,-47(fp)
     b34:	014002c4 	movi	r5,11
     b38:	000a0540 	call	a054 <__mulsi3>
     b3c:	8085883a 	add	r2,r16,r2
     b40:	10bfa804 	addi	r2,r2,-352
     b44:	e0bff315 	stw	r2,-52(fp)
      //We have all the data now, so let's write a column
      for(char_row = 0; char_row < 11; char_row++) {
     b48:	e03ff615 	stw	zero,-40(fp)
     b4c:	00002406 	br	be0 <vid_scroll_string+0x344>
        // If the font table says this pixel is on, then set it to the foreground color
        if (*(font_char_ptr + char_row) & column_mask) {
     b50:	e0bff617 	ldw	r2,-40(fp)
     b54:	1007883a 	mov	r3,r2
     b58:	e0bff317 	ldw	r2,-52(fp)
     b5c:	1885883a 	add	r2,r3,r2
     b60:	10c00003 	ldbu	r3,0(r2)
     b64:	e0bff403 	ldbu	r2,-48(fp)
     b68:	1884703a 	and	r2,r3,r2
     b6c:	10803fcc 	andi	r2,r2,255
     b70:	1080201c 	xori	r2,r2,128
     b74:	10bfe004 	addi	r2,r2,-128
     b78:	1005003a 	cmpeq	r2,r2,zero
     b7c:	10000b1e 	bne	r2,zero,bac <vid_scroll_string+0x310>
          vid_set_pixel(x_index, scroll->vbegin + char_row, scroll->f_color, display); 
     b80:	e0bffc17 	ldw	r2,-16(fp)
     b84:	10c00117 	ldw	r3,4(r2)
     b88:	e0bff617 	ldw	r2,-40(fp)
     b8c:	188b883a 	add	r5,r3,r2
     b90:	e0bffc17 	ldw	r2,-16(fp)
     b94:	10800317 	ldw	r2,12(r2)
     b98:	100d883a 	mov	r6,r2
     b9c:	e13ff917 	ldw	r4,-28(fp)
     ba0:	e1fffd17 	ldw	r7,-12(fp)
     ba4:	00010b80 	call	10b8 <vid_set_pixel>
     ba8:	00000a06 	br	bd4 <vid_scroll_string+0x338>
        // Otherwise, set it to the background color.
        } else {
          vid_set_pixel(x_index, scroll->vbegin + char_row, scroll->b_color, display); //background color
     bac:	e0bffc17 	ldw	r2,-16(fp)
     bb0:	10c00117 	ldw	r3,4(r2)
     bb4:	e0bff617 	ldw	r2,-40(fp)
     bb8:	188b883a 	add	r5,r3,r2
     bbc:	e0bffc17 	ldw	r2,-16(fp)
     bc0:	10800417 	ldw	r2,16(r2)
     bc4:	100d883a 	mov	r6,r2
     bc8:	e13ff917 	ldw	r4,-28(fp)
     bcc:	e1fffd17 	ldw	r7,-12(fp)
     bd0:	00010b80 	call	10b8 <vid_set_pixel>
      character = scroll->string[string_char_index];
      char_column = (string_x_index % 8);
      column_mask = (((unsigned int)0x80) >> char_column);
      font_char_ptr = (scroll->font + ((character - 0x20) * FONT_10PT_ROW));
      //We have all the data now, so let's write a column
      for(char_row = 0; char_row < 11; char_row++) {
     bd4:	e0bff617 	ldw	r2,-40(fp)
     bd8:	10800044 	addi	r2,r2,1
     bdc:	e0bff615 	stw	r2,-40(fp)
     be0:	e0bff617 	ldw	r2,-40(fp)
     be4:	108002d0 	cmplti	r2,r2,11
     be8:	103fd91e 	bne	r2,zero,b50 <vid_scroll_string+0x2b4>
    } else {
      x_end = (scroll->hend - scroll->text_scroll_index + scroll->string_points);
    }

    // Write the string segment a column (x) at a time
    for(x_index = x_start; x_index < x_end; x_index++) {
     bec:	e0bff917 	ldw	r2,-28(fp)
     bf0:	10800044 	addi	r2,r2,1
     bf4:	e0bff915 	stw	r2,-28(fp)
     bf8:	e0fff917 	ldw	r3,-28(fp)
     bfc:	e0bffa17 	ldw	r2,-24(fp)
     c00:	18bf8c16 	blt	r3,r2,a34 <vid_scroll_string+0x198>
          vid_set_pixel(x_index, scroll->vbegin + char_row, scroll->b_color, display); //background color
        }
      }
    }
    // Erase the leftover column (x) of the last string we wrote.
    vid_draw_line(x_end, scroll->vbegin, x_end, scroll->vbegin + 10, 1, scroll->b_color, display);
     c04:	e0bffc17 	ldw	r2,-16(fp)
     c08:	11400117 	ldw	r5,4(r2)
     c0c:	e0bffc17 	ldw	r2,-16(fp)
     c10:	10800117 	ldw	r2,4(r2)
     c14:	11c00284 	addi	r7,r2,10
     c18:	e0bffc17 	ldw	r2,-16(fp)
     c1c:	10c00417 	ldw	r3,16(r2)
     c20:	00800044 	movi	r2,1
     c24:	d8800015 	stw	r2,0(sp)
     c28:	d8c00115 	stw	r3,4(sp)
     c2c:	e0bffd17 	ldw	r2,-12(fp)
     c30:	d8800215 	stw	r2,8(sp)
     c34:	e13ffa17 	ldw	r4,-24(fp)
     c38:	e1bffa17 	ldw	r6,-24(fp)
     c3c:	00006580 	call	658 <vid_draw_line>
    // Log what time we moved the scroll.
  }
  return(0);
     c40:	0005883a 	mov	r2,zero
}
     c44:	e037883a 	mov	sp,fp
     c48:	dfc00317 	ldw	ra,12(sp)
     c4c:	df000217 	ldw	fp,8(sp)
     c50:	dc400117 	ldw	r17,4(sp)
     c54:	dc000017 	ldw	r16,0(sp)
     c58:	dec00404 	addi	sp,sp,16
     c5c:	f800283a 	ret

00000c60 <vid_move_block>:
*           the backfill_color parameter.
*
******************************************************************/

int vid_move_block(int xbegin, int ybegin, int xend, int yend, int x_distance, int y_distance, int backfill_color, alt_video_display* display)
{
     c60:	defff504 	addi	sp,sp,-44
     c64:	dfc00a15 	stw	ra,40(sp)
     c68:	df000915 	stw	fp,36(sp)
     c6c:	df000904 	addi	fp,sp,36
     c70:	e13ffc15 	stw	r4,-16(fp)
     c74:	e17ffd15 	stw	r5,-12(fp)
     c78:	e1bffe15 	stw	r6,-8(fp)
     c7c:	e1ffff15 	stw	r7,-4(fp)
  int read_x, read_y, write_x, write_y;
  short temp_pixel;
  
  if(x_distance <= 0 && y_distance <= 0) {  
     c80:	e0800217 	ldw	r2,8(fp)
     c84:	10800048 	cmpgei	r2,r2,1
     c88:	1000361e 	bne	r2,zero,d64 <vid_move_block+0x104>
     c8c:	e0800317 	ldw	r2,12(fp)
     c90:	10800048 	cmpgei	r2,r2,1
     c94:	1000331e 	bne	r2,zero,d64 <vid_move_block+0x104>
    //Move by rows because they are contiguous in memory (could help speed if in SDRAM)
    for (read_y = ybegin; read_y < yend; read_y++) {
     c98:	e0bffd17 	ldw	r2,-12(fp)
     c9c:	e0bffa15 	stw	r2,-24(fp)
     ca0:	00002d06 	br	d58 <vid_move_block+0xf8>
      write_y = read_y + y_distance;
     ca4:	e0fffa17 	ldw	r3,-24(fp)
     ca8:	e0800317 	ldw	r2,12(fp)
     cac:	1885883a 	add	r2,r3,r2
     cb0:	e0bff815 	stw	r2,-32(fp)
      for(read_x = xbegin; read_x < xend; read_x++) {
     cb4:	e0bffc17 	ldw	r2,-16(fp)
     cb8:	e0bffb15 	stw	r2,-20(fp)
     cbc:	00002006 	br	d40 <vid_move_block+0xe0>
        write_x = read_x + x_distance;
     cc0:	e0fffb17 	ldw	r3,-20(fp)
     cc4:	e0800217 	ldw	r2,8(fp)
     cc8:	1885883a 	add	r2,r3,r2
     ccc:	e0bff915 	stw	r2,-28(fp)
        temp_pixel = vid_get_pixel(read_x, read_y, display);
     cd0:	e13ffb17 	ldw	r4,-20(fp)
     cd4:	e17ffa17 	ldw	r5,-24(fp)
     cd8:	e1800517 	ldw	r6,20(fp)
     cdc:	00012400 	call	1240 <vid_get_pixel>
     ce0:	e0bff70d 	sth	r2,-36(fp)
        vid_set_pixel(write_x, write_y, temp_pixel, display);
     ce4:	e1bff70f 	ldh	r6,-36(fp)
     ce8:	e13ff917 	ldw	r4,-28(fp)
     cec:	e17ff817 	ldw	r5,-32(fp)
     cf0:	e1c00517 	ldw	r7,20(fp)
     cf4:	00010b80 	call	10b8 <vid_set_pixel>
        if(read_x >= xend + x_distance || read_y >= yend + y_distance) 
     cf8:	e0fffe17 	ldw	r3,-8(fp)
     cfc:	e0800217 	ldw	r2,8(fp)
     d00:	1887883a 	add	r3,r3,r2
     d04:	e0bffb17 	ldw	r2,-20(fp)
     d08:	10c0050e 	bge	r2,r3,d20 <vid_move_block+0xc0>
     d0c:	e0ffff17 	ldw	r3,-4(fp)
     d10:	e0800317 	ldw	r2,12(fp)
     d14:	1887883a 	add	r3,r3,r2
     d18:	e0bffa17 	ldw	r2,-24(fp)
     d1c:	10c00516 	blt	r2,r3,d34 <vid_move_block+0xd4>
        {
	        vid_set_pixel(read_x, read_y, backfill_color, display);
     d20:	e1800417 	ldw	r6,16(fp)
     d24:	e13ffb17 	ldw	r4,-20(fp)
     d28:	e17ffa17 	ldw	r5,-24(fp)
     d2c:	e1c00517 	ldw	r7,20(fp)
     d30:	00010b80 	call	10b8 <vid_set_pixel>
  
  if(x_distance <= 0 && y_distance <= 0) {  
    //Move by rows because they are contiguous in memory (could help speed if in SDRAM)
    for (read_y = ybegin; read_y < yend; read_y++) {
      write_y = read_y + y_distance;
      for(read_x = xbegin; read_x < xend; read_x++) {
     d34:	e0bffb17 	ldw	r2,-20(fp)
     d38:	10800044 	addi	r2,r2,1
     d3c:	e0bffb15 	stw	r2,-20(fp)
     d40:	e0fffb17 	ldw	r3,-20(fp)
     d44:	e0bffe17 	ldw	r2,-8(fp)
     d48:	18bfdd16 	blt	r3,r2,cc0 <vid_move_block+0x60>
  int read_x, read_y, write_x, write_y;
  short temp_pixel;
  
  if(x_distance <= 0 && y_distance <= 0) {  
    //Move by rows because they are contiguous in memory (could help speed if in SDRAM)
    for (read_y = ybegin; read_y < yend; read_y++) {
     d4c:	e0bffa17 	ldw	r2,-24(fp)
     d50:	10800044 	addi	r2,r2,1
     d54:	e0bffa15 	stw	r2,-24(fp)
     d58:	e0fffa17 	ldw	r3,-24(fp)
     d5c:	e0bfff17 	ldw	r2,-4(fp)
     d60:	18bfd016 	blt	r3,r2,ca4 <vid_move_block+0x44>
	        vid_set_pixel(read_x, read_y, backfill_color, display);
        }
      }
    }
  }
  return (0);
     d64:	0005883a 	mov	r2,zero
}
     d68:	e037883a 	mov	sp,fp
     d6c:	dfc00117 	ldw	ra,4(sp)
     d70:	df000017 	ldw	fp,0(sp)
     d74:	dec00204 	addi	sp,sp,8
     d78:	f800283a 	ret

00000d7c <vid_print_string>:
*           using the specified font and color.
*           Calls vid_print_char
*
******************************************************************/
int vid_print_string(int horiz_offset, int vert_offset, int color, char *font, alt_video_display* display, char string[])
{
     d7c:	defff604 	addi	sp,sp,-40
     d80:	dfc00915 	stw	ra,36(sp)
     d84:	df000815 	stw	fp,32(sp)
     d88:	df000804 	addi	fp,sp,32
     d8c:	e13ffc15 	stw	r4,-16(fp)
     d90:	e17ffd15 	stw	r5,-12(fp)
     d94:	e1bffe15 	stw	r6,-8(fp)
     d98:	e1ffff15 	stw	r7,-4(fp)
  int i = 0;
     d9c:	e03ffb15 	stw	zero,-20(fp)
  int original_horiz_offset;

  original_horiz_offset = horiz_offset;
     da0:	e0bffc17 	ldw	r2,-16(fp)
     da4:	e0bffa15 	stw	r2,-24(fp)

  // Print until we hit the '\0' char.
  while (string[i]) {
     da8:	00002906 	br	e50 <vid_print_string+0xd4>
    //Handle newline char here.
    if (string[i] == '\n') {
     dac:	e0bffb17 	ldw	r2,-20(fp)
     db0:	1007883a 	mov	r3,r2
     db4:	e0800317 	ldw	r2,12(fp)
     db8:	1885883a 	add	r2,r3,r2
     dbc:	10800003 	ldbu	r2,0(r2)
     dc0:	10803fcc 	andi	r2,r2,255
     dc4:	1080201c 	xori	r2,r2,128
     dc8:	10bfe004 	addi	r2,r2,-128
     dcc:	10800298 	cmpnei	r2,r2,10
     dd0:	1000091e 	bne	r2,zero,df8 <vid_print_string+0x7c>
      horiz_offset = original_horiz_offset;
     dd4:	e0bffa17 	ldw	r2,-24(fp)
     dd8:	e0bffc15 	stw	r2,-16(fp)
      vert_offset += 12;
     ddc:	e0bffd17 	ldw	r2,-12(fp)
     de0:	10800304 	addi	r2,r2,12
     de4:	e0bffd15 	stw	r2,-12(fp)
      i++;
     de8:	e0bffb17 	ldw	r2,-20(fp)
     dec:	10800044 	addi	r2,r2,1
     df0:	e0bffb15 	stw	r2,-20(fp)
      continue;
     df4:	00001606 	br	e50 <vid_print_string+0xd4>
    }
    // Lay down that character and increment our offsets.
    vid_print_char (horiz_offset, vert_offset, color, string[i], font, display);
     df8:	e0bffb17 	ldw	r2,-20(fp)
     dfc:	1007883a 	mov	r3,r2
     e00:	e0800317 	ldw	r2,12(fp)
     e04:	1885883a 	add	r2,r3,r2
     e08:	10800003 	ldbu	r2,0(r2)
     e0c:	11c03fcc 	andi	r7,r2,255
     e10:	39c0201c 	xori	r7,r7,128
     e14:	39ffe004 	addi	r7,r7,-128
     e18:	e0bfff17 	ldw	r2,-4(fp)
     e1c:	d8800015 	stw	r2,0(sp)
     e20:	e0800217 	ldw	r2,8(fp)
     e24:	d8800115 	stw	r2,4(sp)
     e28:	e13ffc17 	ldw	r4,-16(fp)
     e2c:	e17ffd17 	ldw	r5,-12(fp)
     e30:	e1bffe17 	ldw	r6,-8(fp)
     e34:	0000fcc0 	call	fcc <vid_print_char>
    i++;
     e38:	e0bffb17 	ldw	r2,-20(fp)
     e3c:	10800044 	addi	r2,r2,1
     e40:	e0bffb15 	stw	r2,-20(fp)
    horiz_offset += 8;
     e44:	e0bffc17 	ldw	r2,-16(fp)
     e48:	10800204 	addi	r2,r2,8
     e4c:	e0bffc15 	stw	r2,-16(fp)
  int original_horiz_offset;

  original_horiz_offset = horiz_offset;

  // Print until we hit the '\0' char.
  while (string[i]) {
     e50:	e0bffb17 	ldw	r2,-20(fp)
     e54:	1007883a 	mov	r3,r2
     e58:	e0800317 	ldw	r2,12(fp)
     e5c:	1885883a 	add	r2,r3,r2
     e60:	10800003 	ldbu	r2,0(r2)
     e64:	10803fcc 	andi	r2,r2,255
     e68:	1080201c 	xori	r2,r2,128
     e6c:	10bfe004 	addi	r2,r2,-128
     e70:	1004c03a 	cmpne	r2,r2,zero
     e74:	103fcd1e 	bne	r2,zero,dac <vid_print_string+0x30>
    // Lay down that character and increment our offsets.
    vid_print_char (horiz_offset, vert_offset, color, string[i], font, display);
    i++;
    horiz_offset += 8;
  }
  return (0);
     e78:	0005883a 	mov	r2,zero
}
     e7c:	e037883a 	mov	sp,fp
     e80:	dfc00117 	ldw	ra,4(sp)
     e84:	df000017 	ldw	fp,0(sp)
     e88:	dec00204 	addi	sp,sp,8
     e8c:	f800283a 	ret

00000e90 <vid_draw_box>:
*  points.  The fill parameter tells the function whether or not
*  to fill in the box.  1 = fill, 0 = do not fill.
*
******************************************************************/
int vid_draw_box (int horiz_start, int vert_start, int horiz_end, int vert_end, int color, int fill, alt_video_display* display)
{
     e90:	defff704 	addi	sp,sp,-36
     e94:	dfc00815 	stw	ra,32(sp)
     e98:	df000715 	stw	fp,28(sp)
     e9c:	df000704 	addi	fp,sp,28
     ea0:	e13ffc15 	stw	r4,-16(fp)
     ea4:	e17ffd15 	stw	r5,-12(fp)
     ea8:	e1bffe15 	stw	r6,-8(fp)
     eac:	e1ffff15 	stw	r7,-4(fp)

  // If we want to fill in our box
  if (fill) {
     eb0:	e0800317 	ldw	r2,12(fp)
     eb4:	1005003a 	cmpeq	r2,r2,zero
     eb8:	10000a1e 	bne	r2,zero,ee4 <vid_draw_box+0x54>
     vid_paint_block (horiz_start, vert_start, horiz_end, vert_end, color, display);
     ebc:	e0800217 	ldw	r2,8(fp)
     ec0:	d8800015 	stw	r2,0(sp)
     ec4:	e0800417 	ldw	r2,16(fp)
     ec8:	d8800115 	stw	r2,4(sp)
     ecc:	e13ffc17 	ldw	r4,-16(fp)
     ed0:	e17ffd17 	ldw	r5,-12(fp)
     ed4:	e1bffe17 	ldw	r6,-8(fp)
     ed8:	e1ffff17 	ldw	r7,-4(fp)
     edc:	00012c00 	call	12c0 <vid_paint_block>
     ee0:	00003406 	br	fb4 <vid_draw_box+0x124>
  // If we're not filling in the box, just draw four lines.
  } else {
    vid_draw_line(horiz_start, vert_start, horiz_start, vert_end-1, 1, color, display);
     ee4:	e0bfff17 	ldw	r2,-4(fp)
     ee8:	11ffffc4 	addi	r7,r2,-1
     eec:	00800044 	movi	r2,1
     ef0:	d8800015 	stw	r2,0(sp)
     ef4:	e0800217 	ldw	r2,8(fp)
     ef8:	d8800115 	stw	r2,4(sp)
     efc:	e0800417 	ldw	r2,16(fp)
     f00:	d8800215 	stw	r2,8(sp)
     f04:	e13ffc17 	ldw	r4,-16(fp)
     f08:	e17ffd17 	ldw	r5,-12(fp)
     f0c:	e1bffc17 	ldw	r6,-16(fp)
     f10:	00006580 	call	658 <vid_draw_line>
    vid_draw_line(horiz_end-1, vert_start, horiz_end-1, vert_end-1, 1, color, display);
     f14:	e0bffe17 	ldw	r2,-8(fp)
     f18:	113fffc4 	addi	r4,r2,-1
     f1c:	e0bffe17 	ldw	r2,-8(fp)
     f20:	11bfffc4 	addi	r6,r2,-1
     f24:	e0bfff17 	ldw	r2,-4(fp)
     f28:	11ffffc4 	addi	r7,r2,-1
     f2c:	00800044 	movi	r2,1
     f30:	d8800015 	stw	r2,0(sp)
     f34:	e0800217 	ldw	r2,8(fp)
     f38:	d8800115 	stw	r2,4(sp)
     f3c:	e0800417 	ldw	r2,16(fp)
     f40:	d8800215 	stw	r2,8(sp)
     f44:	e17ffd17 	ldw	r5,-12(fp)
     f48:	00006580 	call	658 <vid_draw_line>
    vid_draw_line(horiz_start, vert_start, horiz_end-1, vert_start, 1, color, display);
     f4c:	e0bffe17 	ldw	r2,-8(fp)
     f50:	11bfffc4 	addi	r6,r2,-1
     f54:	00800044 	movi	r2,1
     f58:	d8800015 	stw	r2,0(sp)
     f5c:	e0800217 	ldw	r2,8(fp)
     f60:	d8800115 	stw	r2,4(sp)
     f64:	e0800417 	ldw	r2,16(fp)
     f68:	d8800215 	stw	r2,8(sp)
     f6c:	e13ffc17 	ldw	r4,-16(fp)
     f70:	e17ffd17 	ldw	r5,-12(fp)
     f74:	e1fffd17 	ldw	r7,-12(fp)
     f78:	00006580 	call	658 <vid_draw_line>
    vid_draw_line(horiz_start, vert_end-1, horiz_end-1, vert_end-1, 1, color, display);
     f7c:	e0bfff17 	ldw	r2,-4(fp)
     f80:	117fffc4 	addi	r5,r2,-1
     f84:	e0bffe17 	ldw	r2,-8(fp)
     f88:	11bfffc4 	addi	r6,r2,-1
     f8c:	e0bfff17 	ldw	r2,-4(fp)
     f90:	11ffffc4 	addi	r7,r2,-1
     f94:	00800044 	movi	r2,1
     f98:	d8800015 	stw	r2,0(sp)
     f9c:	e0800217 	ldw	r2,8(fp)
     fa0:	d8800115 	stw	r2,4(sp)
     fa4:	e0800417 	ldw	r2,16(fp)
     fa8:	d8800215 	stw	r2,8(sp)
     fac:	e13ffc17 	ldw	r4,-16(fp)
     fb0:	00006580 	call	658 <vid_draw_line>
  }

  return (0);
     fb4:	0005883a 	mov	r2,zero
}
     fb8:	e037883a 	mov	sp,fp
     fbc:	dfc00117 	ldw	ra,4(sp)
     fc0:	df000017 	ldw	fp,0(sp)
     fc4:	dec00204 	addi	sp,sp,8
     fc8:	f800283a 	ret

00000fcc <vid_print_char>:
*           screen using the specified font and color.
*
******************************************************************/

int vid_print_char (int horiz_offset, int vert_offset, int color, char character, char *font, alt_video_display* display)
{
     fcc:	defff704 	addi	sp,sp,-36
     fd0:	dfc00815 	stw	ra,32(sp)
     fd4:	df000715 	stw	fp,28(sp)
     fd8:	df000704 	addi	fp,sp,28
     fdc:	e13ffc15 	stw	r4,-16(fp)
     fe0:	e17ffd15 	stw	r5,-12(fp)
     fe4:	e1bffe15 	stw	r6,-8(fp)
     fe8:	e1ffff05 	stb	r7,-4(fp)
  int i, j;
  
  char temp_char, char_row;

  // Convert the ASCII value to an array offset
  temp_char = (character - 0x20);
     fec:	e0bfff03 	ldbu	r2,-4(fp)
     ff0:	10bff804 	addi	r2,r2,-32
     ff4:	e0bff945 	stb	r2,-27(fp)

  //Each character is 8 pixels wide and 11 tall.
  for(i = 0; i < 11; i++) {
     ff8:	e03ffb15 	stw	zero,-20(fp)
     ffc:	00002506 	br	1094 <vid_print_char+0xc8>
      char_row = *(font + (temp_char * FONT_10PT_ROW) + i);
    1000:	e13ff947 	ldb	r4,-27(fp)
    1004:	014002c4 	movi	r5,11
    1008:	000a0540 	call	a054 <__mulsi3>
    100c:	1007883a 	mov	r3,r2
    1010:	e0800217 	ldw	r2,8(fp)
    1014:	1887883a 	add	r3,r3,r2
    1018:	e0bffb17 	ldw	r2,-20(fp)
    101c:	1885883a 	add	r2,r3,r2
    1020:	10800003 	ldbu	r2,0(r2)
    1024:	e0bff905 	stb	r2,-28(fp)
    for (j = 0; j < 8; j++) {
    1028:	e03ffa15 	stw	zero,-24(fp)
    102c:	00001306 	br	107c <vid_print_char+0xb0>
      //If the font table says the pixel in this location is on for this character, then set it.
      if (char_row & (((unsigned char)0x80) >> j)) {
    1030:	e13ff907 	ldb	r4,-28(fp)
    1034:	00c02004 	movi	r3,128
    1038:	e0bffa17 	ldw	r2,-24(fp)
    103c:	1885d83a 	sra	r2,r3,r2
    1040:	2084703a 	and	r2,r4,r2
    1044:	1005003a 	cmpeq	r2,r2,zero
    1048:	1000091e 	bne	r2,zero,1070 <vid_print_char+0xa4>
        vid_set_pixel((horiz_offset + j), (vert_offset + i), color, display); // plot the pixel
    104c:	e0fffc17 	ldw	r3,-16(fp)
    1050:	e0bffa17 	ldw	r2,-24(fp)
    1054:	1889883a 	add	r4,r3,r2
    1058:	e0fffd17 	ldw	r3,-12(fp)
    105c:	e0bffb17 	ldw	r2,-20(fp)
    1060:	188b883a 	add	r5,r3,r2
    1064:	e1bffe17 	ldw	r6,-8(fp)
    1068:	e1c00317 	ldw	r7,12(fp)
    106c:	00010b80 	call	10b8 <vid_set_pixel>
  temp_char = (character - 0x20);

  //Each character is 8 pixels wide and 11 tall.
  for(i = 0; i < 11; i++) {
      char_row = *(font + (temp_char * FONT_10PT_ROW) + i);
    for (j = 0; j < 8; j++) {
    1070:	e0bffa17 	ldw	r2,-24(fp)
    1074:	10800044 	addi	r2,r2,1
    1078:	e0bffa15 	stw	r2,-24(fp)
    107c:	e0bffa17 	ldw	r2,-24(fp)
    1080:	10800210 	cmplti	r2,r2,8
    1084:	103fea1e 	bne	r2,zero,1030 <vid_print_char+0x64>

  // Convert the ASCII value to an array offset
  temp_char = (character - 0x20);

  //Each character is 8 pixels wide and 11 tall.
  for(i = 0; i < 11; i++) {
    1088:	e0bffb17 	ldw	r2,-20(fp)
    108c:	10800044 	addi	r2,r2,1
    1090:	e0bffb15 	stw	r2,-20(fp)
    1094:	e0bffb17 	ldw	r2,-20(fp)
    1098:	108002d0 	cmplti	r2,r2,11
    109c:	103fd81e 	bne	r2,zero,1000 <vid_print_char+0x34>
      if (char_row & (((unsigned char)0x80) >> j)) {
        vid_set_pixel((horiz_offset + j), (vert_offset + i), color, display); // plot the pixel
      }
    }
  }
  return(0);
    10a0:	0005883a 	mov	r2,zero
}
    10a4:	e037883a 	mov	sp,fp
    10a8:	dfc00117 	ldw	ra,4(sp)
    10ac:	df000017 	ldw	fp,0(sp)
    10b0:	dec00204 	addi	sp,sp,8
    10b4:	f800283a 	ret

000010b8 <vid_set_pixel>:
*           efficient when painting large areas of the screen.
*
******************************************************************/

void vid_set_pixel(int horiz, int vert, unsigned int color, alt_video_display* display)
{
    10b8:	defff804 	addi	sp,sp,-32
    10bc:	dfc00715 	stw	ra,28(sp)
    10c0:	df000615 	stw	fp,24(sp)
    10c4:	dc000515 	stw	r16,20(sp)
    10c8:	df000504 	addi	fp,sp,20
    10cc:	e13ffc15 	stw	r4,-16(fp)
    10d0:	e17ffd15 	stw	r5,-12(fp)
    10d4:	e1bffe15 	stw	r6,-8(fp)
    10d8:	e1ffff15 	stw	r7,-4(fp)
  int addr;
  
  if( display->color_depth == 32 )
    10dc:	e0bfff17 	ldw	r2,-4(fp)
    10e0:	10800417 	ldw	r2,16(r2)
    10e4:	10800818 	cmpnei	r2,r2,32
    10e8:	1000121e 	bne	r2,zero,1134 <vid_set_pixel+0x7c>
  {
//  	addr = ( ( (int)(display->buffer_ptrs[display->buffer_being_written]) )+ (vert * (display->width * 4)) + horiz * 4);
    addr = ( ( (int)(VIPFR_GetDrawFrame(display)) )+ (vert * (display->width * 4)) + horiz * 4);
    10ec:	e13fff17 	ldw	r4,-4(fp)
    10f0:	00089b00 	call	89b0 <VIPFR_GetDrawFrame>
    10f4:	1021883a 	mov	r16,r2
    10f8:	e0bfff17 	ldw	r2,-4(fp)
    10fc:	11000517 	ldw	r4,20(r2)
    1100:	e17ffd17 	ldw	r5,-12(fp)
    1104:	000a0540 	call	a054 <__mulsi3>
    1108:	1007883a 	mov	r3,r2
    110c:	e0bffc17 	ldw	r2,-16(fp)
    1110:	1885883a 	add	r2,r3,r2
    1114:	1085883a 	add	r2,r2,r2
    1118:	1085883a 	add	r2,r2,r2
    111c:	8085883a 	add	r2,r16,r2
    1120:	e0bffb15 	stw	r2,-20(fp)
		IOWR_32DIRECT( addr, 0, (unsigned int)(color));
    1124:	e0bffb17 	ldw	r2,-20(fp)
    1128:	e0fffe17 	ldw	r3,-8(fp)
    112c:	10c00035 	stwio	r3,0(r2)
    1130:	00003d06 	br	1228 <vid_set_pixel+0x170>
  }
  
  else if( display->color_depth == 24 )
    1134:	e0bfff17 	ldw	r2,-4(fp)
    1138:	10800417 	ldw	r2,16(r2)
    113c:	10800618 	cmpnei	r2,r2,24
    1140:	1000251e 	bne	r2,zero,11d8 <vid_set_pixel+0x120>
  {
  	addr = ( ( (int)(VIPFR_GetDrawFrame(display)) )+ (vert * (display->width * 3)) + horiz * 3);
    1144:	e13fff17 	ldw	r4,-4(fp)
    1148:	00089b00 	call	89b0 <VIPFR_GetDrawFrame>
    114c:	1021883a 	mov	r16,r2
    1150:	e0bfff17 	ldw	r2,-4(fp)
    1154:	11000517 	ldw	r4,20(r2)
    1158:	e17ffd17 	ldw	r5,-12(fp)
    115c:	000a0540 	call	a054 <__mulsi3>
    1160:	1007883a 	mov	r3,r2
    1164:	e0bffc17 	ldw	r2,-16(fp)
    1168:	1887883a 	add	r3,r3,r2
    116c:	1805883a 	mov	r2,r3
    1170:	1085883a 	add	r2,r2,r2
    1174:	10c5883a 	add	r2,r2,r3
    1178:	8085883a 	add	r2,r16,r2
    117c:	e0bffb15 	stw	r2,-20(fp)
		IOWR_8DIRECT( addr, 0, (unsigned char)(color));
    1180:	e13ffb17 	ldw	r4,-20(fp)
    1184:	e0bffe17 	ldw	r2,-8(fp)
    1188:	10c03fcc 	andi	r3,r2,255
    118c:	2005883a 	mov	r2,r4
    1190:	10c00025 	stbio	r3,0(r2)
 		IOWR_8DIRECT( addr+1, 0, (unsigned char)(color >> 8));
    1194:	e0bffb17 	ldw	r2,-20(fp)
    1198:	10800044 	addi	r2,r2,1
    119c:	1009883a 	mov	r4,r2
    11a0:	e0bffe17 	ldw	r2,-8(fp)
    11a4:	1004d23a 	srli	r2,r2,8
    11a8:	10c03fcc 	andi	r3,r2,255
    11ac:	2005883a 	mov	r2,r4
    11b0:	10c00025 	stbio	r3,0(r2)
    IOWR_8DIRECT( addr+2, 0, (unsigned char)(color >> 16));
    11b4:	e0bffb17 	ldw	r2,-20(fp)
    11b8:	10800084 	addi	r2,r2,2
    11bc:	1009883a 	mov	r4,r2
    11c0:	e0bffe17 	ldw	r2,-8(fp)
    11c4:	1004d43a 	srli	r2,r2,16
    11c8:	10c03fcc 	andi	r3,r2,255
    11cc:	2005883a 	mov	r2,r4
    11d0:	10c00025 	stbio	r3,0(r2)
    11d4:	00001406 	br	1228 <vid_set_pixel+0x170>
  }
  
  else if( display->color_depth == 16 )
    11d8:	e0bfff17 	ldw	r2,-4(fp)
    11dc:	10800417 	ldw	r2,16(r2)
    11e0:	10800418 	cmpnei	r2,r2,16
    11e4:	1000101e 	bne	r2,zero,1228 <vid_set_pixel+0x170>
  {
  	addr = ( ( (int)(VIPFR_GetDrawFrame(display)) )+ (vert * (display->width * 2)) + horiz * 2);
    11e8:	e13fff17 	ldw	r4,-4(fp)
    11ec:	00089b00 	call	89b0 <VIPFR_GetDrawFrame>
    11f0:	1021883a 	mov	r16,r2
    11f4:	e0bfff17 	ldw	r2,-4(fp)
    11f8:	11000517 	ldw	r4,20(r2)
    11fc:	e17ffd17 	ldw	r5,-12(fp)
    1200:	000a0540 	call	a054 <__mulsi3>
    1204:	1007883a 	mov	r3,r2
    1208:	e0bffc17 	ldw	r2,-16(fp)
    120c:	1885883a 	add	r2,r3,r2
    1210:	1085883a 	add	r2,r2,r2
    1214:	8085883a 	add	r2,r16,r2
    1218:	e0bffb15 	stw	r2,-20(fp)
  	IOWR_16DIRECT( addr, 0, (int)(color));
    121c:	e0bffb17 	ldw	r2,-20(fp)
    1220:	e0fffe17 	ldw	r3,-8(fp)
    1224:	10c0002d 	sthio	r3,0(r2)
	}


}
    1228:	e037883a 	mov	sp,fp
    122c:	dfc00217 	ldw	ra,8(sp)
    1230:	df000117 	ldw	fp,4(sp)
    1234:	dc000017 	ldw	r16,0(sp)
    1238:	dec00304 	addi	sp,sp,12
    123c:	f800283a 	ret

00001240 <vid_get_pixel>:
*  Purpose: Reads the color of the pixel at the given coordinates
*
******************************************************************/

short vid_get_pixel(int horiz, int vert, alt_video_display* display)
{
    1240:	defff904 	addi	sp,sp,-28
    1244:	dfc00615 	stw	ra,24(sp)
    1248:	df000515 	stw	fp,20(sp)
    124c:	dc000415 	stw	r16,16(sp)
    1250:	df000404 	addi	fp,sp,16
    1254:	e13ffd15 	stw	r4,-12(fp)
    1258:	e17ffe15 	stw	r5,-8(fp)
    125c:	e1bfff15 	stw	r6,-4(fp)
  int addr;
  
  addr = ( ( (int)(VIPFR_GetDrawFrame(display)) )+ (vert * (display->width * 2)) + horiz * 2);
    1260:	e13fff17 	ldw	r4,-4(fp)
    1264:	00089b00 	call	89b0 <VIPFR_GetDrawFrame>
    1268:	1021883a 	mov	r16,r2
    126c:	e0bfff17 	ldw	r2,-4(fp)
    1270:	11000517 	ldw	r4,20(r2)
    1274:	e17ffe17 	ldw	r5,-8(fp)
    1278:	000a0540 	call	a054 <__mulsi3>
    127c:	1007883a 	mov	r3,r2
    1280:	e0bffd17 	ldw	r2,-12(fp)
    1284:	1885883a 	add	r2,r3,r2
    1288:	1085883a 	add	r2,r2,r2
    128c:	8085883a 	add	r2,r16,r2
    1290:	e0bffc15 	stw	r2,-16(fp)
  return(IORD_16DIRECT(addr, 0));
    1294:	e0bffc17 	ldw	r2,-16(fp)
    1298:	1080002b 	ldhuio	r2,0(r2)
    129c:	10bfffcc 	andi	r2,r2,65535
    12a0:	10a0001c 	xori	r2,r2,32768
    12a4:	10a00004 	addi	r2,r2,-32768

}
    12a8:	e037883a 	mov	sp,fp
    12ac:	dfc00217 	ldw	ra,8(sp)
    12b0:	df000117 	ldw	fp,4(sp)
    12b4:	dc000017 	ldw	r16,0(sp)
    12b8:	dec00304 	addi	sp,sp,12
    12bc:	f800283a 	ret

000012c0 <vid_paint_block>:
*           The color parameter must contain two pixel's worth
*           (32 bits).
*
******************************************************************/
void vid_paint_block (int Hstart,int Vstart, int Hend, int Vend, int color, alt_video_display* display)
{
    12c0:	defff204 	addi	sp,sp,-56
    12c4:	dfc00d15 	stw	ra,52(sp)
    12c8:	df000c15 	stw	fp,48(sp)
    12cc:	dc400b15 	stw	r17,44(sp)
    12d0:	dc000a15 	stw	r16,40(sp)
    12d4:	df000a04 	addi	fp,sp,40
    12d8:	e13ffb15 	stw	r4,-20(fp)
    12dc:	e17ffc15 	stw	r5,-16(fp)
    12e0:	e1bffd15 	stw	r6,-12(fp)
    12e4:	e1fffe15 	stw	r7,-8(fp)
  int i;
  unsigned int addr; // richard add unsigned
  int bytes_per_line, bytes_per_pixel;
  char* line;
  
  bytes_per_pixel = (display->color_depth / 8);
    12e8:	e0800517 	ldw	r2,20(fp)
    12ec:	10800417 	ldw	r2,16(r2)
    12f0:	e0bfff15 	stw	r2,-4(fp)
    12f4:	e0ffff17 	ldw	r3,-4(fp)
    12f8:	1804403a 	cmpge	r2,r3,zero
    12fc:	1000031e 	bne	r2,zero,130c <vid_paint_block+0x4c>
    1300:	e0bfff17 	ldw	r2,-4(fp)
    1304:	108001c4 	addi	r2,r2,7
    1308:	e0bfff15 	stw	r2,-4(fp)
    130c:	e0ffff17 	ldw	r3,-4(fp)
    1310:	1805d0fa 	srai	r2,r3,3
    1314:	e0bff715 	stw	r2,-36(fp)
  bytes_per_line = ((Hend - Hstart) * bytes_per_pixel);
    1318:	e0fffd17 	ldw	r3,-12(fp)
    131c:	e0bffb17 	ldw	r2,-20(fp)
    1320:	1889c83a 	sub	r4,r3,r2
    1324:	e17ff717 	ldw	r5,-36(fp)
    1328:	000a0540 	call	a054 <__mulsi3>
    132c:	e0bff815 	stw	r2,-32(fp)

  line = malloc(bytes_per_line + 12);
    1330:	e0bff817 	ldw	r2,-32(fp)
    1334:	10800304 	addi	r2,r2,12
    1338:	1009883a 	mov	r4,r2
    133c:	000a7680 	call	a768 <malloc>
    1340:	e0bff615 	stw	r2,-40(fp)

	if(display->color_depth == 16)
    1344:	e0800517 	ldw	r2,20(fp)
    1348:	10800417 	ldw	r2,16(r2)
    134c:	10800418 	cmpnei	r2,r2,16
    1350:	1000171e 	bne	r2,zero,13b0 <vid_paint_block+0xf0>
	{
    for (i = 0; i < bytes_per_line; i+=2) 
    1354:	e03ffa15 	stw	zero,-24(fp)
    1358:	00001106 	br	13a0 <vid_paint_block+0xe0>
    {
      *(line + i) = (unsigned char)color;
    135c:	e0bffa17 	ldw	r2,-24(fp)
    1360:	1007883a 	mov	r3,r2
    1364:	e0bff617 	ldw	r2,-40(fp)
    1368:	1887883a 	add	r3,r3,r2
    136c:	e0800417 	ldw	r2,16(fp)
    1370:	18800005 	stb	r2,0(r3)
      *(line + i + 1) = (unsigned char)(color >> 8);
    1374:	e0bffa17 	ldw	r2,-24(fp)
    1378:	1007883a 	mov	r3,r2
    137c:	e0bff617 	ldw	r2,-40(fp)
    1380:	1885883a 	add	r2,r3,r2
    1384:	10c00044 	addi	r3,r2,1
    1388:	e0800417 	ldw	r2,16(fp)
    138c:	1005d23a 	srai	r2,r2,8
    1390:	18800005 	stb	r2,0(r3)

  line = malloc(bytes_per_line + 12);

	if(display->color_depth == 16)
	{
    for (i = 0; i < bytes_per_line; i+=2) 
    1394:	e0bffa17 	ldw	r2,-24(fp)
    1398:	10800084 	addi	r2,r2,2
    139c:	e0bffa15 	stw	r2,-24(fp)
    13a0:	e0fffa17 	ldw	r3,-24(fp)
    13a4:	e0bff817 	ldw	r2,-32(fp)
    13a8:	18bfec16 	blt	r3,r2,135c <vid_paint_block+0x9c>
    13ac:	00003606 	br	1488 <vid_paint_block+0x1c8>
    {
      *(line + i) = (unsigned char)color;
      *(line + i + 1) = (unsigned char)(color >> 8);
    }
  }
  else if(display->color_depth == 24)
    13b0:	e0800517 	ldw	r2,20(fp)
    13b4:	10800417 	ldw	r2,16(r2)
    13b8:	10800618 	cmpnei	r2,r2,24
    13bc:	10001f1e 	bne	r2,zero,143c <vid_paint_block+0x17c>
  { 
    for (i = 0; i < bytes_per_line; i+=3) 
    13c0:	e03ffa15 	stw	zero,-24(fp)
    13c4:	00001906 	br	142c <vid_paint_block+0x16c>
    {
      *(line + i) = (unsigned char)color;
    13c8:	e0bffa17 	ldw	r2,-24(fp)
    13cc:	1007883a 	mov	r3,r2
    13d0:	e0bff617 	ldw	r2,-40(fp)
    13d4:	1887883a 	add	r3,r3,r2
    13d8:	e0800417 	ldw	r2,16(fp)
    13dc:	18800005 	stb	r2,0(r3)
      *(line + i + 1) = (unsigned char)(color >> 8);
    13e0:	e0bffa17 	ldw	r2,-24(fp)
    13e4:	1007883a 	mov	r3,r2
    13e8:	e0bff617 	ldw	r2,-40(fp)
    13ec:	1885883a 	add	r2,r3,r2
    13f0:	10c00044 	addi	r3,r2,1
    13f4:	e0800417 	ldw	r2,16(fp)
    13f8:	1005d23a 	srai	r2,r2,8
    13fc:	18800005 	stb	r2,0(r3)
      *(line + i + 2) = (unsigned char)(color >> 16);
    1400:	e0bffa17 	ldw	r2,-24(fp)
    1404:	1007883a 	mov	r3,r2
    1408:	e0bff617 	ldw	r2,-40(fp)
    140c:	1885883a 	add	r2,r3,r2
    1410:	10c00084 	addi	r3,r2,2
    1414:	e0800417 	ldw	r2,16(fp)
    1418:	1005d43a 	srai	r2,r2,16
    141c:	18800005 	stb	r2,0(r3)
      *(line + i + 1) = (unsigned char)(color >> 8);
    }
  }
  else if(display->color_depth == 24)
  { 
    for (i = 0; i < bytes_per_line; i+=3) 
    1420:	e0bffa17 	ldw	r2,-24(fp)
    1424:	108000c4 	addi	r2,r2,3
    1428:	e0bffa15 	stw	r2,-24(fp)
    142c:	e0fffa17 	ldw	r3,-24(fp)
    1430:	e0bff817 	ldw	r2,-32(fp)
    1434:	18bfe416 	blt	r3,r2,13c8 <vid_paint_block+0x108>
    1438:	00001306 	br	1488 <vid_paint_block+0x1c8>
      *(line + i) = (unsigned char)color;
      *(line + i + 1) = (unsigned char)(color >> 8);
      *(line + i + 2) = (unsigned char)(color >> 16);
    }
  }
  else if(display->color_depth == 32)
    143c:	e0800517 	ldw	r2,20(fp)
    1440:	10800417 	ldw	r2,16(r2)
    1444:	10800818 	cmpnei	r2,r2,32
    1448:	10000f1e 	bne	r2,zero,1488 <vid_paint_block+0x1c8>
  { 
    for (i = 0; i < bytes_per_line; i+=4) 
    144c:	e03ffa15 	stw	zero,-24(fp)
    1450:	00000a06 	br	147c <vid_paint_block+0x1bc>
    {
      // Does the right hand side of this assignment determine the size?
      *(int*)(line + i) = (unsigned int)color;
    1454:	e0bffa17 	ldw	r2,-24(fp)
    1458:	1007883a 	mov	r3,r2
    145c:	e0bff617 	ldw	r2,-40(fp)
    1460:	1885883a 	add	r2,r3,r2
    1464:	1007883a 	mov	r3,r2
    1468:	e0800417 	ldw	r2,16(fp)
    146c:	18800015 	stw	r2,0(r3)
      *(line + i + 2) = (unsigned char)(color >> 16);
    }
  }
  else if(display->color_depth == 32)
  { 
    for (i = 0; i < bytes_per_line; i+=4) 
    1470:	e0bffa17 	ldw	r2,-24(fp)
    1474:	10800104 	addi	r2,r2,4
    1478:	e0bffa15 	stw	r2,-24(fp)
    147c:	e0fffa17 	ldw	r3,-24(fp)
    1480:	e0bff817 	ldw	r2,-32(fp)
    1484:	18bff316 	blt	r3,r2,1454 <vid_paint_block+0x194>
      *(int*)(line + i) = (unsigned int)color;
    }
  }
  
  /* Initial Address */
  addr = (int)(VIPFR_GetDrawFrame(display)) + ((Vstart * (display->width * bytes_per_pixel)) + (Hstart * bytes_per_pixel));
    1488:	e1000517 	ldw	r4,20(fp)
    148c:	00089b00 	call	89b0 <VIPFR_GetDrawFrame>
    1490:	1023883a 	mov	r17,r2
    1494:	e0800517 	ldw	r2,20(fp)
    1498:	11000517 	ldw	r4,20(r2)
    149c:	e17ff717 	ldw	r5,-36(fp)
    14a0:	000a0540 	call	a054 <__mulsi3>
    14a4:	1009883a 	mov	r4,r2
    14a8:	e17ffc17 	ldw	r5,-16(fp)
    14ac:	000a0540 	call	a054 <__mulsi3>
    14b0:	1021883a 	mov	r16,r2
    14b4:	e13ffb17 	ldw	r4,-20(fp)
    14b8:	e17ff717 	ldw	r5,-36(fp)
    14bc:	000a0540 	call	a054 <__mulsi3>
    14c0:	8085883a 	add	r2,r16,r2
    14c4:	8885883a 	add	r2,r17,r2
    14c8:	e0bff915 	stw	r2,-28(fp)
  
  for (i = Vstart; i < Vend; i++)
    14cc:	e0bffc17 	ldw	r2,-16(fp)
    14d0:	e0bffa15 	stw	r2,-24(fp)
    14d4:	00001106 	br	151c <vid_paint_block+0x25c>
  {
    memcpy( (void*)addr, line, bytes_per_line );
    14d8:	e0fff917 	ldw	r3,-28(fp)
    14dc:	e1bff817 	ldw	r6,-32(fp)
    14e0:	e0bff617 	ldw	r2,-40(fp)
    14e4:	1809883a 	mov	r4,r3
    14e8:	100b883a 	mov	r5,r2
    14ec:	000aebc0 	call	aebc <memcpy>
    addr += (display->width * bytes_per_pixel);
    14f0:	e0800517 	ldw	r2,20(fp)
    14f4:	11000517 	ldw	r4,20(r2)
    14f8:	e17ff717 	ldw	r5,-36(fp)
    14fc:	000a0540 	call	a054 <__mulsi3>
    1500:	1007883a 	mov	r3,r2
    1504:	e0bff917 	ldw	r2,-28(fp)
    1508:	10c5883a 	add	r2,r2,r3
    150c:	e0bff915 	stw	r2,-28(fp)
  }
  
  /* Initial Address */
  addr = (int)(VIPFR_GetDrawFrame(display)) + ((Vstart * (display->width * bytes_per_pixel)) + (Hstart * bytes_per_pixel));
  
  for (i = Vstart; i < Vend; i++)
    1510:	e0bffa17 	ldw	r2,-24(fp)
    1514:	10800044 	addi	r2,r2,1
    1518:	e0bffa15 	stw	r2,-24(fp)
    151c:	e0fffa17 	ldw	r3,-24(fp)
    1520:	e0bffe17 	ldw	r2,-8(fp)
    1524:	18bfec16 	blt	r3,r2,14d8 <vid_paint_block+0x218>
  {
    memcpy( (void*)addr, line, bytes_per_line );
    addr += (display->width * bytes_per_pixel);
  }
  free (line);
    1528:	e13ff617 	ldw	r4,-40(fp)
    152c:	000a7540 	call	a754 <free>
}
    1530:	e037883a 	mov	sp,fp
    1534:	dfc00317 	ldw	ra,12(sp)
    1538:	df000217 	ldw	fp,8(sp)
    153c:	dc400117 	ldw	r17,4(sp)
    1540:	dc000017 	ldw	r16,0(sp)
    1544:	dec00404 	addi	sp,sp,16
    1548:	f800283a 	ret

0000154c <vid_draw_horiz_line>:
*  Purpose: Draws a horizontal line on the screen quickly.
*           Good for filling stuff.
*
******************************************************************/
void vid_draw_horiz_line (short Hstart, short Hend, int V, int color, alt_video_display* display)
{
    154c:	defff404 	addi	sp,sp,-48
    1550:	dfc00b15 	stw	ra,44(sp)
    1554:	df000a15 	stw	fp,40(sp)
    1558:	dc000915 	stw	r16,36(sp)
    155c:	df000904 	addi	fp,sp,36
    1560:	e1bffe15 	stw	r6,-8(fp)
    1564:	e1ffff15 	stw	r7,-4(fp)
    1568:	e13ffc0d 	sth	r4,-16(fp)
    156c:	e17ffd0d 	sth	r5,-12(fp)

  int i;
  int addr;
  int bytes_per_line;

  char *fast_buffer = malloc(1024 * 3);
    1570:	01030004 	movi	r4,3072
    1574:	000a7680 	call	a768 <malloc>
    1578:	e0bff815 	stw	r2,-32(fp)

  if( Hstart > Hend )
    157c:	e0fffc0f 	ldh	r3,-16(fp)
    1580:	e0bffd0f 	ldh	r2,-12(fp)
    1584:	10c0060e 	bge	r2,r3,15a0 <vid_draw_horiz_line+0x54>
  {
    short temp = Hstart;
    1588:	e0bffc0b 	ldhu	r2,-16(fp)
    158c:	e0bff70d 	sth	r2,-36(fp)
    Hstart = Hend;
    1590:	e0bffd0b 	ldhu	r2,-12(fp)
    1594:	e0bffc0d 	sth	r2,-16(fp)
    Hend = temp;
    1598:	e0bff70b 	ldhu	r2,-36(fp)
    159c:	e0bffd0d 	sth	r2,-12(fp)
  }
  
  if(display->color_depth == 32)
    15a0:	e0800317 	ldw	r2,12(fp)
    15a4:	10800417 	ldw	r2,16(r2)
    15a8:	10800818 	cmpnei	r2,r2,32
    15ac:	1000291e 	bne	r2,zero,1654 <vid_draw_horiz_line+0x108>
  { 
    addr = (int)(VIPFR_GetDrawFrame(display)) + ((V * (display->width * 4)) + (Hstart * 4));
    15b0:	e1000317 	ldw	r4,12(fp)
    15b4:	00089b00 	call	89b0 <VIPFR_GetDrawFrame>
    15b8:	1021883a 	mov	r16,r2
    15bc:	e0800317 	ldw	r2,12(fp)
    15c0:	11000517 	ldw	r4,20(r2)
    15c4:	e17ffe17 	ldw	r5,-8(fp)
    15c8:	000a0540 	call	a054 <__mulsi3>
    15cc:	1007883a 	mov	r3,r2
    15d0:	e0bffc0f 	ldh	r2,-16(fp)
    15d4:	1885883a 	add	r2,r3,r2
    15d8:	1085883a 	add	r2,r2,r2
    15dc:	1085883a 	add	r2,r2,r2
    15e0:	8085883a 	add	r2,r16,r2
    15e4:	e0bffa15 	stw	r2,-24(fp)
    bytes_per_line = ((Hend - Hstart) * 4);
    15e8:	e0fffd0f 	ldh	r3,-12(fp)
    15ec:	e0bffc0f 	ldh	r2,-16(fp)
    15f0:	1885c83a 	sub	r2,r3,r2
    15f4:	1085883a 	add	r2,r2,r2
    15f8:	1085883a 	add	r2,r2,r2
    15fc:	e0bff915 	stw	r2,-28(fp)
    for (i = 0; i < bytes_per_line; i+=4) 
    1600:	e03ffb15 	stw	zero,-20(fp)
    1604:	00000a06 	br	1630 <vid_draw_horiz_line+0xe4>
    {
      // Does the right hand side of this assignment determine the size?
      *(int*)(fast_buffer + i) = (unsigned int)color;
    1608:	e0bffb17 	ldw	r2,-20(fp)
    160c:	1007883a 	mov	r3,r2
    1610:	e0bff817 	ldw	r2,-32(fp)
    1614:	1885883a 	add	r2,r3,r2
    1618:	1007883a 	mov	r3,r2
    161c:	e0bfff17 	ldw	r2,-4(fp)
    1620:	18800015 	stw	r2,0(r3)
  
  if(display->color_depth == 32)
  { 
    addr = (int)(VIPFR_GetDrawFrame(display)) + ((V * (display->width * 4)) + (Hstart * 4));
    bytes_per_line = ((Hend - Hstart) * 4);
    for (i = 0; i < bytes_per_line; i+=4) 
    1624:	e0bffb17 	ldw	r2,-20(fp)
    1628:	10800104 	addi	r2,r2,4
    162c:	e0bffb15 	stw	r2,-20(fp)
    1630:	e0fffb17 	ldw	r3,-20(fp)
    1634:	e0bff917 	ldw	r2,-28(fp)
    1638:	18bff316 	blt	r3,r2,1608 <vid_draw_horiz_line+0xbc>
    {
      // Does the right hand side of this assignment determine the size?
      *(int*)(fast_buffer + i) = (unsigned int)color;
    }
    memcpy( (void*)addr, fast_buffer, bytes_per_line );
    163c:	e0fffa17 	ldw	r3,-24(fp)
    1640:	e1bff917 	ldw	r6,-28(fp)
    1644:	e0bff817 	ldw	r2,-32(fp)
    1648:	1809883a 	mov	r4,r3
    164c:	100b883a 	mov	r5,r2
    1650:	000aebc0 	call	aebc <memcpy>
  }
  if(display->color_depth == 24)
    1654:	e0800317 	ldw	r2,12(fp)
    1658:	10800417 	ldw	r2,16(r2)
    165c:	10800618 	cmpnei	r2,r2,24
    1660:	10003b1e 	bne	r2,zero,1750 <vid_draw_horiz_line+0x204>
  { 
    addr = (int)(VIPFR_GetDrawFrame(display)) + ((V * (display->width * 3)) + (Hstart * 3));
    1664:	e1000317 	ldw	r4,12(fp)
    1668:	00089b00 	call	89b0 <VIPFR_GetDrawFrame>
    166c:	1021883a 	mov	r16,r2
    1670:	e0800317 	ldw	r2,12(fp)
    1674:	11000517 	ldw	r4,20(r2)
    1678:	e17ffe17 	ldw	r5,-8(fp)
    167c:	000a0540 	call	a054 <__mulsi3>
    1680:	1007883a 	mov	r3,r2
    1684:	e0bffc0f 	ldh	r2,-16(fp)
    1688:	1887883a 	add	r3,r3,r2
    168c:	1805883a 	mov	r2,r3
    1690:	1085883a 	add	r2,r2,r2
    1694:	10c5883a 	add	r2,r2,r3
    1698:	8085883a 	add	r2,r16,r2
    169c:	e0bffa15 	stw	r2,-24(fp)
    bytes_per_line = ((Hend - Hstart) * 3);
    16a0:	e0fffd0f 	ldh	r3,-12(fp)
    16a4:	e0bffc0f 	ldh	r2,-16(fp)
    16a8:	1887c83a 	sub	r3,r3,r2
    16ac:	1805883a 	mov	r2,r3
    16b0:	1085883a 	add	r2,r2,r2
    16b4:	10c5883a 	add	r2,r2,r3
    16b8:	e0bff915 	stw	r2,-28(fp)
    for (i = 0; i < bytes_per_line; i+=3) 
    16bc:	e03ffb15 	stw	zero,-20(fp)
    16c0:	00001906 	br	1728 <vid_draw_horiz_line+0x1dc>
    {
      *(fast_buffer + i) = (unsigned char)color;
    16c4:	e0bffb17 	ldw	r2,-20(fp)
    16c8:	1007883a 	mov	r3,r2
    16cc:	e0bff817 	ldw	r2,-32(fp)
    16d0:	1887883a 	add	r3,r3,r2
    16d4:	e0bfff17 	ldw	r2,-4(fp)
    16d8:	18800005 	stb	r2,0(r3)
      *(fast_buffer + i + 1) = (unsigned char)(color >> 8);
    16dc:	e0bffb17 	ldw	r2,-20(fp)
    16e0:	1007883a 	mov	r3,r2
    16e4:	e0bff817 	ldw	r2,-32(fp)
    16e8:	1885883a 	add	r2,r3,r2
    16ec:	10c00044 	addi	r3,r2,1
    16f0:	e0bfff17 	ldw	r2,-4(fp)
    16f4:	1005d23a 	srai	r2,r2,8
    16f8:	18800005 	stb	r2,0(r3)
      *(fast_buffer + i + 2) = (unsigned char)(color >> 16);
    16fc:	e0bffb17 	ldw	r2,-20(fp)
    1700:	1007883a 	mov	r3,r2
    1704:	e0bff817 	ldw	r2,-32(fp)
    1708:	1885883a 	add	r2,r3,r2
    170c:	10c00084 	addi	r3,r2,2
    1710:	e0bfff17 	ldw	r2,-4(fp)
    1714:	1005d43a 	srai	r2,r2,16
    1718:	18800005 	stb	r2,0(r3)
  }
  if(display->color_depth == 24)
  { 
    addr = (int)(VIPFR_GetDrawFrame(display)) + ((V * (display->width * 3)) + (Hstart * 3));
    bytes_per_line = ((Hend - Hstart) * 3);
    for (i = 0; i < bytes_per_line; i+=3) 
    171c:	e0bffb17 	ldw	r2,-20(fp)
    1720:	108000c4 	addi	r2,r2,3
    1724:	e0bffb15 	stw	r2,-20(fp)
    1728:	e0fffb17 	ldw	r3,-20(fp)
    172c:	e0bff917 	ldw	r2,-28(fp)
    1730:	18bfe416 	blt	r3,r2,16c4 <vid_draw_horiz_line+0x178>
    {
      *(fast_buffer + i) = (unsigned char)color;
      *(fast_buffer + i + 1) = (unsigned char)(color >> 8);
      *(fast_buffer + i + 2) = (unsigned char)(color >> 16);
    }
    memcpy( (void*)addr, fast_buffer, bytes_per_line );
    1734:	e0fffa17 	ldw	r3,-24(fp)
    1738:	e1bff917 	ldw	r6,-28(fp)
    173c:	e0bff817 	ldw	r2,-32(fp)
    1740:	1809883a 	mov	r4,r3
    1744:	100b883a 	mov	r5,r2
    1748:	000aebc0 	call	aebc <memcpy>
    174c:	00003206 	br	1818 <vid_draw_horiz_line+0x2cc>
  }
  else if(display->color_depth == 16)
    1750:	e0800317 	ldw	r2,12(fp)
    1754:	10800417 	ldw	r2,16(r2)
    1758:	10800418 	cmpnei	r2,r2,16
    175c:	10002e1e 	bne	r2,zero,1818 <vid_draw_horiz_line+0x2cc>
  {
    addr = (int)(VIPFR_GetDrawFrame(display)) + ((V * (display->width * 2)) + (Hstart * 2));
    1760:	e1000317 	ldw	r4,12(fp)
    1764:	00089b00 	call	89b0 <VIPFR_GetDrawFrame>
    1768:	1021883a 	mov	r16,r2
    176c:	e0800317 	ldw	r2,12(fp)
    1770:	11000517 	ldw	r4,20(r2)
    1774:	e17ffe17 	ldw	r5,-8(fp)
    1778:	000a0540 	call	a054 <__mulsi3>
    177c:	1007883a 	mov	r3,r2
    1780:	e0bffc0f 	ldh	r2,-16(fp)
    1784:	1885883a 	add	r2,r3,r2
    1788:	1085883a 	add	r2,r2,r2
    178c:	8085883a 	add	r2,r16,r2
    1790:	e0bffa15 	stw	r2,-24(fp)
    bytes_per_line = ((Hend - Hstart) * 2);
    1794:	e0fffd0f 	ldh	r3,-12(fp)
    1798:	e0bffc0f 	ldh	r2,-16(fp)
    179c:	1885c83a 	sub	r2,r3,r2
    17a0:	1085883a 	add	r2,r2,r2
    17a4:	e0bff915 	stw	r2,-28(fp)
    for (i = 0; i < bytes_per_line; i+=2) 
    17a8:	e03ffb15 	stw	zero,-20(fp)
    17ac:	00001106 	br	17f4 <vid_draw_horiz_line+0x2a8>
    {
      *(fast_buffer + i) = (unsigned char)color;
    17b0:	e0bffb17 	ldw	r2,-20(fp)
    17b4:	1007883a 	mov	r3,r2
    17b8:	e0bff817 	ldw	r2,-32(fp)
    17bc:	1887883a 	add	r3,r3,r2
    17c0:	e0bfff17 	ldw	r2,-4(fp)
    17c4:	18800005 	stb	r2,0(r3)
      *(fast_buffer + i + 1) = (unsigned char)(color >> 8);
    17c8:	e0bffb17 	ldw	r2,-20(fp)
    17cc:	1007883a 	mov	r3,r2
    17d0:	e0bff817 	ldw	r2,-32(fp)
    17d4:	1885883a 	add	r2,r3,r2
    17d8:	10c00044 	addi	r3,r2,1
    17dc:	e0bfff17 	ldw	r2,-4(fp)
    17e0:	1005d23a 	srai	r2,r2,8
    17e4:	18800005 	stb	r2,0(r3)
  }
  else if(display->color_depth == 16)
  {
    addr = (int)(VIPFR_GetDrawFrame(display)) + ((V * (display->width * 2)) + (Hstart * 2));
    bytes_per_line = ((Hend - Hstart) * 2);
    for (i = 0; i < bytes_per_line; i+=2) 
    17e8:	e0bffb17 	ldw	r2,-20(fp)
    17ec:	10800084 	addi	r2,r2,2
    17f0:	e0bffb15 	stw	r2,-20(fp)
    17f4:	e0fffb17 	ldw	r3,-20(fp)
    17f8:	e0bff917 	ldw	r2,-28(fp)
    17fc:	18bfec16 	blt	r3,r2,17b0 <vid_draw_horiz_line+0x264>
    {
      *(fast_buffer + i) = (unsigned char)color;
      *(fast_buffer + i + 1) = (unsigned char)(color >> 8);
    }
    memcpy( (void*)addr, fast_buffer, bytes_per_line );
    1800:	e0fffa17 	ldw	r3,-24(fp)
    1804:	e1bff917 	ldw	r6,-28(fp)
    1808:	e0bff817 	ldw	r2,-32(fp)
    180c:	1809883a 	mov	r4,r3
    1810:	100b883a 	mov	r5,r2
    1814:	000aebc0 	call	aebc <memcpy>
  }
  free(fast_buffer);
    1818:	e13ff817 	ldw	r4,-32(fp)
    181c:	000a7540 	call	a754 <free>
}
    1820:	e037883a 	mov	sp,fp
    1824:	dfc00217 	ldw	ra,8(sp)
    1828:	df000117 	ldw	fp,4(sp)
    182c:	dc000017 	ldw	r16,0(sp)
    1830:	dec00304 	addi	sp,sp,12
    1834:	f800283a 	ret

00001838 <vid_merge_colors>:
*  Purpose: Takes 5-bit color values for each red, green, and blue
*           and merges them into one 16-bit color value.
*
******************************************************************/
int vid_merge_colors(int red, int green, int blue)
{
    1838:	defffc04 	addi	sp,sp,-16
    183c:	df000315 	stw	fp,12(sp)
    1840:	df000304 	addi	fp,sp,12
    1844:	e13ffd15 	stw	r4,-12(fp)
    1848:	e17ffe15 	stw	r5,-8(fp)
    184c:	e1bfff15 	stw	r6,-4(fp)
  // Green actually has 6-bits, but we'll make it's LSB 1 to be consistent.
  return ((blue) | (((green << 1) | 0x1) << 5) | (red << 11));
    1850:	e0bffe17 	ldw	r2,-8(fp)
    1854:	1085883a 	add	r2,r2,r2
    1858:	10800054 	ori	r2,r2,1
    185c:	1006917a 	slli	r3,r2,5
    1860:	e0bfff17 	ldw	r2,-4(fp)
    1864:	1886b03a 	or	r3,r3,r2
    1868:	e0bffd17 	ldw	r2,-12(fp)
    186c:	100492fa 	slli	r2,r2,11
    1870:	1884b03a 	or	r2,r3,r2
}
    1874:	e037883a 	mov	sp,fp
    1878:	df000017 	ldw	fp,0(sp)
    187c:	dec00104 	addi	sp,sp,4
    1880:	f800283a 	ret

00001884 <vid_color_convert24_16>:
*           sample and converts it to 16-bits, displayable by the 
*           VGA controller in 16-bit mode
*
******************************************************************/
unsigned short vid_color_convert24_16(char* color24)
{
    1884:	defffc04 	addi	sp,sp,-16
    1888:	df000315 	stw	fp,12(sp)
    188c:	df000304 	addi	fp,sp,12
    1890:	e13fff15 	stw	r4,-4(fp)
	unsigned char red, green, blue;
	unsigned short output;
	
	red = *(color24 + 0) & 0xF8;
    1894:	e0bfff17 	ldw	r2,-4(fp)
    1898:	10800003 	ldbu	r2,0(r2)
    189c:	1007883a 	mov	r3,r2
    18a0:	00bffe04 	movi	r2,-8
    18a4:	1884703a 	and	r2,r3,r2
    18a8:	e0bffe05 	stb	r2,-8(fp)
	green = *(color24 + 1) & 0xFC; // green is actualy 6 bits
    18ac:	e0bfff17 	ldw	r2,-4(fp)
    18b0:	10800044 	addi	r2,r2,1
    18b4:	10800003 	ldbu	r2,0(r2)
    18b8:	1007883a 	mov	r3,r2
    18bc:	00bfff04 	movi	r2,-4
    18c0:	1884703a 	and	r2,r3,r2
    18c4:	e0bffdc5 	stb	r2,-9(fp)
	blue = *(color24 + 2) & 0xF8;
    18c8:	e0bfff17 	ldw	r2,-4(fp)
    18cc:	10800084 	addi	r2,r2,2
    18d0:	10800003 	ldbu	r2,0(r2)
    18d4:	1007883a 	mov	r3,r2
    18d8:	00bffe04 	movi	r2,-8
    18dc:	1884703a 	and	r2,r3,r2
    18e0:	e0bffd85 	stb	r2,-10(fp)

	output = ((blue >> 3) | (green << 3) | (red << 8));  
    18e4:	e0bffd83 	ldbu	r2,-10(fp)
    18e8:	1004d0fa 	srli	r2,r2,3
    18ec:	10c03fcc 	andi	r3,r2,255
    18f0:	e0bffdc3 	ldbu	r2,-9(fp)
    18f4:	100490fa 	slli	r2,r2,3
    18f8:	1884b03a 	or	r2,r3,r2
    18fc:	1007883a 	mov	r3,r2
    1900:	e0bffe03 	ldbu	r2,-8(fp)
    1904:	1004923a 	slli	r2,r2,8
    1908:	1884b03a 	or	r2,r3,r2
    190c:	e0bffd0d 	sth	r2,-12(fp)
	return output;
    1910:	e0bffd0b 	ldhu	r2,-12(fp)
}
    1914:	e037883a 	mov	sp,fp
    1918:	df000017 	ldw	fp,0(sp)
    191c:	dec00104 	addi	sp,sp,4
    1920:	f800283a 	ret

00001924 <vid_color_convert16_24>:
*           sample and converts it to 16-bits, displayable by the 
*           VGA controller in 16-bit mode
*
******************************************************************/
int vid_color_convert16_24(unsigned short color16, char* color24)
{
    1924:	defffd04 	addi	sp,sp,-12
    1928:	df000215 	stw	fp,8(sp)
    192c:	df000204 	addi	fp,sp,8
    1930:	e17fff15 	stw	r5,-4(fp)
    1934:	e13ffe0d 	sth	r4,-8(fp)
	*(color24 + 0) = color16 >> 11;
    1938:	e0bffe0b 	ldhu	r2,-8(fp)
    193c:	1004d2fa 	srli	r2,r2,11
    1940:	1007883a 	mov	r3,r2
    1944:	e0bfff17 	ldw	r2,-4(fp)
    1948:	10c00005 	stb	r3,0(r2)
	*(color24 + 1) = ((color16 & 0x3E) >> 5);
    194c:	e0bfff17 	ldw	r2,-4(fp)
    1950:	10c00044 	addi	r3,r2,1
    1954:	e0bffe0b 	ldhu	r2,-8(fp)
    1958:	10800f8c 	andi	r2,r2,62
    195c:	1005d17a 	srai	r2,r2,5
    1960:	18800005 	stb	r2,0(r3)
	*(color24 + 2) = (color16 & 0x1F);
    1964:	e0bfff17 	ldw	r2,-4(fp)
    1968:	10c00084 	addi	r3,r2,2
    196c:	e0bffe0b 	ldhu	r2,-8(fp)
    1970:	108007cc 	andi	r2,r2,31
    1974:	18800005 	stb	r2,0(r3)
	
	return (0);
    1978:	0005883a 	mov	r2,zero
}
    197c:	e037883a 	mov	sp,fp
    1980:	df000017 	ldw	fp,0(sp)
    1984:	dec00104 	addi	sp,sp,4
    1988:	f800283a 	ret

0000198c <vid_copy_line_to_frame_buffer>:
*           the specified coordinates.  Converts color depth if
*           necessary.
*
******************************************************************/
int vid_copy_line_to_frame_buffer( int x, int y, char* buffer, int num_pixels, int source_color_depth, alt_video_display* display )
{
    198c:	defff304 	addi	sp,sp,-52
    1990:	dfc00c15 	stw	ra,48(sp)
    1994:	df000b15 	stw	fp,44(sp)
    1998:	dc400a15 	stw	r17,40(sp)
    199c:	dc000915 	stw	r16,36(sp)
    19a0:	df000904 	addi	fp,sp,36
    19a4:	e13ffc15 	stw	r4,-16(fp)
    19a8:	e17ffd15 	stw	r5,-12(fp)
    19ac:	e1bffe15 	stw	r6,-8(fp)
    19b0:	e1ffff15 	stw	r7,-4(fp)
  unsigned short* temp_line;
  int index_24 = 0;
    19b4:	e03ffa15 	stw	zero,-24(fp)
  int index_16 = 0;
    19b8:	e03ff915 	stw	zero,-28(fp)
  unsigned int dest_addr;
  unsigned int bytes_in_line;
  
  dest_addr = (int)(VIPFR_GetDrawFrame(display)) + 
    19bc:	e1000517 	ldw	r4,20(fp)
    19c0:	00089b00 	call	89b0 <VIPFR_GetDrawFrame>
    19c4:	1023883a 	mov	r17,r2
    19c8:	e0800517 	ldw	r2,20(fp)
    19cc:	11000517 	ldw	r4,20(r2)
    19d0:	e0800517 	ldw	r2,20(fp)
    19d4:	11400717 	ldw	r5,28(r2)
    19d8:	000a0540 	call	a054 <__mulsi3>
    19dc:	1009883a 	mov	r4,r2
    19e0:	e17ffd17 	ldw	r5,-12(fp)
    19e4:	000a0540 	call	a054 <__mulsi3>
    19e8:	1021883a 	mov	r16,r2
    19ec:	e0800517 	ldw	r2,20(fp)
    19f0:	11000717 	ldw	r4,28(r2)
    19f4:	e17ffc17 	ldw	r5,-16(fp)
    19f8:	000a0540 	call	a054 <__mulsi3>
    19fc:	8085883a 	add	r2,r16,r2
    1a00:	8885883a 	add	r2,r17,r2
    1a04:	e0bff815 	stw	r2,-32(fp)
    ((y * (display->width * (display->bytes_per_pixel))) + 
    (x * (display->bytes_per_pixel)));
  
  bytes_in_line = num_pixels * display->bytes_per_pixel;
    1a08:	e0800517 	ldw	r2,20(fp)
    1a0c:	11000717 	ldw	r4,28(r2)
    1a10:	e17fff17 	ldw	r5,-4(fp)
    1a14:	000a0540 	call	a054 <__mulsi3>
    1a18:	e0bff715 	stw	r2,-36(fp)
  
  if(source_color_depth == 24)
    1a1c:	e0800417 	ldw	r2,16(fp)
    1a20:	10800618 	cmpnei	r2,r2,24
    1a24:	10004f1e 	bne	r2,zero,1b64 <vid_copy_line_to_frame_buffer+0x1d8>
  {
    if(display->color_depth == 16)
    1a28:	e0800517 	ldw	r2,20(fp)
    1a2c:	10800417 	ldw	r2,16(r2)
    1a30:	10800418 	cmpnei	r2,r2,16
    1a34:	1000401e 	bne	r2,zero,1b38 <vid_copy_line_to_frame_buffer+0x1ac>
    {
      temp_line = malloc(bytes_in_line);
    1a38:	e13ff717 	ldw	r4,-36(fp)
    1a3c:	000a7680 	call	a768 <malloc>
    1a40:	e0bffb15 	stw	r2,-20(fp)
      while(index_24 < bytes_in_line)
    1a44:	00003006 	br	1b08 <vid_copy_line_to_frame_buffer+0x17c>
      {
        *(temp_line + index_16) = vid_color_convert24_16_m((char*)(buffer + index_24));
    1a48:	e0bff917 	ldw	r2,-28(fp)
    1a4c:	1085883a 	add	r2,r2,r2
    1a50:	1007883a 	mov	r3,r2
    1a54:	e0bffb17 	ldw	r2,-20(fp)
    1a58:	188b883a 	add	r5,r3,r2
    1a5c:	e0bffa17 	ldw	r2,-24(fp)
    1a60:	1007883a 	mov	r3,r2
    1a64:	e0bffe17 	ldw	r2,-8(fp)
    1a68:	1885883a 	add	r2,r3,r2
    1a6c:	10800084 	addi	r2,r2,2
    1a70:	10800003 	ldbu	r2,0(r2)
    1a74:	10803fcc 	andi	r2,r2,255
    1a78:	1080201c 	xori	r2,r2,128
    1a7c:	10bfe004 	addi	r2,r2,-128
    1a80:	10803e0c 	andi	r2,r2,248
    1a84:	1005d0fa 	srai	r2,r2,3
    1a88:	1009883a 	mov	r4,r2
    1a8c:	e0bffa17 	ldw	r2,-24(fp)
    1a90:	1007883a 	mov	r3,r2
    1a94:	e0bffe17 	ldw	r2,-8(fp)
    1a98:	1885883a 	add	r2,r3,r2
    1a9c:	10800044 	addi	r2,r2,1
    1aa0:	10800003 	ldbu	r2,0(r2)
    1aa4:	10803fcc 	andi	r2,r2,255
    1aa8:	1080201c 	xori	r2,r2,128
    1aac:	10bfe004 	addi	r2,r2,-128
    1ab0:	10803f0c 	andi	r2,r2,252
    1ab4:	100490fa 	slli	r2,r2,3
    1ab8:	2084b03a 	or	r2,r4,r2
    1abc:	1009883a 	mov	r4,r2
    1ac0:	e0bffa17 	ldw	r2,-24(fp)
    1ac4:	1007883a 	mov	r3,r2
    1ac8:	e0bffe17 	ldw	r2,-8(fp)
    1acc:	1885883a 	add	r2,r3,r2
    1ad0:	10800003 	ldbu	r2,0(r2)
    1ad4:	10803fcc 	andi	r2,r2,255
    1ad8:	1080201c 	xori	r2,r2,128
    1adc:	10bfe004 	addi	r2,r2,-128
    1ae0:	10803e0c 	andi	r2,r2,248
    1ae4:	1004923a 	slli	r2,r2,8
    1ae8:	2084b03a 	or	r2,r4,r2
    1aec:	2880000d 	sth	r2,0(r5)
        index_16++;
    1af0:	e0bff917 	ldw	r2,-28(fp)
    1af4:	10800044 	addi	r2,r2,1
    1af8:	e0bff915 	stw	r2,-28(fp)
        index_24+=3;
    1afc:	e0bffa17 	ldw	r2,-24(fp)
    1b00:	108000c4 	addi	r2,r2,3
    1b04:	e0bffa15 	stw	r2,-24(fp)
  if(source_color_depth == 24)
  {
    if(display->color_depth == 16)
    {
      temp_line = malloc(bytes_in_line);
      while(index_24 < bytes_in_line)
    1b08:	e0fffa17 	ldw	r3,-24(fp)
    1b0c:	e0bff717 	ldw	r2,-36(fp)
    1b10:	18bfcd36 	bltu	r3,r2,1a48 <vid_copy_line_to_frame_buffer+0xbc>
      {
        *(temp_line + index_16) = vid_color_convert24_16_m((char*)(buffer + index_24));
        index_16++;
        index_24+=3;
      }
      memcpy( (void*)dest_addr, (void*)temp_line, bytes_in_line );
    1b14:	e0bff817 	ldw	r2,-32(fp)
    1b18:	e0fffb17 	ldw	r3,-20(fp)
    1b1c:	1009883a 	mov	r4,r2
    1b20:	180b883a 	mov	r5,r3
    1b24:	e1bff717 	ldw	r6,-36(fp)
    1b28:	000aebc0 	call	aebc <memcpy>
      free(temp_line);
    1b2c:	e13ffb17 	ldw	r4,-20(fp)
    1b30:	000a7540 	call	a754 <free>
    1b34:	00004206 	br	1c40 <vid_copy_line_to_frame_buffer+0x2b4>
    }
    else if(display->color_depth == 24)
    1b38:	e0800517 	ldw	r2,20(fp)
    1b3c:	10800417 	ldw	r2,16(r2)
    1b40:	10800618 	cmpnei	r2,r2,24
    1b44:	10003e1e 	bne	r2,zero,1c40 <vid_copy_line_to_frame_buffer+0x2b4>
    {
      memcpy( (void*)dest_addr, (void*)buffer, bytes_in_line );
    1b48:	e0bff817 	ldw	r2,-32(fp)
    1b4c:	e0fffe17 	ldw	r3,-8(fp)
    1b50:	1009883a 	mov	r4,r2
    1b54:	180b883a 	mov	r5,r3
    1b58:	e1bff717 	ldw	r6,-36(fp)
    1b5c:	000aebc0 	call	aebc <memcpy>
    1b60:	00003706 	br	1c40 <vid_copy_line_to_frame_buffer+0x2b4>
    }
  }
  else if(source_color_depth == 16)
    1b64:	e0800417 	ldw	r2,16(fp)
    1b68:	10800418 	cmpnei	r2,r2,16
    1b6c:	1000341e 	bne	r2,zero,1c40 <vid_copy_line_to_frame_buffer+0x2b4>
  {
    if(display->color_depth == 24)
    1b70:	e0800517 	ldw	r2,20(fp)
    1b74:	10800417 	ldw	r2,16(r2)
    1b78:	10800618 	cmpnei	r2,r2,24
    1b7c:	1000261e 	bne	r2,zero,1c18 <vid_copy_line_to_frame_buffer+0x28c>
    {
      temp_line = malloc(bytes_in_line);
    1b80:	e13ff717 	ldw	r4,-36(fp)
    1b84:	000a7680 	call	a768 <malloc>
    1b88:	e0bffb15 	stw	r2,-20(fp)
      while(index_16 < num_pixels )
    1b8c:	00001606 	br	1be8 <vid_copy_line_to_frame_buffer+0x25c>
      {
        vid_color_convert16_24((short)*(buffer + index_16), (char*)(temp_line + index_24));
    1b90:	e0bff917 	ldw	r2,-28(fp)
    1b94:	1007883a 	mov	r3,r2
    1b98:	e0bffe17 	ldw	r2,-8(fp)
    1b9c:	1885883a 	add	r2,r3,r2
    1ba0:	10800003 	ldbu	r2,0(r2)
    1ba4:	10803fcc 	andi	r2,r2,255
    1ba8:	1080201c 	xori	r2,r2,128
    1bac:	10bfe004 	addi	r2,r2,-128
    1bb0:	113fffcc 	andi	r4,r2,65535
    1bb4:	e0bffa17 	ldw	r2,-24(fp)
    1bb8:	1085883a 	add	r2,r2,r2
    1bbc:	1007883a 	mov	r3,r2
    1bc0:	e0bffb17 	ldw	r2,-20(fp)
    1bc4:	1885883a 	add	r2,r3,r2
    1bc8:	100b883a 	mov	r5,r2
    1bcc:	00019240 	call	1924 <vid_color_convert16_24>
        index_16++;
    1bd0:	e0bff917 	ldw	r2,-28(fp)
    1bd4:	10800044 	addi	r2,r2,1
    1bd8:	e0bff915 	stw	r2,-28(fp)
        index_24+=3;
    1bdc:	e0bffa17 	ldw	r2,-24(fp)
    1be0:	108000c4 	addi	r2,r2,3
    1be4:	e0bffa15 	stw	r2,-24(fp)
  else if(source_color_depth == 16)
  {
    if(display->color_depth == 24)
    {
      temp_line = malloc(bytes_in_line);
      while(index_16 < num_pixels )
    1be8:	e0fff917 	ldw	r3,-28(fp)
    1bec:	e0bfff17 	ldw	r2,-4(fp)
    1bf0:	18bfe716 	blt	r3,r2,1b90 <vid_copy_line_to_frame_buffer+0x204>
      {
        vid_color_convert16_24((short)*(buffer + index_16), (char*)(temp_line + index_24));
        index_16++;
        index_24+=3;
      }
      memcpy( (void*)dest_addr, (void*)temp_line, bytes_in_line );
    1bf4:	e0bff817 	ldw	r2,-32(fp)
    1bf8:	e0fffb17 	ldw	r3,-20(fp)
    1bfc:	1009883a 	mov	r4,r2
    1c00:	180b883a 	mov	r5,r3
    1c04:	e1bff717 	ldw	r6,-36(fp)
    1c08:	000aebc0 	call	aebc <memcpy>
      free(temp_line);
    1c0c:	e13ffb17 	ldw	r4,-20(fp)
    1c10:	000a7540 	call	a754 <free>
    1c14:	00000a06 	br	1c40 <vid_copy_line_to_frame_buffer+0x2b4>
      
    }
    else if(display->color_depth == 16)
    1c18:	e0800517 	ldw	r2,20(fp)
    1c1c:	10800417 	ldw	r2,16(r2)
    1c20:	10800418 	cmpnei	r2,r2,16
    1c24:	1000061e 	bne	r2,zero,1c40 <vid_copy_line_to_frame_buffer+0x2b4>
    {
      memcpy( (void*)dest_addr, (void*)buffer, bytes_in_line );
    1c28:	e0bff817 	ldw	r2,-32(fp)
    1c2c:	e0fffe17 	ldw	r3,-8(fp)
    1c30:	1009883a 	mov	r4,r2
    1c34:	180b883a 	mov	r5,r3
    1c38:	e1bff717 	ldw	r6,-36(fp)
    1c3c:	000aebc0 	call	aebc <memcpy>
    }
  }
  return(0);
    1c40:	0005883a 	mov	r2,zero
}
    1c44:	e037883a 	mov	sp,fp
    1c48:	dfc00317 	ldw	ra,12(sp)
    1c4c:	df000217 	ldw	fp,8(sp)
    1c50:	dc400117 	ldw	r17,4(sp)
    1c54:	dc000017 	ldw	r16,0(sp)
    1c58:	dec00404 	addi	sp,sp,16
    1c5c:	f800283a 	ret

00001c60 <vid_draw_sloped_line>:
                           unsigned short horiz_end, 
                           unsigned short vert_end, 
                           unsigned short width, 
                           int color, 
                           alt_video_display* display)
{
    1c60:	deffef04 	addi	sp,sp,-68
    1c64:	dfc01015 	stw	ra,64(sp)
    1c68:	df000f15 	stw	fp,60(sp)
    1c6c:	df000f04 	addi	fp,sp,60
    1c70:	e0800217 	ldw	r2,8(fp)
    1c74:	e13ffb0d 	sth	r4,-20(fp)
    1c78:	e17ffc0d 	sth	r5,-16(fp)
    1c7c:	e1bffd0d 	sth	r6,-12(fp)
    1c80:	e1fffe0d 	sth	r7,-8(fp)
    1c84:	e0bfff0d 	sth	r2,-4(fp)
  // Find the vertical and horizontal distance between the two points
  int horiz_delta = abs(horiz_end-horiz_start);
    1c88:	e0fffd0b 	ldhu	r3,-12(fp)
    1c8c:	e0bffb0b 	ldhu	r2,-20(fp)
    1c90:	1885c83a 	sub	r2,r3,r2
    1c94:	e0bffa15 	stw	r2,-24(fp)
    1c98:	e0bffa17 	ldw	r2,-24(fp)
    1c9c:	1004403a 	cmpge	r2,r2,zero
    1ca0:	1000031e 	bne	r2,zero,1cb0 <vid_draw_sloped_line+0x50>
    1ca4:	e0bffa17 	ldw	r2,-24(fp)
    1ca8:	0085c83a 	sub	r2,zero,r2
    1cac:	e0bffa15 	stw	r2,-24(fp)
  int vert_delta = abs(vert_end-vert_start);
    1cb0:	e0fffe0b 	ldhu	r3,-8(fp)
    1cb4:	e0bffc0b 	ldhu	r2,-16(fp)
    1cb8:	1885c83a 	sub	r2,r3,r2
    1cbc:	e0bff915 	stw	r2,-28(fp)
    1cc0:	e0bff917 	ldw	r2,-28(fp)
    1cc4:	1004403a 	cmpge	r2,r2,zero
    1cc8:	1000031e 	bne	r2,zero,1cd8 <vid_draw_sloped_line+0x78>
    1ccc:	e0bff917 	ldw	r2,-28(fp)
    1cd0:	0085c83a 	sub	r2,zero,r2
    1cd4:	e0bff915 	stw	r2,-28(fp)

  // Find out what direction we are going
  int horiz_incr, vert_incr;
  if (horiz_start > horiz_end) { horiz_incr=-1; } else { horiz_incr=1; }
    1cd8:	e0fffb0b 	ldhu	r3,-20(fp)
    1cdc:	e0bffd0b 	ldhu	r2,-12(fp)
    1ce0:	10c0032e 	bgeu	r2,r3,1cf0 <vid_draw_sloped_line+0x90>
    1ce4:	00bfffc4 	movi	r2,-1
    1ce8:	e0bff815 	stw	r2,-32(fp)
    1cec:	00000206 	br	1cf8 <vid_draw_sloped_line+0x98>
    1cf0:	00800044 	movi	r2,1
    1cf4:	e0bff815 	stw	r2,-32(fp)
  if (vert_start > vert_end) { vert_incr=-1; } else { vert_incr=1; }
    1cf8:	e0fffc0b 	ldhu	r3,-16(fp)
    1cfc:	e0bffe0b 	ldhu	r2,-8(fp)
    1d00:	10c0032e 	bgeu	r2,r3,1d10 <vid_draw_sloped_line+0xb0>
    1d04:	00bfffc4 	movi	r2,-1
    1d08:	e0bff715 	stw	r2,-36(fp)
    1d0c:	00000206 	br	1d18 <vid_draw_sloped_line+0xb8>
    1d10:	00800044 	movi	r2,1
    1d14:	e0bff715 	stw	r2,-36(fp)

  // Find out which axis is always incremented when drawing the line
  // If it's the horizontal axis
  if (horiz_delta >= vert_delta) {
    1d18:	e0fffa17 	ldw	r3,-24(fp)
    1d1c:	e0bff917 	ldw	r2,-28(fp)
    1d20:	18803516 	blt	r3,r2,1df8 <vid_draw_sloped_line+0x198>
    int dPr   = vert_delta<<1;
    1d24:	e0bff917 	ldw	r2,-28(fp)
    1d28:	1085883a 	add	r2,r2,r2
    1d2c:	e0bff615 	stw	r2,-40(fp)
    int dPru  = dPr - (horiz_delta<<1);
    1d30:	e0bffa17 	ldw	r2,-24(fp)
    1d34:	1085883a 	add	r2,r2,r2
    1d38:	1007883a 	mov	r3,r2
    1d3c:	e0bff617 	ldw	r2,-40(fp)
    1d40:	10c5c83a 	sub	r2,r2,r3
    1d44:	e0bff515 	stw	r2,-44(fp)
    int P     = dPr - horiz_delta;
    1d48:	e0fff617 	ldw	r3,-40(fp)
    1d4c:	e0bffa17 	ldw	r2,-24(fp)
    1d50:	1885c83a 	sub	r2,r3,r2
    1d54:	e0bff415 	stw	r2,-48(fp)

    // Process the line, one horizontal point at at time
    for (; horiz_delta >= 0; horiz_delta--) {
    1d58:	00002306 	br	1de8 <vid_draw_sloped_line+0x188>
      // plot the pixel
      vid_set_pixel(horiz_start, vert_start, color, display);
    1d5c:	e13ffb0b 	ldhu	r4,-20(fp)
    1d60:	e17ffc0b 	ldhu	r5,-16(fp)
    1d64:	e1800317 	ldw	r6,12(fp)
    1d68:	e1c00417 	ldw	r7,16(fp)
    1d6c:	00010b80 	call	10b8 <vid_set_pixel>
      // If we're moving both up and right
      if (P > 0) {
    1d70:	e0bff417 	ldw	r2,-48(fp)
    1d74:	10800050 	cmplti	r2,r2,1
    1d78:	10000f1e 	bne	r2,zero,1db8 <vid_draw_sloped_line+0x158>
        horiz_start+=horiz_incr;
    1d7c:	e0bff817 	ldw	r2,-32(fp)
    1d80:	1007883a 	mov	r3,r2
    1d84:	e0bffb0b 	ldhu	r2,-20(fp)
    1d88:	10c5883a 	add	r2,r2,r3
    1d8c:	e0bffb0d 	sth	r2,-20(fp)
        vert_start+=vert_incr;
    1d90:	e0bff717 	ldw	r2,-36(fp)
    1d94:	1007883a 	mov	r3,r2
    1d98:	e0bffc0b 	ldhu	r2,-16(fp)
    1d9c:	10c5883a 	add	r2,r2,r3
    1da0:	e0bffc0d 	sth	r2,-16(fp)
        P+=dPru;
    1da4:	e0fff417 	ldw	r3,-48(fp)
    1da8:	e0bff517 	ldw	r2,-44(fp)
    1dac:	1885883a 	add	r2,r3,r2
    1db0:	e0bff415 	stw	r2,-48(fp)
    1db4:	00000906 	br	1ddc <vid_draw_sloped_line+0x17c>
      } else {
        horiz_start+=horiz_incr;
    1db8:	e0bff817 	ldw	r2,-32(fp)
    1dbc:	1007883a 	mov	r3,r2
    1dc0:	e0bffb0b 	ldhu	r2,-20(fp)
    1dc4:	10c5883a 	add	r2,r2,r3
    1dc8:	e0bffb0d 	sth	r2,-20(fp)
        P+=dPr;
    1dcc:	e0fff417 	ldw	r3,-48(fp)
    1dd0:	e0bff617 	ldw	r2,-40(fp)
    1dd4:	1885883a 	add	r2,r3,r2
    1dd8:	e0bff415 	stw	r2,-48(fp)
    int dPr   = vert_delta<<1;
    int dPru  = dPr - (horiz_delta<<1);
    int P     = dPr - horiz_delta;

    // Process the line, one horizontal point at at time
    for (; horiz_delta >= 0; horiz_delta--) {
    1ddc:	e0bffa17 	ldw	r2,-24(fp)
    1de0:	10bfffc4 	addi	r2,r2,-1
    1de4:	e0bffa15 	stw	r2,-24(fp)
    1de8:	e0bffa17 	ldw	r2,-24(fp)
    1dec:	1004403a 	cmpge	r2,r2,zero
    1df0:	103fda1e 	bne	r2,zero,1d5c <vid_draw_sloped_line+0xfc>
    1df4:	00003406 	br	1ec8 <vid_draw_sloped_line+0x268>
        P+=dPr;
      }
    }
  // If it's the vertical axis
  } else {
    int dPr   = horiz_delta<<1;
    1df8:	e0bffa17 	ldw	r2,-24(fp)
    1dfc:	1085883a 	add	r2,r2,r2
    1e00:	e0bff315 	stw	r2,-52(fp)
    int dPru  = dPr - (vert_delta<<1);
    1e04:	e0bff917 	ldw	r2,-28(fp)
    1e08:	1085883a 	add	r2,r2,r2
    1e0c:	1007883a 	mov	r3,r2
    1e10:	e0bff317 	ldw	r2,-52(fp)
    1e14:	10c5c83a 	sub	r2,r2,r3
    1e18:	e0bff215 	stw	r2,-56(fp)
    int P     = dPr - vert_delta;
    1e1c:	e0fff317 	ldw	r3,-52(fp)
    1e20:	e0bff917 	ldw	r2,-28(fp)
    1e24:	1885c83a 	sub	r2,r3,r2
    1e28:	e0bff115 	stw	r2,-60(fp)

    // Process the line, one vertical point at at time
    for (; vert_delta>=0; vert_delta--) {
    1e2c:	00002306 	br	1ebc <vid_draw_sloped_line+0x25c>
      // plot the pixel
      vid_set_pixel(horiz_start, vert_start, color, display);
    1e30:	e13ffb0b 	ldhu	r4,-20(fp)
    1e34:	e17ffc0b 	ldhu	r5,-16(fp)
    1e38:	e1800317 	ldw	r6,12(fp)
    1e3c:	e1c00417 	ldw	r7,16(fp)
    1e40:	00010b80 	call	10b8 <vid_set_pixel>
      // If we're moving both up and right
      if (P > 0) {
    1e44:	e0bff117 	ldw	r2,-60(fp)
    1e48:	10800050 	cmplti	r2,r2,1
    1e4c:	10000f1e 	bne	r2,zero,1e8c <vid_draw_sloped_line+0x22c>
        horiz_start+=horiz_incr;
    1e50:	e0bff817 	ldw	r2,-32(fp)
    1e54:	1007883a 	mov	r3,r2
    1e58:	e0bffb0b 	ldhu	r2,-20(fp)
    1e5c:	10c5883a 	add	r2,r2,r3
    1e60:	e0bffb0d 	sth	r2,-20(fp)
        vert_start+=vert_incr;
    1e64:	e0bff717 	ldw	r2,-36(fp)
    1e68:	1007883a 	mov	r3,r2
    1e6c:	e0bffc0b 	ldhu	r2,-16(fp)
    1e70:	10c5883a 	add	r2,r2,r3
    1e74:	e0bffc0d 	sth	r2,-16(fp)
        P+=dPru;
    1e78:	e0fff117 	ldw	r3,-60(fp)
    1e7c:	e0bff217 	ldw	r2,-56(fp)
    1e80:	1885883a 	add	r2,r3,r2
    1e84:	e0bff115 	stw	r2,-60(fp)
    1e88:	00000906 	br	1eb0 <vid_draw_sloped_line+0x250>
      } else {
        vert_start+=vert_incr;
    1e8c:	e0bff717 	ldw	r2,-36(fp)
    1e90:	1007883a 	mov	r3,r2
    1e94:	e0bffc0b 	ldhu	r2,-16(fp)
    1e98:	10c5883a 	add	r2,r2,r3
    1e9c:	e0bffc0d 	sth	r2,-16(fp)
        P+=dPr;
    1ea0:	e0fff117 	ldw	r3,-60(fp)
    1ea4:	e0bff317 	ldw	r2,-52(fp)
    1ea8:	1885883a 	add	r2,r3,r2
    1eac:	e0bff115 	stw	r2,-60(fp)
    int dPr   = horiz_delta<<1;
    int dPru  = dPr - (vert_delta<<1);
    int P     = dPr - vert_delta;

    // Process the line, one vertical point at at time
    for (; vert_delta>=0; vert_delta--) {
    1eb0:	e0bff917 	ldw	r2,-28(fp)
    1eb4:	10bfffc4 	addi	r2,r2,-1
    1eb8:	e0bff915 	stw	r2,-28(fp)
    1ebc:	e0bff917 	ldw	r2,-28(fp)
    1ec0:	1004403a 	cmpge	r2,r2,zero
    1ec4:	103fda1e 	bne	r2,zero,1e30 <vid_draw_sloped_line+0x1d0>
        vert_start+=vert_incr;
        P+=dPr;
      }
    }
  }
}
    1ec8:	e037883a 	mov	sp,fp
    1ecc:	dfc00117 	ldw	ra,4(sp)
    1ed0:	df000017 	ldw	fp,0(sp)
    1ed4:	dec00204 	addi	sp,sp,8
    1ed8:	f800283a 	ret

00001edc <vid_draw_circle>:
*  tells the function whether or not to fill in the box.  1 = fill,
*  0 = do not fill.
*
******************************************************************/
int vid_draw_circle(int Hcenter, int Vcenter, int radius, int color, char fill, alt_video_display* display)
{
    1edc:	defff004 	addi	sp,sp,-64
    1ee0:	dfc00f15 	stw	ra,60(sp)
    1ee4:	df000e15 	stw	fp,56(sp)
    1ee8:	df000e04 	addi	fp,sp,56
    1eec:	e13ffa15 	stw	r4,-24(fp)
    1ef0:	e17ffb15 	stw	r5,-20(fp)
    1ef4:	e1bffc15 	stw	r6,-16(fp)
    1ef8:	e1fffd15 	stw	r7,-12(fp)
    1efc:	e0800217 	ldw	r2,8(fp)
    1f00:	e0bffe05 	stb	r2,-8(fp)
  int x = 0;
    1f04:	e03ff915 	stw	zero,-28(fp)
  int y = radius;
    1f08:	e0bffc17 	ldw	r2,-16(fp)
    1f0c:	e0bff815 	stw	r2,-32(fp)
  int p = (5 - radius*4)/4;
    1f10:	e0bffc17 	ldw	r2,-16(fp)
    1f14:	1085883a 	add	r2,r2,r2
    1f18:	1085883a 	add	r2,r2,r2
    1f1c:	1007883a 	mov	r3,r2
    1f20:	00800144 	movi	r2,5
    1f24:	10c5c83a 	sub	r2,r2,r3
    1f28:	e0bfff15 	stw	r2,-4(fp)
    1f2c:	e0ffff17 	ldw	r3,-4(fp)
    1f30:	1804403a 	cmpge	r2,r3,zero
    1f34:	1000031e 	bne	r2,zero,1f44 <vid_draw_circle+0x68>
    1f38:	e0bfff17 	ldw	r2,-4(fp)
    1f3c:	108000c4 	addi	r2,r2,3
    1f40:	e0bfff15 	stw	r2,-4(fp)
    1f44:	e0ffff17 	ldw	r3,-4(fp)
    1f48:	1805d0ba 	srai	r2,r3,2
    1f4c:	e0bff715 	stw	r2,-36(fp)

  // Start the circle with the top, bottom, left, and right pixels.
  vid_round_corner_points(Hcenter, Vcenter, x, y, 0, 0, color, fill, display);
    1f50:	e0fffe07 	ldb	r3,-8(fp)
    1f54:	d8000015 	stw	zero,0(sp)
    1f58:	d8000115 	stw	zero,4(sp)
    1f5c:	e0bffd17 	ldw	r2,-12(fp)
    1f60:	d8800215 	stw	r2,8(sp)
    1f64:	d8c00315 	stw	r3,12(sp)
    1f68:	e0800317 	ldw	r2,12(fp)
    1f6c:	d8800415 	stw	r2,16(sp)
    1f70:	e13ffa17 	ldw	r4,-24(fp)
    1f74:	e17ffb17 	ldw	r5,-20(fp)
    1f78:	e1bff917 	ldw	r6,-28(fp)
    1f7c:	e1fff817 	ldw	r7,-32(fp)
    1f80:	00024140 	call	2414 <vid_round_corner_points>

  // Now start moving out from those points until the lines meet
  while (x < y) {
    1f84:	00002706 	br	2024 <vid_draw_circle+0x148>
    x++;
    1f88:	e0bff917 	ldw	r2,-28(fp)
    1f8c:	10800044 	addi	r2,r2,1
    1f90:	e0bff915 	stw	r2,-28(fp)
    if (p < 0) {
    1f94:	e0bff717 	ldw	r2,-36(fp)
    1f98:	1004403a 	cmpge	r2,r2,zero
    1f9c:	1000081e 	bne	r2,zero,1fc0 <vid_draw_circle+0xe4>
      p += 2*x+1;
    1fa0:	e0bff917 	ldw	r2,-28(fp)
    1fa4:	1085883a 	add	r2,r2,r2
    1fa8:	1007883a 	mov	r3,r2
    1fac:	e0bff717 	ldw	r2,-36(fp)
    1fb0:	1885883a 	add	r2,r3,r2
    1fb4:	10800044 	addi	r2,r2,1
    1fb8:	e0bff715 	stw	r2,-36(fp)
    1fbc:	00000c06 	br	1ff0 <vid_draw_circle+0x114>
    } else {
      y--;
    1fc0:	e0bff817 	ldw	r2,-32(fp)
    1fc4:	10bfffc4 	addi	r2,r2,-1
    1fc8:	e0bff815 	stw	r2,-32(fp)
      p += 2*(x-y)+1;
    1fcc:	e0fff917 	ldw	r3,-28(fp)
    1fd0:	e0bff817 	ldw	r2,-32(fp)
    1fd4:	1885c83a 	sub	r2,r3,r2
    1fd8:	1085883a 	add	r2,r2,r2
    1fdc:	1007883a 	mov	r3,r2
    1fe0:	e0bff717 	ldw	r2,-36(fp)
    1fe4:	1885883a 	add	r2,r3,r2
    1fe8:	10800044 	addi	r2,r2,1
    1fec:	e0bff715 	stw	r2,-36(fp)
    }
    vid_round_corner_points(Hcenter, Vcenter, x, y, 0, 0, color, fill, display);
    1ff0:	e0bffe07 	ldb	r2,-8(fp)
    1ff4:	d8000015 	stw	zero,0(sp)
    1ff8:	d8000115 	stw	zero,4(sp)
    1ffc:	e0fffd17 	ldw	r3,-12(fp)
    2000:	d8c00215 	stw	r3,8(sp)
    2004:	d8800315 	stw	r2,12(sp)
    2008:	e0800317 	ldw	r2,12(fp)
    200c:	d8800415 	stw	r2,16(sp)
    2010:	e13ffa17 	ldw	r4,-24(fp)
    2014:	e17ffb17 	ldw	r5,-20(fp)
    2018:	e1bff917 	ldw	r6,-28(fp)
    201c:	e1fff817 	ldw	r7,-32(fp)
    2020:	00024140 	call	2414 <vid_round_corner_points>

  // Start the circle with the top, bottom, left, and right pixels.
  vid_round_corner_points(Hcenter, Vcenter, x, y, 0, 0, color, fill, display);

  // Now start moving out from those points until the lines meet
  while (x < y) {
    2024:	e0fff917 	ldw	r3,-28(fp)
    2028:	e0bff817 	ldw	r2,-32(fp)
    202c:	18bfd616 	blt	r3,r2,1f88 <vid_draw_circle+0xac>
      y--;
      p += 2*(x-y)+1;
    }
    vid_round_corner_points(Hcenter, Vcenter, x, y, 0, 0, color, fill, display);
  }
  return (0);
    2030:	0005883a 	mov	r2,zero
}
    2034:	e037883a 	mov	sp,fp
    2038:	dfc00117 	ldw	ra,4(sp)
    203c:	df000017 	ldw	fp,0(sp)
    2040:	dec00204 	addi	sp,sp,8
    2044:	f800283a 	ret

00002048 <vid_draw_round_corner_box>:
*  to fill in the box.  1 = fill, 0 = do not fill.
*
******************************************************************/
int vid_draw_round_corner_box ( int horiz_start, int vert_start, int horiz_end, int vert_end, 
                                int radius, int color, int fill, alt_video_display* display)
{
    2048:	deffeb04 	addi	sp,sp,-84
    204c:	dfc01415 	stw	ra,80(sp)
    2050:	df001315 	stw	fp,76(sp)
    2054:	df001304 	addi	fp,sp,76
    2058:	e13ffb15 	stw	r4,-20(fp)
    205c:	e17ffc15 	stw	r5,-16(fp)
    2060:	e1bffd15 	stw	r6,-12(fp)
    2064:	e1fffe15 	stw	r7,-8(fp)
  int diameter;
  int temp;
  unsigned int width, height, straight_width, straight_height;

  // Make sure the start point us up and left of the end point
  if( horiz_start > horiz_end )
    2068:	e0fffb17 	ldw	r3,-20(fp)
    206c:	e0bffd17 	ldw	r2,-12(fp)
    2070:	10c0060e 	bge	r2,r3,208c <vid_draw_round_corner_box+0x44>
  {
    temp = horiz_end;
    2074:	e0bffd17 	ldw	r2,-12(fp)
    2078:	e0bff615 	stw	r2,-40(fp)
    horiz_end = horiz_start;
    207c:	e0bffb17 	ldw	r2,-20(fp)
    2080:	e0bffd15 	stw	r2,-12(fp)
    horiz_start = temp;
    2084:	e0bff617 	ldw	r2,-40(fp)
    2088:	e0bffb15 	stw	r2,-20(fp)
  }
  
  if( vert_start > vert_end )
    208c:	e0fffc17 	ldw	r3,-16(fp)
    2090:	e0bffe17 	ldw	r2,-8(fp)
    2094:	10c0060e 	bge	r2,r3,20b0 <vid_draw_round_corner_box+0x68>
  {
    temp = vert_end;
    2098:	e0bffe17 	ldw	r2,-8(fp)
    209c:	e0bff615 	stw	r2,-40(fp)
    vert_end = vert_start;
    20a0:	e0bffc17 	ldw	r2,-16(fp)
    20a4:	e0bffe15 	stw	r2,-8(fp)
    vert_start = temp;
    20a8:	e0bff617 	ldw	r2,-40(fp)
    20ac:	e0bffc15 	stw	r2,-16(fp)
  }
  
  // These are the overall dimensions of the box
  width = horiz_end - horiz_start;
    20b0:	e0fffd17 	ldw	r3,-12(fp)
    20b4:	e0bffb17 	ldw	r2,-20(fp)
    20b8:	1885c83a 	sub	r2,r3,r2
    20bc:	e0bff515 	stw	r2,-44(fp)
  height = vert_end - vert_start;
    20c0:	e0fffe17 	ldw	r3,-8(fp)
    20c4:	e0bffc17 	ldw	r2,-16(fp)
    20c8:	1885c83a 	sub	r2,r3,r2
    20cc:	e0bff415 	stw	r2,-48(fp)

  // Make sure our radius isnt more than the shortest dimension 
  // of the box, or it'll screw us all up
  if( radius > ( width / 2 ))
    20d0:	e0c00217 	ldw	r3,8(fp)
    20d4:	e0bff517 	ldw	r2,-44(fp)
    20d8:	1004d07a 	srli	r2,r2,1
    20dc:	10c0032e 	bgeu	r2,r3,20ec <vid_draw_round_corner_box+0xa4>
    radius = width / 2;
    20e0:	e0bff517 	ldw	r2,-44(fp)
    20e4:	1004d07a 	srli	r2,r2,1
    20e8:	e0800215 	stw	r2,8(fp)

  if( radius > ( height / 2 ))
    20ec:	e0800217 	ldw	r2,8(fp)
    20f0:	e0fff417 	ldw	r3,-48(fp)
    20f4:	1806d07a 	srli	r3,r3,1
    20f8:	1880032e 	bgeu	r3,r2,2108 <vid_draw_round_corner_box+0xc0>
    radius = height / 2;
    20fc:	e0bff417 	ldw	r2,-48(fp)
    2100:	1004d07a 	srli	r2,r2,1
    2104:	e0800215 	stw	r2,8(fp)
  
  // We use the diameter for some calculations, so we'll pre calculate it here.
  diameter = ( radius * 2 );
    2108:	e0800217 	ldw	r2,8(fp)
    210c:	1085883a 	add	r2,r2,r2
    2110:	e0bff715 	stw	r2,-36(fp)

  // These are the lengths of the straight portions of the box edges.
  straight_width = width - diameter;
    2114:	e0fff717 	ldw	r3,-36(fp)
    2118:	e0bff517 	ldw	r2,-44(fp)
    211c:	10c5c83a 	sub	r2,r2,r3
    2120:	e0bff315 	stw	r2,-52(fp)
  straight_height = height - diameter;
    2124:	e0fff717 	ldw	r3,-36(fp)
    2128:	e0bff417 	ldw	r2,-48(fp)
    212c:	10c5c83a 	sub	r2,r2,r3
    2130:	e0bff215 	stw	r2,-56(fp)

  x = 0;
    2134:	e03ffa15 	stw	zero,-24(fp)
  y = radius;
    2138:	e0800217 	ldw	r2,8(fp)
    213c:	e0bff915 	stw	r2,-28(fp)
  p = (5 - radius*4)/4;
    2140:	e0800217 	ldw	r2,8(fp)
    2144:	1085883a 	add	r2,r2,r2
    2148:	1085883a 	add	r2,r2,r2
    214c:	1007883a 	mov	r3,r2
    2150:	00800144 	movi	r2,5
    2154:	10c5c83a 	sub	r2,r2,r3
    2158:	e0bfff15 	stw	r2,-4(fp)
    215c:	e0ffff17 	ldw	r3,-4(fp)
    2160:	1804403a 	cmpge	r2,r3,zero
    2164:	1000031e 	bne	r2,zero,2174 <vid_draw_round_corner_box+0x12c>
    2168:	e0bfff17 	ldw	r2,-4(fp)
    216c:	108000c4 	addi	r2,r2,3
    2170:	e0bfff15 	stw	r2,-4(fp)
    2174:	e0ffff17 	ldw	r3,-4(fp)
    2178:	1805d0ba 	srai	r2,r3,2
    217c:	e0bff815 	stw	r2,-32(fp)
   
  // Start the corners with the top, bottom, left, and right pixels.
  vid_round_corner_points( horiz_start + radius, vert_start + radius, x, y, 
    2180:	e0fffb17 	ldw	r3,-20(fp)
    2184:	e0800217 	ldw	r2,8(fp)
    2188:	188d883a 	add	r6,r3,r2
    218c:	e0fffc17 	ldw	r3,-16(fp)
    2190:	e0800217 	ldw	r2,8(fp)
    2194:	188f883a 	add	r7,r3,r2
    2198:	e23ffa17 	ldw	r8,-24(fp)
    219c:	e27ff917 	ldw	r9,-28(fp)
    21a0:	e0fff317 	ldw	r3,-52(fp)
    21a4:	e13ff217 	ldw	r4,-56(fp)
    21a8:	e0800417 	ldw	r2,16(fp)
    21ac:	11403fcc 	andi	r5,r2,255
    21b0:	2940201c 	xori	r5,r5,128
    21b4:	297fe004 	addi	r5,r5,-128
    21b8:	d8c00015 	stw	r3,0(sp)
    21bc:	d9000115 	stw	r4,4(sp)
    21c0:	e0800317 	ldw	r2,12(fp)
    21c4:	d8800215 	stw	r2,8(sp)
    21c8:	d9400315 	stw	r5,12(sp)
    21cc:	e0800517 	ldw	r2,20(fp)
    21d0:	d8800415 	stw	r2,16(sp)
    21d4:	3009883a 	mov	r4,r6
    21d8:	380b883a 	mov	r5,r7
    21dc:	400d883a 	mov	r6,r8
    21e0:	480f883a 	mov	r7,r9
    21e4:	00024140 	call	2414 <vid_round_corner_points>
                           straight_width, straight_height, color, fill, display );
  
  // Now start moving out from those points until the lines meet
  while (x < y) {
    21e8:	00003406 	br	22bc <vid_draw_round_corner_box+0x274>
    x++;
    21ec:	e0bffa17 	ldw	r2,-24(fp)
    21f0:	10800044 	addi	r2,r2,1
    21f4:	e0bffa15 	stw	r2,-24(fp)
    if (p < 0) {
    21f8:	e0bff817 	ldw	r2,-32(fp)
    21fc:	1004403a 	cmpge	r2,r2,zero
    2200:	1000081e 	bne	r2,zero,2224 <vid_draw_round_corner_box+0x1dc>
      p += 2*x+1;
    2204:	e0bffa17 	ldw	r2,-24(fp)
    2208:	1085883a 	add	r2,r2,r2
    220c:	1007883a 	mov	r3,r2
    2210:	e0bff817 	ldw	r2,-32(fp)
    2214:	1885883a 	add	r2,r3,r2
    2218:	10800044 	addi	r2,r2,1
    221c:	e0bff815 	stw	r2,-32(fp)
    2220:	00000c06 	br	2254 <vid_draw_round_corner_box+0x20c>
    } else {
      y--;
    2224:	e0bff917 	ldw	r2,-28(fp)
    2228:	10bfffc4 	addi	r2,r2,-1
    222c:	e0bff915 	stw	r2,-28(fp)
      p += 2*(x-y)+1;
    2230:	e0fffa17 	ldw	r3,-24(fp)
    2234:	e0bff917 	ldw	r2,-28(fp)
    2238:	1885c83a 	sub	r2,r3,r2
    223c:	1085883a 	add	r2,r2,r2
    2240:	1007883a 	mov	r3,r2
    2244:	e0bff817 	ldw	r2,-32(fp)
    2248:	1885883a 	add	r2,r3,r2
    224c:	10800044 	addi	r2,r2,1
    2250:	e0bff815 	stw	r2,-32(fp)
    }
    vid_round_corner_points( horiz_start + radius, vert_start + radius, x, y, 
    2254:	e0fffb17 	ldw	r3,-20(fp)
    2258:	e0800217 	ldw	r2,8(fp)
    225c:	188d883a 	add	r6,r3,r2
    2260:	e0fffc17 	ldw	r3,-16(fp)
    2264:	e0800217 	ldw	r2,8(fp)
    2268:	188f883a 	add	r7,r3,r2
    226c:	e23ffa17 	ldw	r8,-24(fp)
    2270:	e27ff917 	ldw	r9,-28(fp)
    2274:	e0fff317 	ldw	r3,-52(fp)
    2278:	e13ff217 	ldw	r4,-56(fp)
    227c:	e0800417 	ldw	r2,16(fp)
    2280:	11403fcc 	andi	r5,r2,255
    2284:	2940201c 	xori	r5,r5,128
    2288:	297fe004 	addi	r5,r5,-128
    228c:	d8c00015 	stw	r3,0(sp)
    2290:	d9000115 	stw	r4,4(sp)
    2294:	e0800317 	ldw	r2,12(fp)
    2298:	d8800215 	stw	r2,8(sp)
    229c:	d9400315 	stw	r5,12(sp)
    22a0:	e0800517 	ldw	r2,20(fp)
    22a4:	d8800415 	stw	r2,16(sp)
    22a8:	3009883a 	mov	r4,r6
    22ac:	380b883a 	mov	r5,r7
    22b0:	400d883a 	mov	r6,r8
    22b4:	480f883a 	mov	r7,r9
    22b8:	00024140 	call	2414 <vid_round_corner_points>
  // Start the corners with the top, bottom, left, and right pixels.
  vid_round_corner_points( horiz_start + radius, vert_start + radius, x, y, 
                           straight_width, straight_height, color, fill, display );
  
  // Now start moving out from those points until the lines meet
  while (x < y) {
    22bc:	e0fffa17 	ldw	r3,-24(fp)
    22c0:	e0bff917 	ldw	r2,-28(fp)
    22c4:	18bfc936 	bltu	r3,r2,21ec <vid_draw_round_corner_box+0x1a4>
    vid_round_corner_points( horiz_start + radius, vert_start + radius, x, y, 
                             straight_width, straight_height, color, fill, display);
  }

  // If we want to fill in our box
  if (fill) {
    22c8:	e0800417 	ldw	r2,16(fp)
    22cc:	1005003a 	cmpeq	r2,r2,zero
    22d0:	10000e1e 	bne	r2,zero,230c <vid_draw_round_corner_box+0x2c4>
     vid_paint_block (horiz_start, vert_start + radius, horiz_end, vert_end - radius, color, display);
    22d4:	e0fffc17 	ldw	r3,-16(fp)
    22d8:	e0800217 	ldw	r2,8(fp)
    22dc:	188b883a 	add	r5,r3,r2
    22e0:	e0fffe17 	ldw	r3,-8(fp)
    22e4:	e0800217 	ldw	r2,8(fp)
    22e8:	188fc83a 	sub	r7,r3,r2
    22ec:	e0800317 	ldw	r2,12(fp)
    22f0:	d8800015 	stw	r2,0(sp)
    22f4:	e0800517 	ldw	r2,20(fp)
    22f8:	d8800115 	stw	r2,4(sp)
    22fc:	e13ffb17 	ldw	r4,-20(fp)
    2300:	e1bffd17 	ldw	r6,-12(fp)
    2304:	00012c00 	call	12c0 <vid_paint_block>
    2308:	00003c06 	br	23fc <vid_draw_round_corner_box+0x3b4>
  // If we're not filling in the box, just draw four lines.
  } else {
    vid_draw_line(horiz_start, vert_start + radius, horiz_start, vert_end - radius , 1, color, display); //left
    230c:	e0fffc17 	ldw	r3,-16(fp)
    2310:	e0800217 	ldw	r2,8(fp)
    2314:	188b883a 	add	r5,r3,r2
    2318:	e0fffe17 	ldw	r3,-8(fp)
    231c:	e0800217 	ldw	r2,8(fp)
    2320:	188fc83a 	sub	r7,r3,r2
    2324:	00800044 	movi	r2,1
    2328:	d8800015 	stw	r2,0(sp)
    232c:	e0800317 	ldw	r2,12(fp)
    2330:	d8800115 	stw	r2,4(sp)
    2334:	e0800517 	ldw	r2,20(fp)
    2338:	d8800215 	stw	r2,8(sp)
    233c:	e13ffb17 	ldw	r4,-20(fp)
    2340:	e1bffb17 	ldw	r6,-20(fp)
    2344:	00006580 	call	658 <vid_draw_line>
    vid_draw_line(horiz_end, vert_start + radius, horiz_end, vert_end - radius , 1, color, display); //right
    2348:	e0fffc17 	ldw	r3,-16(fp)
    234c:	e0800217 	ldw	r2,8(fp)
    2350:	188b883a 	add	r5,r3,r2
    2354:	e0fffe17 	ldw	r3,-8(fp)
    2358:	e0800217 	ldw	r2,8(fp)
    235c:	188fc83a 	sub	r7,r3,r2
    2360:	00800044 	movi	r2,1
    2364:	d8800015 	stw	r2,0(sp)
    2368:	e0800317 	ldw	r2,12(fp)
    236c:	d8800115 	stw	r2,4(sp)
    2370:	e0800517 	ldw	r2,20(fp)
    2374:	d8800215 	stw	r2,8(sp)
    2378:	e13ffd17 	ldw	r4,-12(fp)
    237c:	e1bffd17 	ldw	r6,-12(fp)
    2380:	00006580 	call	658 <vid_draw_line>
    vid_draw_line(horiz_start + radius, vert_start, horiz_end - radius , vert_start, 1, color, display); //top
    2384:	e0fffb17 	ldw	r3,-20(fp)
    2388:	e0800217 	ldw	r2,8(fp)
    238c:	1889883a 	add	r4,r3,r2
    2390:	e0fffd17 	ldw	r3,-12(fp)
    2394:	e0800217 	ldw	r2,8(fp)
    2398:	188dc83a 	sub	r6,r3,r2
    239c:	00800044 	movi	r2,1
    23a0:	d8800015 	stw	r2,0(sp)
    23a4:	e0800317 	ldw	r2,12(fp)
    23a8:	d8800115 	stw	r2,4(sp)
    23ac:	e0800517 	ldw	r2,20(fp)
    23b0:	d8800215 	stw	r2,8(sp)
    23b4:	e17ffc17 	ldw	r5,-16(fp)
    23b8:	e1fffc17 	ldw	r7,-16(fp)
    23bc:	00006580 	call	658 <vid_draw_line>
    vid_draw_line(horiz_start + radius, vert_end, horiz_end - radius , vert_end, 1, color, display); //bottom
    23c0:	e0fffb17 	ldw	r3,-20(fp)
    23c4:	e0800217 	ldw	r2,8(fp)
    23c8:	1889883a 	add	r4,r3,r2
    23cc:	e0fffd17 	ldw	r3,-12(fp)
    23d0:	e0800217 	ldw	r2,8(fp)
    23d4:	188dc83a 	sub	r6,r3,r2
    23d8:	00800044 	movi	r2,1
    23dc:	d8800015 	stw	r2,0(sp)
    23e0:	e0800317 	ldw	r2,12(fp)
    23e4:	d8800115 	stw	r2,4(sp)
    23e8:	e0800517 	ldw	r2,20(fp)
    23ec:	d8800215 	stw	r2,8(sp)
    23f0:	e17ffe17 	ldw	r5,-8(fp)
    23f4:	e1fffe17 	ldw	r7,-8(fp)
    23f8:	00006580 	call	658 <vid_draw_line>
  }

  return (0);
    23fc:	0005883a 	mov	r2,zero
}
    2400:	e037883a 	mov	sp,fp
    2404:	dfc00117 	ldw	ra,4(sp)
    2408:	df000017 	ldw	fp,0(sp)
    240c:	dec00204 	addi	sp,sp,8
    2410:	f800283a 	ret

00002414 <vid_round_corner_points>:
******************************************************************/

void vid_round_corner_points( int cx, int cy, int x, int y, 
                              int straight_width, int straight_height, int color, 
                              char fill, alt_video_display* display)
{
    2414:	defff604 	addi	sp,sp,-40
    2418:	dfc00915 	stw	ra,36(sp)
    241c:	df000815 	stw	fp,32(sp)
    2420:	df000804 	addi	fp,sp,32
    2424:	e13ffb15 	stw	r4,-20(fp)
    2428:	e17ffc15 	stw	r5,-16(fp)
    242c:	e1bffd15 	stw	r6,-12(fp)
    2430:	e1fffe15 	stw	r7,-8(fp)
    2434:	e0800517 	ldw	r2,20(fp)
    2438:	e0bfff05 	stb	r2,-4(fp)

    // If we're directly above, below, left and right of center (0 degrees), plot those 4 pixels
    if (x == 0) {
    243c:	e0bffd17 	ldw	r2,-12(fp)
    2440:	1004c03a 	cmpne	r2,r2,zero
    2444:	1000731e 	bne	r2,zero,2614 <vid_round_corner_points+0x200>
        // bottom
        vid_set_pixel(cx, cy + y + straight_height, color, display);
    2448:	e0fffc17 	ldw	r3,-16(fp)
    244c:	e0bffe17 	ldw	r2,-8(fp)
    2450:	1887883a 	add	r3,r3,r2
    2454:	e0800317 	ldw	r2,12(fp)
    2458:	188b883a 	add	r5,r3,r2
    245c:	e1800417 	ldw	r6,16(fp)
    2460:	e13ffb17 	ldw	r4,-20(fp)
    2464:	e1c00617 	ldw	r7,24(fp)
    2468:	00010b80 	call	10b8 <vid_set_pixel>
        vid_set_pixel(cx + straight_width, cy + y + straight_height, color, display);
    246c:	e0fffb17 	ldw	r3,-20(fp)
    2470:	e0800217 	ldw	r2,8(fp)
    2474:	1889883a 	add	r4,r3,r2
    2478:	e0fffc17 	ldw	r3,-16(fp)
    247c:	e0bffe17 	ldw	r2,-8(fp)
    2480:	1887883a 	add	r3,r3,r2
    2484:	e0800317 	ldw	r2,12(fp)
    2488:	188b883a 	add	r5,r3,r2
    248c:	e1800417 	ldw	r6,16(fp)
    2490:	e1c00617 	ldw	r7,24(fp)
    2494:	00010b80 	call	10b8 <vid_set_pixel>
        // top
        vid_set_pixel(cx, cy - y, color, display);
    2498:	e0fffc17 	ldw	r3,-16(fp)
    249c:	e0bffe17 	ldw	r2,-8(fp)
    24a0:	188bc83a 	sub	r5,r3,r2
    24a4:	e1800417 	ldw	r6,16(fp)
    24a8:	e13ffb17 	ldw	r4,-20(fp)
    24ac:	e1c00617 	ldw	r7,24(fp)
    24b0:	00010b80 	call	10b8 <vid_set_pixel>
        vid_set_pixel(cx + straight_width, cy - y, color, display);
    24b4:	e0fffb17 	ldw	r3,-20(fp)
    24b8:	e0800217 	ldw	r2,8(fp)
    24bc:	1889883a 	add	r4,r3,r2
    24c0:	e0fffc17 	ldw	r3,-16(fp)
    24c4:	e0bffe17 	ldw	r2,-8(fp)
    24c8:	188bc83a 	sub	r5,r3,r2
    24cc:	e1800417 	ldw	r6,16(fp)
    24d0:	e1c00617 	ldw	r7,24(fp)
    24d4:	00010b80 	call	10b8 <vid_set_pixel>

        if(fill) {
    24d8:	e0bfff07 	ldb	r2,-4(fp)
    24dc:	1005003a 	cmpeq	r2,r2,zero
    24e0:	1000271e 	bne	r2,zero,2580 <vid_round_corner_points+0x16c>
          vid_draw_line(cx - y, cy, cx + y + straight_width, cy, 1, color, display);
    24e4:	e0fffb17 	ldw	r3,-20(fp)
    24e8:	e0bffe17 	ldw	r2,-8(fp)
    24ec:	1889c83a 	sub	r4,r3,r2
    24f0:	e0fffb17 	ldw	r3,-20(fp)
    24f4:	e0bffe17 	ldw	r2,-8(fp)
    24f8:	1887883a 	add	r3,r3,r2
    24fc:	e0800217 	ldw	r2,8(fp)
    2500:	188d883a 	add	r6,r3,r2
    2504:	00800044 	movi	r2,1
    2508:	d8800015 	stw	r2,0(sp)
    250c:	e0800417 	ldw	r2,16(fp)
    2510:	d8800115 	stw	r2,4(sp)
    2514:	e0800617 	ldw	r2,24(fp)
    2518:	d8800215 	stw	r2,8(sp)
    251c:	e17ffc17 	ldw	r5,-16(fp)
    2520:	e1fffc17 	ldw	r7,-16(fp)
    2524:	00006580 	call	658 <vid_draw_line>
          vid_draw_line(cx - y, cy + straight_height, cx + y + straight_width, cy + straight_height, 1, color, display);
    2528:	e0fffb17 	ldw	r3,-20(fp)
    252c:	e0bffe17 	ldw	r2,-8(fp)
    2530:	1889c83a 	sub	r4,r3,r2
    2534:	e0fffc17 	ldw	r3,-16(fp)
    2538:	e0800317 	ldw	r2,12(fp)
    253c:	188b883a 	add	r5,r3,r2
    2540:	e0fffb17 	ldw	r3,-20(fp)
    2544:	e0bffe17 	ldw	r2,-8(fp)
    2548:	1887883a 	add	r3,r3,r2
    254c:	e0800217 	ldw	r2,8(fp)
    2550:	188d883a 	add	r6,r3,r2
    2554:	e0fffc17 	ldw	r3,-16(fp)
    2558:	e0800317 	ldw	r2,12(fp)
    255c:	188f883a 	add	r7,r3,r2
    2560:	00800044 	movi	r2,1
    2564:	d8800015 	stw	r2,0(sp)
    2568:	e0800417 	ldw	r2,16(fp)
    256c:	d8800115 	stw	r2,4(sp)
    2570:	e0800617 	ldw	r2,24(fp)
    2574:	d8800215 	stw	r2,8(sp)
    2578:	00006580 	call	658 <vid_draw_line>
    257c:	00014206 	br	2a88 <vid_round_corner_points+0x674>
        } else {
          //right
          vid_set_pixel(cx + y + straight_width, cy, color, display);
    2580:	e0fffb17 	ldw	r3,-20(fp)
    2584:	e0bffe17 	ldw	r2,-8(fp)
    2588:	1887883a 	add	r3,r3,r2
    258c:	e0800217 	ldw	r2,8(fp)
    2590:	1889883a 	add	r4,r3,r2
    2594:	e1800417 	ldw	r6,16(fp)
    2598:	e17ffc17 	ldw	r5,-16(fp)
    259c:	e1c00617 	ldw	r7,24(fp)
    25a0:	00010b80 	call	10b8 <vid_set_pixel>
          vid_set_pixel(cx + y + straight_width, cy + straight_height, color, display);
    25a4:	e0fffb17 	ldw	r3,-20(fp)
    25a8:	e0bffe17 	ldw	r2,-8(fp)
    25ac:	1887883a 	add	r3,r3,r2
    25b0:	e0800217 	ldw	r2,8(fp)
    25b4:	1889883a 	add	r4,r3,r2
    25b8:	e0fffc17 	ldw	r3,-16(fp)
    25bc:	e0800317 	ldw	r2,12(fp)
    25c0:	188b883a 	add	r5,r3,r2
    25c4:	e1800417 	ldw	r6,16(fp)
    25c8:	e1c00617 	ldw	r7,24(fp)
    25cc:	00010b80 	call	10b8 <vid_set_pixel>
          //left
          vid_set_pixel(cx - y, cy, color, display);
    25d0:	e0fffb17 	ldw	r3,-20(fp)
    25d4:	e0bffe17 	ldw	r2,-8(fp)
    25d8:	1889c83a 	sub	r4,r3,r2
    25dc:	e1800417 	ldw	r6,16(fp)
    25e0:	e17ffc17 	ldw	r5,-16(fp)
    25e4:	e1c00617 	ldw	r7,24(fp)
    25e8:	00010b80 	call	10b8 <vid_set_pixel>
          vid_set_pixel(cx - y, cy + straight_height, color, display);
    25ec:	e0fffb17 	ldw	r3,-20(fp)
    25f0:	e0bffe17 	ldw	r2,-8(fp)
    25f4:	1889c83a 	sub	r4,r3,r2
    25f8:	e0fffc17 	ldw	r3,-16(fp)
    25fc:	e0800317 	ldw	r2,12(fp)
    2600:	188b883a 	add	r5,r3,r2
    2604:	e1800417 	ldw	r6,16(fp)
    2608:	e1c00617 	ldw	r7,24(fp)
    260c:	00010b80 	call	10b8 <vid_set_pixel>
    2610:	00011d06 	br	2a88 <vid_round_corner_points+0x674>
        }

    } else
    // If we've reached the 45 degree points (x=y), plot those 4 pixels
    if (x == y) {
    2614:	e0fffd17 	ldw	r3,-12(fp)
    2618:	e0bffe17 	ldw	r2,-8(fp)
    261c:	18805f1e 	bne	r3,r2,279c <vid_round_corner_points+0x388>
      if(fill) {
    2620:	e0bfff07 	ldb	r2,-4(fp)
    2624:	1005003a 	cmpeq	r2,r2,zero
    2628:	10002f1e 	bne	r2,zero,26e8 <vid_round_corner_points+0x2d4>
        vid_draw_line(cx - x, cy + y + straight_height, cx + x + straight_width, cy + y + straight_height, 1, color, display); // lower
    262c:	e0fffb17 	ldw	r3,-20(fp)
    2630:	e0bffd17 	ldw	r2,-12(fp)
    2634:	1889c83a 	sub	r4,r3,r2
    2638:	e0fffc17 	ldw	r3,-16(fp)
    263c:	e0bffe17 	ldw	r2,-8(fp)
    2640:	1887883a 	add	r3,r3,r2
    2644:	e0800317 	ldw	r2,12(fp)
    2648:	188b883a 	add	r5,r3,r2
    264c:	e0fffb17 	ldw	r3,-20(fp)
    2650:	e0bffd17 	ldw	r2,-12(fp)
    2654:	1887883a 	add	r3,r3,r2
    2658:	e0800217 	ldw	r2,8(fp)
    265c:	188d883a 	add	r6,r3,r2
    2660:	e0fffc17 	ldw	r3,-16(fp)
    2664:	e0bffe17 	ldw	r2,-8(fp)
    2668:	1887883a 	add	r3,r3,r2
    266c:	e0800317 	ldw	r2,12(fp)
    2670:	188f883a 	add	r7,r3,r2
    2674:	00800044 	movi	r2,1
    2678:	d8800015 	stw	r2,0(sp)
    267c:	e0800417 	ldw	r2,16(fp)
    2680:	d8800115 	stw	r2,4(sp)
    2684:	e0800617 	ldw	r2,24(fp)
    2688:	d8800215 	stw	r2,8(sp)
    268c:	00006580 	call	658 <vid_draw_line>
        vid_draw_line(cx - x, cy - y, cx + x + straight_width, cy - y, 1, color, display); // upper
    2690:	e0fffb17 	ldw	r3,-20(fp)
    2694:	e0bffd17 	ldw	r2,-12(fp)
    2698:	1889c83a 	sub	r4,r3,r2
    269c:	e0fffc17 	ldw	r3,-16(fp)
    26a0:	e0bffe17 	ldw	r2,-8(fp)
    26a4:	188bc83a 	sub	r5,r3,r2
    26a8:	e0fffb17 	ldw	r3,-20(fp)
    26ac:	e0bffd17 	ldw	r2,-12(fp)
    26b0:	1887883a 	add	r3,r3,r2
    26b4:	e0800217 	ldw	r2,8(fp)
    26b8:	188d883a 	add	r6,r3,r2
    26bc:	e0fffc17 	ldw	r3,-16(fp)
    26c0:	e0bffe17 	ldw	r2,-8(fp)
    26c4:	188fc83a 	sub	r7,r3,r2
    26c8:	00800044 	movi	r2,1
    26cc:	d8800015 	stw	r2,0(sp)
    26d0:	e0800417 	ldw	r2,16(fp)
    26d4:	d8800115 	stw	r2,4(sp)
    26d8:	e0800617 	ldw	r2,24(fp)
    26dc:	d8800215 	stw	r2,8(sp)
    26e0:	00006580 	call	658 <vid_draw_line>
    26e4:	0000e806 	br	2a88 <vid_round_corner_points+0x674>
        
      } else {
        vid_set_pixel(cx + x + straight_width, cy + y + straight_height, color, display); // bottom right
    26e8:	e0fffb17 	ldw	r3,-20(fp)
    26ec:	e0bffd17 	ldw	r2,-12(fp)
    26f0:	1887883a 	add	r3,r3,r2
    26f4:	e0800217 	ldw	r2,8(fp)
    26f8:	1889883a 	add	r4,r3,r2
    26fc:	e0fffc17 	ldw	r3,-16(fp)
    2700:	e0bffe17 	ldw	r2,-8(fp)
    2704:	1887883a 	add	r3,r3,r2
    2708:	e0800317 	ldw	r2,12(fp)
    270c:	188b883a 	add	r5,r3,r2
    2710:	e1800417 	ldw	r6,16(fp)
    2714:	e1c00617 	ldw	r7,24(fp)
    2718:	00010b80 	call	10b8 <vid_set_pixel>
        vid_set_pixel(cx - x, cy + y + straight_height, color, display); // bottom left
    271c:	e0fffb17 	ldw	r3,-20(fp)
    2720:	e0bffd17 	ldw	r2,-12(fp)
    2724:	1889c83a 	sub	r4,r3,r2
    2728:	e0fffc17 	ldw	r3,-16(fp)
    272c:	e0bffe17 	ldw	r2,-8(fp)
    2730:	1887883a 	add	r3,r3,r2
    2734:	e0800317 	ldw	r2,12(fp)
    2738:	188b883a 	add	r5,r3,r2
    273c:	e1800417 	ldw	r6,16(fp)
    2740:	e1c00617 	ldw	r7,24(fp)
    2744:	00010b80 	call	10b8 <vid_set_pixel>
        vid_set_pixel(cx + x + straight_width, cy - y, color, display); // top right
    2748:	e0fffb17 	ldw	r3,-20(fp)
    274c:	e0bffd17 	ldw	r2,-12(fp)
    2750:	1887883a 	add	r3,r3,r2
    2754:	e0800217 	ldw	r2,8(fp)
    2758:	1889883a 	add	r4,r3,r2
    275c:	e0fffc17 	ldw	r3,-16(fp)
    2760:	e0bffe17 	ldw	r2,-8(fp)
    2764:	188bc83a 	sub	r5,r3,r2
    2768:	e1800417 	ldw	r6,16(fp)
    276c:	e1c00617 	ldw	r7,24(fp)
    2770:	00010b80 	call	10b8 <vid_set_pixel>
        vid_set_pixel(cx - x, cy - y, color, display); // top left
    2774:	e0fffb17 	ldw	r3,-20(fp)
    2778:	e0bffd17 	ldw	r2,-12(fp)
    277c:	1889c83a 	sub	r4,r3,r2
    2780:	e0fffc17 	ldw	r3,-16(fp)
    2784:	e0bffe17 	ldw	r2,-8(fp)
    2788:	188bc83a 	sub	r5,r3,r2
    278c:	e1800417 	ldw	r6,16(fp)
    2790:	e1c00617 	ldw	r7,24(fp)
    2794:	00010b80 	call	10b8 <vid_set_pixel>
    2798:	0000bb06 	br	2a88 <vid_round_corner_points+0x674>
      }
    } else
    // If we're between 0 and 45 degrees plot 8 pixels.
    if (x < y) {
    279c:	e0fffd17 	ldw	r3,-12(fp)
    27a0:	e0bffe17 	ldw	r2,-8(fp)
    27a4:	1880b80e 	bge	r3,r2,2a88 <vid_round_corner_points+0x674>
        if(fill) {
    27a8:	e0bfff07 	ldb	r2,-4(fp)
    27ac:	1005003a 	cmpeq	r2,r2,zero
    27b0:	10005d1e 	bne	r2,zero,2928 <vid_round_corner_points+0x514>
          vid_draw_line(cx - x, cy + y + straight_height, cx + x + straight_width, cy + y + straight_height, 1, color, display);
    27b4:	e0fffb17 	ldw	r3,-20(fp)
    27b8:	e0bffd17 	ldw	r2,-12(fp)
    27bc:	1889c83a 	sub	r4,r3,r2
    27c0:	e0fffc17 	ldw	r3,-16(fp)
    27c4:	e0bffe17 	ldw	r2,-8(fp)
    27c8:	1887883a 	add	r3,r3,r2
    27cc:	e0800317 	ldw	r2,12(fp)
    27d0:	188b883a 	add	r5,r3,r2
    27d4:	e0fffb17 	ldw	r3,-20(fp)
    27d8:	e0bffd17 	ldw	r2,-12(fp)
    27dc:	1887883a 	add	r3,r3,r2
    27e0:	e0800217 	ldw	r2,8(fp)
    27e4:	188d883a 	add	r6,r3,r2
    27e8:	e0fffc17 	ldw	r3,-16(fp)
    27ec:	e0bffe17 	ldw	r2,-8(fp)
    27f0:	1887883a 	add	r3,r3,r2
    27f4:	e0800317 	ldw	r2,12(fp)
    27f8:	188f883a 	add	r7,r3,r2
    27fc:	00800044 	movi	r2,1
    2800:	d8800015 	stw	r2,0(sp)
    2804:	e0800417 	ldw	r2,16(fp)
    2808:	d8800115 	stw	r2,4(sp)
    280c:	e0800617 	ldw	r2,24(fp)
    2810:	d8800215 	stw	r2,8(sp)
    2814:	00006580 	call	658 <vid_draw_line>
          vid_draw_line(cx - y, cy + x + straight_height, cx + y + straight_width, cy + x + straight_height, 1, color, display);
    2818:	e0fffb17 	ldw	r3,-20(fp)
    281c:	e0bffe17 	ldw	r2,-8(fp)
    2820:	1889c83a 	sub	r4,r3,r2
    2824:	e0fffc17 	ldw	r3,-16(fp)
    2828:	e0bffd17 	ldw	r2,-12(fp)
    282c:	1887883a 	add	r3,r3,r2
    2830:	e0800317 	ldw	r2,12(fp)
    2834:	188b883a 	add	r5,r3,r2
    2838:	e0fffb17 	ldw	r3,-20(fp)
    283c:	e0bffe17 	ldw	r2,-8(fp)
    2840:	1887883a 	add	r3,r3,r2
    2844:	e0800217 	ldw	r2,8(fp)
    2848:	188d883a 	add	r6,r3,r2
    284c:	e0fffc17 	ldw	r3,-16(fp)
    2850:	e0bffd17 	ldw	r2,-12(fp)
    2854:	1887883a 	add	r3,r3,r2
    2858:	e0800317 	ldw	r2,12(fp)
    285c:	188f883a 	add	r7,r3,r2
    2860:	00800044 	movi	r2,1
    2864:	d8800015 	stw	r2,0(sp)
    2868:	e0800417 	ldw	r2,16(fp)
    286c:	d8800115 	stw	r2,4(sp)
    2870:	e0800617 	ldw	r2,24(fp)
    2874:	d8800215 	stw	r2,8(sp)
    2878:	00006580 	call	658 <vid_draw_line>
          vid_draw_line(cx - y, cy - x, cx + y + straight_width, cy - x, 1, color, display);
    287c:	e0fffb17 	ldw	r3,-20(fp)
    2880:	e0bffe17 	ldw	r2,-8(fp)
    2884:	1889c83a 	sub	r4,r3,r2
    2888:	e0fffc17 	ldw	r3,-16(fp)
    288c:	e0bffd17 	ldw	r2,-12(fp)
    2890:	188bc83a 	sub	r5,r3,r2
    2894:	e0fffb17 	ldw	r3,-20(fp)
    2898:	e0bffe17 	ldw	r2,-8(fp)
    289c:	1887883a 	add	r3,r3,r2
    28a0:	e0800217 	ldw	r2,8(fp)
    28a4:	188d883a 	add	r6,r3,r2
    28a8:	e0fffc17 	ldw	r3,-16(fp)
    28ac:	e0bffd17 	ldw	r2,-12(fp)
    28b0:	188fc83a 	sub	r7,r3,r2
    28b4:	00800044 	movi	r2,1
    28b8:	d8800015 	stw	r2,0(sp)
    28bc:	e0800417 	ldw	r2,16(fp)
    28c0:	d8800115 	stw	r2,4(sp)
    28c4:	e0800617 	ldw	r2,24(fp)
    28c8:	d8800215 	stw	r2,8(sp)
    28cc:	00006580 	call	658 <vid_draw_line>
          vid_draw_line(cx - x, cy - y, cx + x + straight_width, cy - y, 1, color, display);
    28d0:	e0fffb17 	ldw	r3,-20(fp)
    28d4:	e0bffd17 	ldw	r2,-12(fp)
    28d8:	1889c83a 	sub	r4,r3,r2
    28dc:	e0fffc17 	ldw	r3,-16(fp)
    28e0:	e0bffe17 	ldw	r2,-8(fp)
    28e4:	188bc83a 	sub	r5,r3,r2
    28e8:	e0fffb17 	ldw	r3,-20(fp)
    28ec:	e0bffd17 	ldw	r2,-12(fp)
    28f0:	1887883a 	add	r3,r3,r2
    28f4:	e0800217 	ldw	r2,8(fp)
    28f8:	188d883a 	add	r6,r3,r2
    28fc:	e0fffc17 	ldw	r3,-16(fp)
    2900:	e0bffe17 	ldw	r2,-8(fp)
    2904:	188fc83a 	sub	r7,r3,r2
    2908:	00800044 	movi	r2,1
    290c:	d8800015 	stw	r2,0(sp)
    2910:	e0800417 	ldw	r2,16(fp)
    2914:	d8800115 	stw	r2,4(sp)
    2918:	e0800617 	ldw	r2,24(fp)
    291c:	d8800215 	stw	r2,8(sp)
    2920:	00006580 	call	658 <vid_draw_line>
    2924:	00005806 	br	2a88 <vid_round_corner_points+0x674>
        } else {
          vid_set_pixel(cx + x + straight_width, cy + y + straight_height, color, display);
    2928:	e0fffb17 	ldw	r3,-20(fp)
    292c:	e0bffd17 	ldw	r2,-12(fp)
    2930:	1887883a 	add	r3,r3,r2
    2934:	e0800217 	ldw	r2,8(fp)
    2938:	1889883a 	add	r4,r3,r2
    293c:	e0fffc17 	ldw	r3,-16(fp)
    2940:	e0bffe17 	ldw	r2,-8(fp)
    2944:	1887883a 	add	r3,r3,r2
    2948:	e0800317 	ldw	r2,12(fp)
    294c:	188b883a 	add	r5,r3,r2
    2950:	e1800417 	ldw	r6,16(fp)
    2954:	e1c00617 	ldw	r7,24(fp)
    2958:	00010b80 	call	10b8 <vid_set_pixel>
          vid_set_pixel(cx - x, cy + y + straight_height, color, display);
    295c:	e0fffb17 	ldw	r3,-20(fp)
    2960:	e0bffd17 	ldw	r2,-12(fp)
    2964:	1889c83a 	sub	r4,r3,r2
    2968:	e0fffc17 	ldw	r3,-16(fp)
    296c:	e0bffe17 	ldw	r2,-8(fp)
    2970:	1887883a 	add	r3,r3,r2
    2974:	e0800317 	ldw	r2,12(fp)
    2978:	188b883a 	add	r5,r3,r2
    297c:	e1800417 	ldw	r6,16(fp)
    2980:	e1c00617 	ldw	r7,24(fp)
    2984:	00010b80 	call	10b8 <vid_set_pixel>
          vid_set_pixel(cx + x + straight_width, cy - y, color, display);
    2988:	e0fffb17 	ldw	r3,-20(fp)
    298c:	e0bffd17 	ldw	r2,-12(fp)
    2990:	1887883a 	add	r3,r3,r2
    2994:	e0800217 	ldw	r2,8(fp)
    2998:	1889883a 	add	r4,r3,r2
    299c:	e0fffc17 	ldw	r3,-16(fp)
    29a0:	e0bffe17 	ldw	r2,-8(fp)
    29a4:	188bc83a 	sub	r5,r3,r2
    29a8:	e1800417 	ldw	r6,16(fp)
    29ac:	e1c00617 	ldw	r7,24(fp)
    29b0:	00010b80 	call	10b8 <vid_set_pixel>
          vid_set_pixel(cx - x, cy - y, color, display);
    29b4:	e0fffb17 	ldw	r3,-20(fp)
    29b8:	e0bffd17 	ldw	r2,-12(fp)
    29bc:	1889c83a 	sub	r4,r3,r2
    29c0:	e0fffc17 	ldw	r3,-16(fp)
    29c4:	e0bffe17 	ldw	r2,-8(fp)
    29c8:	188bc83a 	sub	r5,r3,r2
    29cc:	e1800417 	ldw	r6,16(fp)
    29d0:	e1c00617 	ldw	r7,24(fp)
    29d4:	00010b80 	call	10b8 <vid_set_pixel>
          vid_set_pixel(cx + y + straight_width, cy + x + straight_height, color, display);
    29d8:	e0fffb17 	ldw	r3,-20(fp)
    29dc:	e0bffe17 	ldw	r2,-8(fp)
    29e0:	1887883a 	add	r3,r3,r2
    29e4:	e0800217 	ldw	r2,8(fp)
    29e8:	1889883a 	add	r4,r3,r2
    29ec:	e0fffc17 	ldw	r3,-16(fp)
    29f0:	e0bffd17 	ldw	r2,-12(fp)
    29f4:	1887883a 	add	r3,r3,r2
    29f8:	e0800317 	ldw	r2,12(fp)
    29fc:	188b883a 	add	r5,r3,r2
    2a00:	e1800417 	ldw	r6,16(fp)
    2a04:	e1c00617 	ldw	r7,24(fp)
    2a08:	00010b80 	call	10b8 <vid_set_pixel>
          vid_set_pixel(cx - y, cy + x + straight_height, color, display);
    2a0c:	e0fffb17 	ldw	r3,-20(fp)
    2a10:	e0bffe17 	ldw	r2,-8(fp)
    2a14:	1889c83a 	sub	r4,r3,r2
    2a18:	e0fffc17 	ldw	r3,-16(fp)
    2a1c:	e0bffd17 	ldw	r2,-12(fp)
    2a20:	1887883a 	add	r3,r3,r2
    2a24:	e0800317 	ldw	r2,12(fp)
    2a28:	188b883a 	add	r5,r3,r2
    2a2c:	e1800417 	ldw	r6,16(fp)
    2a30:	e1c00617 	ldw	r7,24(fp)
    2a34:	00010b80 	call	10b8 <vid_set_pixel>
          vid_set_pixel(cx + y + straight_width, cy - x, color, display);
    2a38:	e0fffb17 	ldw	r3,-20(fp)
    2a3c:	e0bffe17 	ldw	r2,-8(fp)
    2a40:	1887883a 	add	r3,r3,r2
    2a44:	e0800217 	ldw	r2,8(fp)
    2a48:	1889883a 	add	r4,r3,r2
    2a4c:	e0fffc17 	ldw	r3,-16(fp)
    2a50:	e0bffd17 	ldw	r2,-12(fp)
    2a54:	188bc83a 	sub	r5,r3,r2
    2a58:	e1800417 	ldw	r6,16(fp)
    2a5c:	e1c00617 	ldw	r7,24(fp)
    2a60:	00010b80 	call	10b8 <vid_set_pixel>
          vid_set_pixel(cx - y, cy - x, color, display);
    2a64:	e0fffb17 	ldw	r3,-20(fp)
    2a68:	e0bffe17 	ldw	r2,-8(fp)
    2a6c:	1889c83a 	sub	r4,r3,r2
    2a70:	e0fffc17 	ldw	r3,-16(fp)
    2a74:	e0bffd17 	ldw	r2,-12(fp)
    2a78:	188bc83a 	sub	r5,r3,r2
    2a7c:	e1800417 	ldw	r6,16(fp)
    2a80:	e1c00617 	ldw	r7,24(fp)
    2a84:	00010b80 	call	10b8 <vid_set_pixel>
        }
    }
}
    2a88:	e037883a 	mov	sp,fp
    2a8c:	dfc00117 	ldw	ra,4(sp)
    2a90:	df000017 	ldw	fp,0(sp)
    2a94:	dec00204 	addi	sp,sp,8
    2a98:	f800283a 	ret

00002a9c <max3>:
*  Purpose:  Returns the minimum value of 3 parameters
*            Used for drawing filled shapes
*
******************************************************************/
__inline__ int max3( int a, int b, int c )
{
    2a9c:	defffc04 	addi	sp,sp,-16
    2aa0:	df000315 	stw	fp,12(sp)
    2aa4:	df000304 	addi	fp,sp,12
    2aa8:	e13ffd15 	stw	r4,-12(fp)
    2aac:	e17ffe15 	stw	r5,-8(fp)
    2ab0:	e1bfff15 	stw	r6,-4(fp)
  if( a < b )
    2ab4:	e0fffd17 	ldw	r3,-12(fp)
    2ab8:	e0bffe17 	ldw	r2,-8(fp)
    2abc:	1880020e 	bge	r3,r2,2ac8 <max3+0x2c>
    a = b;
    2ac0:	e0bffe17 	ldw	r2,-8(fp)
    2ac4:	e0bffd15 	stw	r2,-12(fp)
  if( a < c )
    2ac8:	e0fffd17 	ldw	r3,-12(fp)
    2acc:	e0bfff17 	ldw	r2,-4(fp)
    2ad0:	1880020e 	bge	r3,r2,2adc <max3+0x40>
    a = c;
    2ad4:	e0bfff17 	ldw	r2,-4(fp)
    2ad8:	e0bffd15 	stw	r2,-12(fp)
  
  return a;
    2adc:	e0bffd17 	ldw	r2,-12(fp)
}
    2ae0:	e037883a 	mov	sp,fp
    2ae4:	df000017 	ldw	fp,0(sp)
    2ae8:	dec00104 	addi	sp,sp,4
    2aec:	f800283a 	ret

00002af0 <min3>:
*  Purpose:  Returns the minimum value of 3 parameters
*            Used for drawing filled shapes.
*
******************************************************************/
__inline__ int min3( int a, int b, int c )
{
    2af0:	defffc04 	addi	sp,sp,-16
    2af4:	df000315 	stw	fp,12(sp)
    2af8:	df000304 	addi	fp,sp,12
    2afc:	e13ffd15 	stw	r4,-12(fp)
    2b00:	e17ffe15 	stw	r5,-8(fp)
    2b04:	e1bfff15 	stw	r6,-4(fp)
  if( a > b )
    2b08:	e0fffd17 	ldw	r3,-12(fp)
    2b0c:	e0bffe17 	ldw	r2,-8(fp)
    2b10:	10c0020e 	bge	r2,r3,2b1c <min3+0x2c>
    a = b;
    2b14:	e0bffe17 	ldw	r2,-8(fp)
    2b18:	e0bffd15 	stw	r2,-12(fp)
  if( a > c )
    2b1c:	e0fffd17 	ldw	r3,-12(fp)
    2b20:	e0bfff17 	ldw	r2,-4(fp)
    2b24:	10c0020e 	bge	r2,r3,2b30 <min3+0x40>
    a = c;
    2b28:	e0bfff17 	ldw	r2,-4(fp)
    2b2c:	e0bffd15 	stw	r2,-12(fp)
  
  return a;
    2b30:	e0bffd17 	ldw	r2,-12(fp)
}
    2b34:	e037883a 	mov	sp,fp
    2b38:	df000017 	ldw	fp,0(sp)
    2b3c:	dec00104 	addi	sp,sp,4
    2b40:	f800283a 	ret

00002b44 <max_diff3>:
*  Purpose:  Returns the positive max difference between 3 
*            parameters.  Used for drawing filled shapes
*
******************************************************************/
__inline__ int max_diff3(int a, int b, int c)
{
    2b44:	defff904 	addi	sp,sp,-28
    2b48:	dfc00615 	stw	ra,24(sp)
    2b4c:	df000515 	stw	fp,20(sp)
    2b50:	df000504 	addi	fp,sp,20
    2b54:	e13ffd15 	stw	r4,-12(fp)
    2b58:	e17ffe15 	stw	r5,-8(fp)
    2b5c:	e1bfff15 	stw	r6,-4(fp)
  int max, min;
    
  max = max3( a, b, c );
    2b60:	e13ffd17 	ldw	r4,-12(fp)
    2b64:	e17ffe17 	ldw	r5,-8(fp)
    2b68:	e1bfff17 	ldw	r6,-4(fp)
    2b6c:	0002a9c0 	call	2a9c <max3>
    2b70:	e0bffc15 	stw	r2,-16(fp)
  min = min3( a, b, c );
    2b74:	e13ffd17 	ldw	r4,-12(fp)
    2b78:	e17ffe17 	ldw	r5,-8(fp)
    2b7c:	e1bfff17 	ldw	r6,-4(fp)
    2b80:	0002af00 	call	2af0 <min3>
    2b84:	e0bffb15 	stw	r2,-20(fp)
  return (max - min);
    2b88:	e0fffc17 	ldw	r3,-16(fp)
    2b8c:	e0bffb17 	ldw	r2,-20(fp)
    2b90:	1885c83a 	sub	r2,r3,r2
}
    2b94:	e037883a 	mov	sp,fp
    2b98:	dfc00117 	ldw	ra,4(sp)
    2b9c:	df000017 	ldw	fp,0(sp)
    2ba0:	dec00204 	addi	sp,sp,8
    2ba4:	f800283a 	ret

00002ba8 <vid_put_pixel_in_span_map>:
*            min value of an element that represents a span, 
*            essentially just a horizontal line used to fill shapes.
*
******************************************************************/
inline void vid_put_pixel_in_span_map( int x, int y, int *span_array )
{
    2ba8:	defffc04 	addi	sp,sp,-16
    2bac:	df000315 	stw	fp,12(sp)
    2bb0:	df000304 	addi	fp,sp,12
    2bb4:	e13ffd15 	stw	r4,-12(fp)
    2bb8:	e17ffe15 	stw	r5,-8(fp)
    2bbc:	e1bfff15 	stw	r6,-4(fp)
  if (span_array[y*2] == -1)
    2bc0:	e0bffe17 	ldw	r2,-8(fp)
    2bc4:	100490fa 	slli	r2,r2,3
    2bc8:	1007883a 	mov	r3,r2
    2bcc:	e0bfff17 	ldw	r2,-4(fp)
    2bd0:	1885883a 	add	r2,r3,r2
    2bd4:	10800017 	ldw	r2,0(r2)
    2bd8:	10bfffd8 	cmpnei	r2,r2,-1
    2bdc:	1000101e 	bne	r2,zero,2c20 <vid_put_pixel_in_span_map+0x78>
  {
    span_array[y*2] = x;
    2be0:	e0bffe17 	ldw	r2,-8(fp)
    2be4:	100490fa 	slli	r2,r2,3
    2be8:	1007883a 	mov	r3,r2
    2bec:	e0bfff17 	ldw	r2,-4(fp)
    2bf0:	1887883a 	add	r3,r3,r2
    2bf4:	e0bffd17 	ldw	r2,-12(fp)
    2bf8:	18800015 	stw	r2,0(r3)
    span_array[(y*2)+1] = x;
    2bfc:	e0bffe17 	ldw	r2,-8(fp)
    2c00:	100490fa 	slli	r2,r2,3
    2c04:	1007883a 	mov	r3,r2
    2c08:	e0bfff17 	ldw	r2,-4(fp)
    2c0c:	1885883a 	add	r2,r3,r2
    2c10:	10c00104 	addi	r3,r2,4
    2c14:	e0bffd17 	ldw	r2,-12(fp)
    2c18:	18800015 	stw	r2,0(r3)
    2c1c:	00002106 	br	2ca4 <vid_put_pixel_in_span_map+0xfc>
  }
  else if( span_array[y*2] > x )
    2c20:	e0bffe17 	ldw	r2,-8(fp)
    2c24:	100490fa 	slli	r2,r2,3
    2c28:	1007883a 	mov	r3,r2
    2c2c:	e0bfff17 	ldw	r2,-4(fp)
    2c30:	1885883a 	add	r2,r3,r2
    2c34:	10c00017 	ldw	r3,0(r2)
    2c38:	e0bffd17 	ldw	r2,-12(fp)
    2c3c:	10c0080e 	bge	r2,r3,2c60 <vid_put_pixel_in_span_map+0xb8>
    span_array[y*2] = x;
    2c40:	e0bffe17 	ldw	r2,-8(fp)
    2c44:	100490fa 	slli	r2,r2,3
    2c48:	1007883a 	mov	r3,r2
    2c4c:	e0bfff17 	ldw	r2,-4(fp)
    2c50:	1887883a 	add	r3,r3,r2
    2c54:	e0bffd17 	ldw	r2,-12(fp)
    2c58:	18800015 	stw	r2,0(r3)
    2c5c:	00001106 	br	2ca4 <vid_put_pixel_in_span_map+0xfc>
  else if( span_array[(y*2)+1] < x )
    2c60:	e0bffe17 	ldw	r2,-8(fp)
    2c64:	100490fa 	slli	r2,r2,3
    2c68:	1007883a 	mov	r3,r2
    2c6c:	e0bfff17 	ldw	r2,-4(fp)
    2c70:	1885883a 	add	r2,r3,r2
    2c74:	10800104 	addi	r2,r2,4
    2c78:	10c00017 	ldw	r3,0(r2)
    2c7c:	e0bffd17 	ldw	r2,-12(fp)
    2c80:	1880080e 	bge	r3,r2,2ca4 <vid_put_pixel_in_span_map+0xfc>
    span_array[(y*2)+1] = x;
    2c84:	e0bffe17 	ldw	r2,-8(fp)
    2c88:	100490fa 	slli	r2,r2,3
    2c8c:	1007883a 	mov	r3,r2
    2c90:	e0bfff17 	ldw	r2,-4(fp)
    2c94:	1885883a 	add	r2,r3,r2
    2c98:	10c00104 	addi	r3,r2,4
    2c9c:	e0bffd17 	ldw	r2,-12(fp)
    2ca0:	18800015 	stw	r2,0(r3)
}
    2ca4:	e037883a 	mov	sp,fp
    2ca8:	df000017 	ldw	fp,0(sp)
    2cac:	dec00104 	addi	sp,sp,4
    2cb0:	f800283a 	ret

00002cb4 <vid_bres_scan_edges>:
*            filled shapes where you fill by drawing successive
*            horizontal lines.
*
******************************************************************/
void vid_bres_scan_edges( int x1, int y1, int x2, int y2, int *span_array) 
{
    2cb4:	deffee04 	addi	sp,sp,-72
    2cb8:	dfc01115 	stw	ra,68(sp)
    2cbc:	df001015 	stw	fp,64(sp)
    2cc0:	df001004 	addi	fp,sp,64
    2cc4:	e13ffc15 	stw	r4,-16(fp)
    2cc8:	e17ffd15 	stw	r5,-12(fp)
    2ccc:	e1bffe15 	stw	r6,-8(fp)
    2cd0:	e1ffff15 	stw	r7,-4(fp)

  int x_incr, y_incr;
  int y_delta, x_delta;

  // Assure we always draw left to right
  if( x1 > x2 )
    2cd4:	e0fffc17 	ldw	r3,-16(fp)
    2cd8:	e0bffe17 	ldw	r2,-8(fp)
    2cdc:	10c00c0e 	bge	r2,r3,2d10 <vid_bres_scan_edges+0x5c>
  {
    int tempx = x2;
    2ce0:	e0bffe17 	ldw	r2,-8(fp)
    2ce4:	e0bff715 	stw	r2,-36(fp)
    x2 = x1;
    2ce8:	e0bffc17 	ldw	r2,-16(fp)
    2cec:	e0bffe15 	stw	r2,-8(fp)
    x1 = tempx;
    2cf0:	e0bff717 	ldw	r2,-36(fp)
    2cf4:	e0bffc15 	stw	r2,-16(fp)
    int tempy = y2;
    2cf8:	e0bfff17 	ldw	r2,-4(fp)
    2cfc:	e0bff615 	stw	r2,-40(fp)
    y2 = y1;
    2d00:	e0bffd17 	ldw	r2,-12(fp)
    2d04:	e0bfff15 	stw	r2,-4(fp)
    y1 = tempy;
    2d08:	e0bff617 	ldw	r2,-40(fp)
    2d0c:	e0bffd15 	stw	r2,-12(fp)
  }
  
  // Find the vertical and horizontal distance between the two points
  y_delta = abs(y1-y2);
    2d10:	e0fffd17 	ldw	r3,-12(fp)
    2d14:	e0bfff17 	ldw	r2,-4(fp)
    2d18:	1885c83a 	sub	r2,r3,r2
    2d1c:	e0bff915 	stw	r2,-28(fp)
    2d20:	e0bff917 	ldw	r2,-28(fp)
    2d24:	1004403a 	cmpge	r2,r2,zero
    2d28:	1000031e 	bne	r2,zero,2d38 <vid_bres_scan_edges+0x84>
    2d2c:	e0bff917 	ldw	r2,-28(fp)
    2d30:	0085c83a 	sub	r2,zero,r2
    2d34:	e0bff915 	stw	r2,-28(fp)
  x_delta = (x2-x1);
    2d38:	e0fffe17 	ldw	r3,-8(fp)
    2d3c:	e0bffc17 	ldw	r2,-16(fp)
    2d40:	1885c83a 	sub	r2,r3,r2
    2d44:	e0bff815 	stw	r2,-32(fp)

  // Find out what direction we are going
  if (y1 > y2) { y_incr=-1; } else { y_incr=1; }
    2d48:	e0fffd17 	ldw	r3,-12(fp)
    2d4c:	e0bfff17 	ldw	r2,-4(fp)
    2d50:	10c0030e 	bge	r2,r3,2d60 <vid_bres_scan_edges+0xac>
    2d54:	00bfffc4 	movi	r2,-1
    2d58:	e0bffa15 	stw	r2,-24(fp)
    2d5c:	00000206 	br	2d68 <vid_bres_scan_edges+0xb4>
    2d60:	00800044 	movi	r2,1
    2d64:	e0bffa15 	stw	r2,-24(fp)
  x_incr=1;
    2d68:	00800044 	movi	r2,1
    2d6c:	e0bffb15 	stw	r2,-20(fp)

  // Find out which axis is always incremented when drawing the line
  // If it's the horizontal axis
  if (x_delta >= y_delta) {
    2d70:	e0fff817 	ldw	r3,-32(fp)
    2d74:	e0bff917 	ldw	r2,-28(fp)
    2d78:	18803116 	blt	r3,r2,2e40 <vid_bres_scan_edges+0x18c>
    int dPr   = y_delta<<1;
    2d7c:	e0bff917 	ldw	r2,-28(fp)
    2d80:	1085883a 	add	r2,r2,r2
    2d84:	e0bff515 	stw	r2,-44(fp)
    int dPru  = dPr - (x_delta<<1);
    2d88:	e0bff817 	ldw	r2,-32(fp)
    2d8c:	1085883a 	add	r2,r2,r2
    2d90:	1007883a 	mov	r3,r2
    2d94:	e0bff517 	ldw	r2,-44(fp)
    2d98:	10c5c83a 	sub	r2,r2,r3
    2d9c:	e0bff415 	stw	r2,-48(fp)
    int P     = dPr - x_delta;
    2da0:	e0fff517 	ldw	r3,-44(fp)
    2da4:	e0bff817 	ldw	r2,-32(fp)
    2da8:	1885c83a 	sub	r2,r3,r2
    2dac:	e0bff315 	stw	r2,-52(fp)

    // Process the line, one horizontal point at at time
    for (; x_delta >= 0; x_delta--) {
    2db0:	00001f06 	br	2e30 <vid_bres_scan_edges+0x17c>
      // map the pixel
      vid_put_pixel_in_span_map(x1, y1, span_array);
    2db4:	e13ffc17 	ldw	r4,-16(fp)
    2db8:	e17ffd17 	ldw	r5,-12(fp)
    2dbc:	e1800217 	ldw	r6,8(fp)
    2dc0:	0002ba80 	call	2ba8 <vid_put_pixel_in_span_map>
      // If we're moving along both axis
      if (P > 0) {
    2dc4:	e0bff317 	ldw	r2,-52(fp)
    2dc8:	10800050 	cmplti	r2,r2,1
    2dcc:	10000d1e 	bne	r2,zero,2e04 <vid_bres_scan_edges+0x150>
        x1+=x_incr;
    2dd0:	e0fffc17 	ldw	r3,-16(fp)
    2dd4:	e0bffb17 	ldw	r2,-20(fp)
    2dd8:	1885883a 	add	r2,r3,r2
    2ddc:	e0bffc15 	stw	r2,-16(fp)
        y1+=y_incr;
    2de0:	e0fffd17 	ldw	r3,-12(fp)
    2de4:	e0bffa17 	ldw	r2,-24(fp)
    2de8:	1885883a 	add	r2,r3,r2
    2dec:	e0bffd15 	stw	r2,-12(fp)
        P+=dPru;
    2df0:	e0fff317 	ldw	r3,-52(fp)
    2df4:	e0bff417 	ldw	r2,-48(fp)
    2df8:	1885883a 	add	r2,r3,r2
    2dfc:	e0bff315 	stw	r2,-52(fp)
    2e00:	00000806 	br	2e24 <vid_bres_scan_edges+0x170>
      } else {
        x1+=x_incr;
    2e04:	e0fffc17 	ldw	r3,-16(fp)
    2e08:	e0bffb17 	ldw	r2,-20(fp)
    2e0c:	1885883a 	add	r2,r3,r2
    2e10:	e0bffc15 	stw	r2,-16(fp)
        P+=dPr;
    2e14:	e0fff317 	ldw	r3,-52(fp)
    2e18:	e0bff517 	ldw	r2,-44(fp)
    2e1c:	1885883a 	add	r2,r3,r2
    2e20:	e0bff315 	stw	r2,-52(fp)
    int dPr   = y_delta<<1;
    int dPru  = dPr - (x_delta<<1);
    int P     = dPr - x_delta;

    // Process the line, one horizontal point at at time
    for (; x_delta >= 0; x_delta--) {
    2e24:	e0bff817 	ldw	r2,-32(fp)
    2e28:	10bfffc4 	addi	r2,r2,-1
    2e2c:	e0bff815 	stw	r2,-32(fp)
    2e30:	e0bff817 	ldw	r2,-32(fp)
    2e34:	1004403a 	cmpge	r2,r2,zero
    2e38:	103fde1e 	bne	r2,zero,2db4 <vid_bres_scan_edges+0x100>
    2e3c:	00003006 	br	2f00 <vid_bres_scan_edges+0x24c>
      }
    }
  }
  else // If it's the vertical axis
  {
    int dPr   = x_delta<<1;
    2e40:	e0bff817 	ldw	r2,-32(fp)
    2e44:	1085883a 	add	r2,r2,r2
    2e48:	e0bff215 	stw	r2,-56(fp)
    int dPru  = dPr - (y_delta<<1);
    2e4c:	e0bff917 	ldw	r2,-28(fp)
    2e50:	1085883a 	add	r2,r2,r2
    2e54:	1007883a 	mov	r3,r2
    2e58:	e0bff217 	ldw	r2,-56(fp)
    2e5c:	10c5c83a 	sub	r2,r2,r3
    2e60:	e0bff115 	stw	r2,-60(fp)
    int P     = dPr - y_delta;
    2e64:	e0fff217 	ldw	r3,-56(fp)
    2e68:	e0bff917 	ldw	r2,-28(fp)
    2e6c:	1885c83a 	sub	r2,r3,r2
    2e70:	e0bff015 	stw	r2,-64(fp)

    // Process the line, one vertical point at at time
    for (; y_delta>=0; y_delta--) {
    2e74:	00001f06 	br	2ef4 <vid_bres_scan_edges+0x240>
      // plot the pixel
      vid_put_pixel_in_span_map(x1, y1, span_array);
    2e78:	e13ffc17 	ldw	r4,-16(fp)
    2e7c:	e17ffd17 	ldw	r5,-12(fp)
    2e80:	e1800217 	ldw	r6,8(fp)
    2e84:	0002ba80 	call	2ba8 <vid_put_pixel_in_span_map>
      // If we're moving along both axis
      if (P > 0) {
    2e88:	e0bff017 	ldw	r2,-64(fp)
    2e8c:	10800050 	cmplti	r2,r2,1
    2e90:	10000d1e 	bne	r2,zero,2ec8 <vid_bres_scan_edges+0x214>
        x1+=x_incr;
    2e94:	e0fffc17 	ldw	r3,-16(fp)
    2e98:	e0bffb17 	ldw	r2,-20(fp)
    2e9c:	1885883a 	add	r2,r3,r2
    2ea0:	e0bffc15 	stw	r2,-16(fp)
        y1+=y_incr;
    2ea4:	e0fffd17 	ldw	r3,-12(fp)
    2ea8:	e0bffa17 	ldw	r2,-24(fp)
    2eac:	1885883a 	add	r2,r3,r2
    2eb0:	e0bffd15 	stw	r2,-12(fp)
        P+=dPru;
    2eb4:	e0fff017 	ldw	r3,-64(fp)
    2eb8:	e0bff117 	ldw	r2,-60(fp)
    2ebc:	1885883a 	add	r2,r3,r2
    2ec0:	e0bff015 	stw	r2,-64(fp)
    2ec4:	00000806 	br	2ee8 <vid_bres_scan_edges+0x234>
      } else {
        y1+=y_incr;
    2ec8:	e0fffd17 	ldw	r3,-12(fp)
    2ecc:	e0bffa17 	ldw	r2,-24(fp)
    2ed0:	1885883a 	add	r2,r3,r2
    2ed4:	e0bffd15 	stw	r2,-12(fp)
        P+=dPr;
    2ed8:	e0fff017 	ldw	r3,-64(fp)
    2edc:	e0bff217 	ldw	r2,-56(fp)
    2ee0:	1885883a 	add	r2,r3,r2
    2ee4:	e0bff015 	stw	r2,-64(fp)
    int dPr   = x_delta<<1;
    int dPru  = dPr - (y_delta<<1);
    int P     = dPr - y_delta;

    // Process the line, one vertical point at at time
    for (; y_delta>=0; y_delta--) {
    2ee8:	e0bff917 	ldw	r2,-28(fp)
    2eec:	10bfffc4 	addi	r2,r2,-1
    2ef0:	e0bff915 	stw	r2,-28(fp)
    2ef4:	e0bff917 	ldw	r2,-28(fp)
    2ef8:	1004403a 	cmpge	r2,r2,zero
    2efc:	103fde1e 	bne	r2,zero,2e78 <vid_bres_scan_edges+0x1c4>
        y1+=y_incr;
        P+=dPr;
      }
    }
  }
}
    2f00:	e037883a 	mov	sp,fp
    2f04:	dfc00117 	ldw	ra,4(sp)
    2f08:	df000017 	ldw	fp,0(sp)
    2f0c:	dec00204 	addi	sp,sp,8
    2f10:	f800283a 	ret

00002f14 <vid_draw_triangle>:
*  Purpose:  This function draws a triangle on the screen between
*            three points defined by the structure tri.
*
******************************************************************/
void vid_draw_triangle(triangle_struct* tri, alt_video_display* display)
{
    2f14:	defff804 	addi	sp,sp,-32
    2f18:	dfc00715 	stw	ra,28(sp)
    2f1c:	df000615 	stw	fp,24(sp)
    2f20:	df000604 	addi	fp,sp,24
    2f24:	e13ffe15 	stw	r4,-8(fp)
    2f28:	e17fff15 	stw	r5,-4(fp)
  int i;
  
  // Outline it first
    vid_draw_line( tri->vertex_x[0], tri->vertex_y[0], 
    2f2c:	e0bffe17 	ldw	r2,-8(fp)
    2f30:	11000017 	ldw	r4,0(r2)
    2f34:	e0bffe17 	ldw	r2,-8(fp)
    2f38:	11400317 	ldw	r5,12(r2)
    2f3c:	e0bffe17 	ldw	r2,-8(fp)
    2f40:	11800117 	ldw	r6,4(r2)
    2f44:	e0bffe17 	ldw	r2,-8(fp)
    2f48:	11c00417 	ldw	r7,16(r2)
    2f4c:	e0bffe17 	ldw	r2,-8(fp)
    2f50:	10c00a17 	ldw	r3,40(r2)
    2f54:	00800044 	movi	r2,1
    2f58:	d8800015 	stw	r2,0(sp)
    2f5c:	d8c00115 	stw	r3,4(sp)
    2f60:	e0bfff17 	ldw	r2,-4(fp)
    2f64:	d8800215 	stw	r2,8(sp)
    2f68:	00006580 	call	658 <vid_draw_line>
                   tri->vertex_x[1], tri->vertex_y[1], 1, 
                   tri->col, display);
    vid_draw_line( tri->vertex_x[1], tri->vertex_y[1], 
    2f6c:	e0bffe17 	ldw	r2,-8(fp)
    2f70:	11000117 	ldw	r4,4(r2)
    2f74:	e0bffe17 	ldw	r2,-8(fp)
    2f78:	11400417 	ldw	r5,16(r2)
    2f7c:	e0bffe17 	ldw	r2,-8(fp)
    2f80:	11800217 	ldw	r6,8(r2)
    2f84:	e0bffe17 	ldw	r2,-8(fp)
    2f88:	11c00517 	ldw	r7,20(r2)
    2f8c:	e0bffe17 	ldw	r2,-8(fp)
    2f90:	10c00a17 	ldw	r3,40(r2)
    2f94:	00800044 	movi	r2,1
    2f98:	d8800015 	stw	r2,0(sp)
    2f9c:	d8c00115 	stw	r3,4(sp)
    2fa0:	e0bfff17 	ldw	r2,-4(fp)
    2fa4:	d8800215 	stw	r2,8(sp)
    2fa8:	00006580 	call	658 <vid_draw_line>
                   tri->vertex_x[2], tri->vertex_y[2], 1, 
                   tri->col, display);
    vid_draw_line( tri->vertex_x[2], tri->vertex_y[2], 
    2fac:	e0bffe17 	ldw	r2,-8(fp)
    2fb0:	11000217 	ldw	r4,8(r2)
    2fb4:	e0bffe17 	ldw	r2,-8(fp)
    2fb8:	11400517 	ldw	r5,20(r2)
    2fbc:	e0bffe17 	ldw	r2,-8(fp)
    2fc0:	11800017 	ldw	r6,0(r2)
    2fc4:	e0bffe17 	ldw	r2,-8(fp)
    2fc8:	11c00317 	ldw	r7,12(r2)
    2fcc:	e0bffe17 	ldw	r2,-8(fp)
    2fd0:	10c00a17 	ldw	r3,40(r2)
    2fd4:	00800044 	movi	r2,1
    2fd8:	d8800015 	stw	r2,0(sp)
    2fdc:	d8c00115 	stw	r3,4(sp)
    2fe0:	e0bfff17 	ldw	r2,-4(fp)
    2fe4:	d8800215 	stw	r2,8(sp)
    2fe8:	00006580 	call	658 <vid_draw_line>
                   tri->vertex_x[0], tri->vertex_y[0], 1, 
                   tri->col, display);
//  vid_draw_line(tri->bx, tri->by, tri->cx, tri->cy, 1, tri->col, display);
//  vid_draw_line(tri->cx, tri->cy, tri->ax, tri->ay, 1, tri->col, display);
  
  if(tri->fill == DO_FILL)
    2fec:	e0bffe17 	ldw	r2,-8(fp)
    2ff0:	10800b17 	ldw	r2,44(r2)
    2ff4:	10800058 	cmpnei	r2,r2,1
    2ff8:	1000931e 	bne	r2,zero,3248 <vid_draw_triangle+0x334>
  {
    tri->top_y = min3(tri->vertex_y[0], tri->vertex_y[1], tri->vertex_y[2]);
    2ffc:	e0bffe17 	ldw	r2,-8(fp)
    3000:	11000317 	ldw	r4,12(r2)
    3004:	e0bffe17 	ldw	r2,-8(fp)
    3008:	11400417 	ldw	r5,16(r2)
    300c:	e0bffe17 	ldw	r2,-8(fp)
    3010:	11800517 	ldw	r6,20(r2)
    3014:	0002af00 	call	2af0 <min3>
    3018:	1007883a 	mov	r3,r2
    301c:	e0bffe17 	ldw	r2,-8(fp)
    3020:	10c00815 	stw	r3,32(r2)
    tri->bottom_y = max3(tri->vertex_y[0], tri->vertex_y[1], tri->vertex_y[2]);
    3024:	e0bffe17 	ldw	r2,-8(fp)
    3028:	11000317 	ldw	r4,12(r2)
    302c:	e0bffe17 	ldw	r2,-8(fp)
    3030:	11400417 	ldw	r5,16(r2)
    3034:	e0bffe17 	ldw	r2,-8(fp)
    3038:	11800517 	ldw	r6,20(r2)
    303c:	0002a9c0 	call	2a9c <max3>
    3040:	1007883a 	mov	r3,r2
    3044:	e0bffe17 	ldw	r2,-8(fp)
    3048:	10c00915 	stw	r3,36(r2)
    tri->spans_needed = max_diff3(tri->vertex_y[0], tri->vertex_y[1], tri->vertex_y[2]);
    304c:	e0bffe17 	ldw	r2,-8(fp)
    3050:	11000317 	ldw	r4,12(r2)
    3054:	e0bffe17 	ldw	r2,-8(fp)
    3058:	11400417 	ldw	r5,16(r2)
    305c:	e0bffe17 	ldw	r2,-8(fp)
    3060:	11800517 	ldw	r6,20(r2)
    3064:	0002b440 	call	2b44 <max_diff3>
    3068:	1007883a 	mov	r3,r2
    306c:	e0bffe17 	ldw	r2,-8(fp)
    3070:	10c00615 	stw	r3,24(r2)
    tri->max_span = max_diff3(tri->vertex_x[0], tri->vertex_x[1], tri->vertex_x[2]);
    3074:	e0bffe17 	ldw	r2,-8(fp)
    3078:	11000017 	ldw	r4,0(r2)
    307c:	e0bffe17 	ldw	r2,-8(fp)
    3080:	11400117 	ldw	r5,4(r2)
    3084:	e0bffe17 	ldw	r2,-8(fp)
    3088:	11800217 	ldw	r6,8(r2)
    308c:	0002b440 	call	2b44 <max_diff3>
    3090:	1007883a 	mov	r3,r2
    3094:	e0bffe17 	ldw	r2,-8(fp)
    3098:	10c00715 	stw	r3,28(r2)
    tri->span_array = malloc(display->height * 4 * 2);
    309c:	e0bfff17 	ldw	r2,-4(fp)
    30a0:	10800617 	ldw	r2,24(r2)
    30a4:	100490fa 	slli	r2,r2,3
    30a8:	1009883a 	mov	r4,r2
    30ac:	000a7680 	call	a768 <malloc>
    30b0:	1007883a 	mov	r3,r2
    30b4:	e0bffe17 	ldw	r2,-8(fp)
    30b8:	10c00d15 	stw	r3,52(r2)

    //init the span array
    for( i = tri->top_y; i <= tri->bottom_y; i++)
    30bc:	e0bffe17 	ldw	r2,-8(fp)
    30c0:	10800817 	ldw	r2,32(r2)
    30c4:	e0bffd15 	stw	r2,-12(fp)
    30c8:	00001206 	br	3114 <vid_draw_triangle+0x200>
    {
      tri->span_array[i*2] = -1;
    30cc:	e0bffe17 	ldw	r2,-8(fp)
    30d0:	10c00d17 	ldw	r3,52(r2)
    30d4:	e0bffd17 	ldw	r2,-12(fp)
    30d8:	100490fa 	slli	r2,r2,3
    30dc:	1887883a 	add	r3,r3,r2
    30e0:	00bfffc4 	movi	r2,-1
    30e4:	18800015 	stw	r2,0(r3)
      tri->span_array[(i*2) + 1] = -1;
    30e8:	e0bffe17 	ldw	r2,-8(fp)
    30ec:	10c00d17 	ldw	r3,52(r2)
    30f0:	e0bffd17 	ldw	r2,-12(fp)
    30f4:	100490fa 	slli	r2,r2,3
    30f8:	1885883a 	add	r2,r3,r2
    30fc:	10c00104 	addi	r3,r2,4
    3100:	00bfffc4 	movi	r2,-1
    3104:	18800015 	stw	r2,0(r3)
    tri->spans_needed = max_diff3(tri->vertex_y[0], tri->vertex_y[1], tri->vertex_y[2]);
    tri->max_span = max_diff3(tri->vertex_x[0], tri->vertex_x[1], tri->vertex_x[2]);
    tri->span_array = malloc(display->height * 4 * 2);

    //init the span array
    for( i = tri->top_y; i <= tri->bottom_y; i++)
    3108:	e0bffd17 	ldw	r2,-12(fp)
    310c:	10800044 	addi	r2,r2,1
    3110:	e0bffd15 	stw	r2,-12(fp)
    3114:	e0bffe17 	ldw	r2,-8(fp)
    3118:	10c00917 	ldw	r3,36(r2)
    311c:	e0bffd17 	ldw	r2,-12(fp)
    3120:	18bfea0e 	bge	r3,r2,30cc <vid_draw_triangle+0x1b8>
      tri->span_array[i*2] = -1;
      tri->span_array[(i*2) + 1] = -1;
    }
    
    // Scan-convert the triangle  
    vid_bres_scan_edges( tri->vertex_x[0], tri->vertex_y[0], 
    3124:	e0bffe17 	ldw	r2,-8(fp)
    3128:	11000017 	ldw	r4,0(r2)
    312c:	e0bffe17 	ldw	r2,-8(fp)
    3130:	11400317 	ldw	r5,12(r2)
    3134:	e0bffe17 	ldw	r2,-8(fp)
    3138:	11800117 	ldw	r6,4(r2)
    313c:	e0bffe17 	ldw	r2,-8(fp)
    3140:	11c00417 	ldw	r7,16(r2)
    3144:	e0bffe17 	ldw	r2,-8(fp)
    3148:	10800d17 	ldw	r2,52(r2)
    314c:	d8800015 	stw	r2,0(sp)
    3150:	0002cb40 	call	2cb4 <vid_bres_scan_edges>
                         tri->vertex_x[1], tri->vertex_y[1], tri->span_array);
    vid_bres_scan_edges( tri->vertex_x[1], tri->vertex_y[1], 
    3154:	e0bffe17 	ldw	r2,-8(fp)
    3158:	11000117 	ldw	r4,4(r2)
    315c:	e0bffe17 	ldw	r2,-8(fp)
    3160:	11400417 	ldw	r5,16(r2)
    3164:	e0bffe17 	ldw	r2,-8(fp)
    3168:	11800217 	ldw	r6,8(r2)
    316c:	e0bffe17 	ldw	r2,-8(fp)
    3170:	11c00517 	ldw	r7,20(r2)
    3174:	e0bffe17 	ldw	r2,-8(fp)
    3178:	10800d17 	ldw	r2,52(r2)
    317c:	d8800015 	stw	r2,0(sp)
    3180:	0002cb40 	call	2cb4 <vid_bres_scan_edges>
                         tri->vertex_x[2], tri->vertex_y[2], tri->span_array);
    vid_bres_scan_edges( tri->vertex_x[2], tri->vertex_y[2], 
    3184:	e0bffe17 	ldw	r2,-8(fp)
    3188:	11000217 	ldw	r4,8(r2)
    318c:	e0bffe17 	ldw	r2,-8(fp)
    3190:	11400517 	ldw	r5,20(r2)
    3194:	e0bffe17 	ldw	r2,-8(fp)
    3198:	11800017 	ldw	r6,0(r2)
    319c:	e0bffe17 	ldw	r2,-8(fp)
    31a0:	11c00317 	ldw	r7,12(r2)
    31a4:	e0bffe17 	ldw	r2,-8(fp)
    31a8:	10800d17 	ldw	r2,52(r2)
    31ac:	d8800015 	stw	r2,0(sp)
    31b0:	0002cb40 	call	2cb4 <vid_bres_scan_edges>
                         tri->vertex_x[0], tri->vertex_y[0], tri->span_array);
  
    // Render the polygon
    for( i = tri->top_y; i <= tri->bottom_y; i++ )
    31b4:	e0bffe17 	ldw	r2,-8(fp)
    31b8:	10800817 	ldw	r2,32(r2)
    31bc:	e0bffd15 	stw	r2,-12(fp)
    31c0:	00001a06 	br	322c <vid_draw_triangle+0x318>
    {
//      vid_draw_horiz_line (tri->span_array[i*2], tri->span_array[(i*2)+1], i, tri->col, display);
      vid_draw_line (tri->span_array[i*2], i, tri->span_array[(i*2)+1], i, 1, tri->col, display);
    31c4:	e0bffe17 	ldw	r2,-8(fp)
    31c8:	10c00d17 	ldw	r3,52(r2)
    31cc:	e0bffd17 	ldw	r2,-12(fp)
    31d0:	100490fa 	slli	r2,r2,3
    31d4:	1885883a 	add	r2,r3,r2
    31d8:	11000017 	ldw	r4,0(r2)
    31dc:	e0bffe17 	ldw	r2,-8(fp)
    31e0:	10c00d17 	ldw	r3,52(r2)
    31e4:	e0bffd17 	ldw	r2,-12(fp)
    31e8:	100490fa 	slli	r2,r2,3
    31ec:	1885883a 	add	r2,r3,r2
    31f0:	10800104 	addi	r2,r2,4
    31f4:	11800017 	ldw	r6,0(r2)
    31f8:	e0bffe17 	ldw	r2,-8(fp)
    31fc:	10c00a17 	ldw	r3,40(r2)
    3200:	00800044 	movi	r2,1
    3204:	d8800015 	stw	r2,0(sp)
    3208:	d8c00115 	stw	r3,4(sp)
    320c:	e0bfff17 	ldw	r2,-4(fp)
    3210:	d8800215 	stw	r2,8(sp)
    3214:	e17ffd17 	ldw	r5,-12(fp)
    3218:	e1fffd17 	ldw	r7,-12(fp)
    321c:	00006580 	call	658 <vid_draw_line>
                         tri->vertex_x[2], tri->vertex_y[2], tri->span_array);
    vid_bres_scan_edges( tri->vertex_x[2], tri->vertex_y[2], 
                         tri->vertex_x[0], tri->vertex_y[0], tri->span_array);
  
    // Render the polygon
    for( i = tri->top_y; i <= tri->bottom_y; i++ )
    3220:	e0bffd17 	ldw	r2,-12(fp)
    3224:	10800044 	addi	r2,r2,1
    3228:	e0bffd15 	stw	r2,-12(fp)
    322c:	e0bffe17 	ldw	r2,-8(fp)
    3230:	10c00917 	ldw	r3,36(r2)
    3234:	e0bffd17 	ldw	r2,-12(fp)
    3238:	18bfe20e 	bge	r3,r2,31c4 <vid_draw_triangle+0x2b0>
    {
//      vid_draw_horiz_line (tri->span_array[i*2], tri->span_array[(i*2)+1], i, tri->col, display);
      vid_draw_line (tri->span_array[i*2], i, tri->span_array[(i*2)+1], i, 1, tri->col, display);

    }
    free(tri->span_array);
    323c:	e0bffe17 	ldw	r2,-8(fp)
    3240:	11000d17 	ldw	r4,52(r2)
    3244:	000a7540 	call	a754 <free>
  }
}
    3248:	e037883a 	mov	sp,fp
    324c:	dfc00117 	ldw	ra,4(sp)
    3250:	df000017 	ldw	fp,0(sp)
    3254:	dec00204 	addi	sp,sp,8
    3258:	f800283a 	ret

0000325c <CopyImage16>:

void CopyImage16( short * __restrict__ source_buffer, 
                  short * __restrict__ dest_buffer, 
                  short source_width, short source_height,
                  short dest_width, short dest_height )
{
    325c:	defff404 	addi	sp,sp,-48
    3260:	dfc00b15 	stw	ra,44(sp)
    3264:	df000a15 	stw	fp,40(sp)
    3268:	df000a04 	addi	fp,sp,40
    326c:	e13ffa15 	stw	r4,-24(fp)
    3270:	e17ffb15 	stw	r5,-20(fp)
    3274:	e0800217 	ldw	r2,8(fp)
    3278:	e0c00317 	ldw	r3,12(fp)
    327c:	e1bffc0d 	sth	r6,-16(fp)
    3280:	e1fffd0d 	sth	r7,-12(fp)
    3284:	e0bffe0d 	sth	r2,-8(fp)
    3288:	e0ffff0d 	sth	r3,-4(fp)
  int y_src, y_dst;
  int y_src_offset = 0;
    328c:	e03ff715 	stw	zero,-36(fp)
  int y_dst_offset = 0;
    3290:	e03ff615 	stw	zero,-40(fp)
  
  for( y_src = 0, y_dst = 0; 
    3294:	e03ff915 	stw	zero,-28(fp)
    3298:	e03ff815 	stw	zero,-32(fp)
       y_src <= ( source_height  - 1 ); 
    329c:	00001d06 	br	3314 <CopyImage16+0xb8>
       y_src++, y_dst++, y_src_offset += source_width, y_dst_offset += dest_width )
  {
    memcpy(( dest_buffer + y_dst_offset ), 
    32a0:	e0bff617 	ldw	r2,-40(fp)
    32a4:	1085883a 	add	r2,r2,r2
    32a8:	1007883a 	mov	r3,r2
    32ac:	e0bffb17 	ldw	r2,-20(fp)
    32b0:	1889883a 	add	r4,r3,r2
    32b4:	e0bff717 	ldw	r2,-36(fp)
    32b8:	1085883a 	add	r2,r2,r2
    32bc:	1007883a 	mov	r3,r2
    32c0:	e0bffa17 	ldw	r2,-24(fp)
    32c4:	1887883a 	add	r3,r3,r2
    32c8:	e0bffc0f 	ldh	r2,-16(fp)
    32cc:	1085883a 	add	r2,r2,r2
    32d0:	180b883a 	mov	r5,r3
    32d4:	100d883a 	mov	r6,r2
    32d8:	000aebc0 	call	aebc <memcpy>
  int y_src_offset = 0;
  int y_dst_offset = 0;
  
  for( y_src = 0, y_dst = 0; 
       y_src <= ( source_height  - 1 ); 
       y_src++, y_dst++, y_src_offset += source_width, y_dst_offset += dest_width )
    32dc:	e0bff917 	ldw	r2,-28(fp)
    32e0:	10800044 	addi	r2,r2,1
    32e4:	e0bff915 	stw	r2,-28(fp)
    32e8:	e0bff817 	ldw	r2,-32(fp)
    32ec:	10800044 	addi	r2,r2,1
    32f0:	e0bff815 	stw	r2,-32(fp)
    32f4:	e0fffc0f 	ldh	r3,-16(fp)
    32f8:	e0bff717 	ldw	r2,-36(fp)
    32fc:	10c5883a 	add	r2,r2,r3
    3300:	e0bff715 	stw	r2,-36(fp)
    3304:	e0fffe0f 	ldh	r3,-8(fp)
    3308:	e0bff617 	ldw	r2,-40(fp)
    330c:	10c5883a 	add	r2,r2,r3
    3310:	e0bff615 	stw	r2,-40(fp)
  int y_src, y_dst;
  int y_src_offset = 0;
  int y_dst_offset = 0;
  
  for( y_src = 0, y_dst = 0; 
       y_src <= ( source_height  - 1 ); 
    3314:	e0bffd0f 	ldh	r2,-12(fp)
    3318:	10ffffc4 	addi	r3,r2,-1
    331c:	e0bff917 	ldw	r2,-28(fp)
    3320:	18bfdf0e 	bge	r3,r2,32a0 <CopyImage16+0x44>
  {
    memcpy(( dest_buffer + y_dst_offset ), 
           ( source_buffer + y_src_offset ), 
           ( source_width << 1 ));
  }
}
    3324:	e037883a 	mov	sp,fp
    3328:	dfc00117 	ldw	ra,4(sp)
    332c:	df000017 	ldw	fp,0(sp)
    3330:	dec00204 	addi	sp,sp,8
    3334:	f800283a 	ret

00003338 <CropImage16>:
                  short * __restrict__ dest_buffer, 
                  short source_width, short source_height,
                  short crop_left, short crop_right,
                  short crop_top, short crop_bottom,
                  short dest_width, short dest_height )
{
    3338:	defff004 	addi	sp,sp,-64
    333c:	dfc00f15 	stw	ra,60(sp)
    3340:	df000e15 	stw	fp,56(sp)
    3344:	df000e04 	addi	fp,sp,56
    3348:	e13ff615 	stw	r4,-40(fp)
    334c:	e17ff715 	stw	r5,-36(fp)
    3350:	e0800217 	ldw	r2,8(fp)
    3354:	e0c00317 	ldw	r3,12(fp)
    3358:	e1000417 	ldw	r4,16(fp)
    335c:	e1400517 	ldw	r5,20(fp)
    3360:	e2000617 	ldw	r8,24(fp)
    3364:	e2400717 	ldw	r9,28(fp)
    3368:	e1bff80d 	sth	r6,-32(fp)
    336c:	e1fff90d 	sth	r7,-28(fp)
    3370:	e0bffa0d 	sth	r2,-24(fp)
    3374:	e0fffb0d 	sth	r3,-20(fp)
    3378:	e13ffc0d 	sth	r4,-16(fp)
    337c:	e17ffd0d 	sth	r5,-12(fp)
    3380:	e23ffe0d 	sth	r8,-8(fp)
    3384:	e27fff0d 	sth	r9,-4(fp)
  int y_src, y_dst;
  int y_src_offset = (source_width * crop_top);
    3388:	e13ff80f 	ldh	r4,-32(fp)
    338c:	e17ffc0f 	ldh	r5,-16(fp)
    3390:	000a0540 	call	a054 <__mulsi3>
    3394:	e0bff315 	stw	r2,-52(fp)
  int y_dst_offset = 0;
    3398:	e03ff215 	stw	zero,-56(fp)
  
  for( y_src = crop_top, y_dst = 0; 
    339c:	e0bffc0f 	ldh	r2,-16(fp)
    33a0:	e0bff515 	stw	r2,-44(fp)
    33a4:	e03ff415 	stw	zero,-48(fp)
       y_src <= ( source_height - crop_bottom - 1 ); 
    33a8:	00002306 	br	3438 <CropImage16+0x100>
       y_src++, y_dst++, y_src_offset += source_width, y_dst_offset += dest_width )
  {
    memcpy(( dest_buffer + y_dst_offset ), 
    33ac:	e0bff217 	ldw	r2,-56(fp)
    33b0:	1085883a 	add	r2,r2,r2
    33b4:	1007883a 	mov	r3,r2
    33b8:	e0bff717 	ldw	r2,-36(fp)
    33bc:	1889883a 	add	r4,r3,r2
    33c0:	e0bffa0f 	ldh	r2,-24(fp)
    33c4:	1007883a 	mov	r3,r2
    33c8:	e0bff317 	ldw	r2,-52(fp)
    33cc:	1885883a 	add	r2,r3,r2
    33d0:	1085883a 	add	r2,r2,r2
    33d4:	1007883a 	mov	r3,r2
    33d8:	e0bff617 	ldw	r2,-40(fp)
    33dc:	188b883a 	add	r5,r3,r2
    33e0:	e0fff80f 	ldh	r3,-32(fp)
    33e4:	e0bffa0f 	ldh	r2,-24(fp)
    33e8:	1887c83a 	sub	r3,r3,r2
    33ec:	e0bffb0f 	ldh	r2,-20(fp)
    33f0:	1885c83a 	sub	r2,r3,r2
    33f4:	1085883a 	add	r2,r2,r2
    33f8:	100d883a 	mov	r6,r2
    33fc:	000aebc0 	call	aebc <memcpy>
  int y_src_offset = (source_width * crop_top);
  int y_dst_offset = 0;
  
  for( y_src = crop_top, y_dst = 0; 
       y_src <= ( source_height - crop_bottom - 1 ); 
       y_src++, y_dst++, y_src_offset += source_width, y_dst_offset += dest_width )
    3400:	e0bff517 	ldw	r2,-44(fp)
    3404:	10800044 	addi	r2,r2,1
    3408:	e0bff515 	stw	r2,-44(fp)
    340c:	e0bff417 	ldw	r2,-48(fp)
    3410:	10800044 	addi	r2,r2,1
    3414:	e0bff415 	stw	r2,-48(fp)
    3418:	e0fff80f 	ldh	r3,-32(fp)
    341c:	e0bff317 	ldw	r2,-52(fp)
    3420:	10c5883a 	add	r2,r2,r3
    3424:	e0bff315 	stw	r2,-52(fp)
    3428:	e0fffe0f 	ldh	r3,-8(fp)
    342c:	e0bff217 	ldw	r2,-56(fp)
    3430:	10c5883a 	add	r2,r2,r3
    3434:	e0bff215 	stw	r2,-56(fp)
  int y_src, y_dst;
  int y_src_offset = (source_width * crop_top);
  int y_dst_offset = 0;
  
  for( y_src = crop_top, y_dst = 0; 
       y_src <= ( source_height - crop_bottom - 1 ); 
    3438:	e0fff90f 	ldh	r3,-28(fp)
    343c:	e0bffd0f 	ldh	r2,-12(fp)
    3440:	1885c83a 	sub	r2,r3,r2
    3444:	10ffffc4 	addi	r3,r2,-1
    3448:	e0bff517 	ldw	r2,-44(fp)
    344c:	18bfd70e 	bge	r3,r2,33ac <CropImage16+0x74>
  {
    memcpy(( dest_buffer + y_dst_offset ), 
           ( source_buffer + y_src_offset + crop_left ), 
           ((source_width - crop_left - crop_right) << 1));
  }
}
    3450:	e037883a 	mov	sp,fp
    3454:	dfc00117 	ldw	ra,4(sp)
    3458:	df000017 	ldw	fp,0(sp)
    345c:	dec00204 	addi	sp,sp,8
    3460:	f800283a 	ret

00003464 <vid_print_string_alpha>:
*           24 bit - R(8):G(8):B(8)  (packed)
*           32 bit - 0 : R(8):G(8):B(8) (unpacked)
******************************************************************/

int vid_print_string_alpha(int horiz_offset, int vert_offset, int color, int background_color, struct abc_font_struct font[], alt_video_display * display, char string[])
{
    3464:	defff404 	addi	sp,sp,-48
    3468:	dfc00b15 	stw	ra,44(sp)
    346c:	df000a15 	stw	fp,40(sp)
    3470:	df000a04 	addi	fp,sp,40
    3474:	e13ffc15 	stw	r4,-16(fp)
    3478:	e17ffd15 	stw	r5,-12(fp)
    347c:	e1bffe15 	stw	r6,-8(fp)
    3480:	e1ffff15 	stw	r7,-4(fp)
  int i = 0;
    3484:	e03ffb15 	stw	zero,-20(fp)
  int tab;
  int original_horiz_offset;

  original_horiz_offset = horiz_offset;
    3488:	e0bffc17 	ldw	r2,-16(fp)
    348c:	e0bff915 	stw	r2,-28(fp)

  // Print until we hit the '\0' char.
  while (string[i]) {
    3490:	00008206 	br	369c <vid_print_string_alpha+0x238>
    //Handle newline char here.
    if (string[i] == '\n') {
    3494:	e0bffb17 	ldw	r2,-20(fp)
    3498:	1007883a 	mov	r3,r2
    349c:	e0800417 	ldw	r2,16(fp)
    34a0:	1885883a 	add	r2,r3,r2
    34a4:	10800003 	ldbu	r2,0(r2)
    34a8:	10803fcc 	andi	r2,r2,255
    34ac:	1080201c 	xori	r2,r2,128
    34b0:	10bfe004 	addi	r2,r2,-128
    34b4:	10800298 	cmpnei	r2,r2,10
    34b8:	10000c1e 	bne	r2,zero,34ec <vid_print_string_alpha+0x88>
      horiz_offset = original_horiz_offset;
    34bc:	e0bff917 	ldw	r2,-28(fp)
    34c0:	e0bffc15 	stw	r2,-16(fp)
      vert_offset += font['|' - 33].bounds_height;  // we'll use "|" to add the line to line spacing
    34c4:	e0800217 	ldw	r2,8(fp)
    34c8:	1082d804 	addi	r2,r2,2912
    34cc:	10c00517 	ldw	r3,20(r2)
    34d0:	e0bffd17 	ldw	r2,-12(fp)
    34d4:	1885883a 	add	r2,r3,r2
    34d8:	e0bffd15 	stw	r2,-12(fp)
      i++;
    34dc:	e0bffb17 	ldw	r2,-20(fp)
    34e0:	10800044 	addi	r2,r2,1
    34e4:	e0bffb15 	stw	r2,-20(fp)
      continue;
    34e8:	00006c06 	br	369c <vid_print_string_alpha+0x238>
    }
    // Lay down that character and increment our offsets.
    if(string[i] == 32)  // this is a space in ASCII
    34ec:	e0bffb17 	ldw	r2,-20(fp)
    34f0:	1007883a 	mov	r3,r2
    34f4:	e0800417 	ldw	r2,16(fp)
    34f8:	1885883a 	add	r2,r3,r2
    34fc:	10800003 	ldbu	r2,0(r2)
    3500:	10803fcc 	andi	r2,r2,255
    3504:	1080201c 	xori	r2,r2,128
    3508:	10bfe004 	addi	r2,r2,-128
    350c:	10800818 	cmpnei	r2,r2,32
    3510:	1000151e 	bne	r2,zero,3568 <vid_print_string_alpha+0x104>
    {
      if(background_color != CLEAR_BACKGROUND)  // need to fill in this spot (setting foreground to background color so that it looks like a drawn in box)
    3514:	e0bfff17 	ldw	r2,-4(fp)
    3518:	10bfffe0 	cmpeqi	r2,r2,-1
    351c:	10000b1e 	bne	r2,zero,354c <vid_print_string_alpha+0xe8>
      {
        vid_print_char_alpha (horiz_offset, vert_offset, background_color, '-', background_color, font, display);
    3520:	e0bfff17 	ldw	r2,-4(fp)
    3524:	d8800015 	stw	r2,0(sp)
    3528:	e0800217 	ldw	r2,8(fp)
    352c:	d8800115 	stw	r2,4(sp)
    3530:	e0800317 	ldw	r2,12(fp)
    3534:	d8800215 	stw	r2,8(sp)
    3538:	e13ffc17 	ldw	r4,-16(fp)
    353c:	e17ffd17 	ldw	r5,-12(fp)
    3540:	e1bfff17 	ldw	r6,-4(fp)
    3544:	01c00b44 	movi	r7,45
    3548:	0003e600 	call	3e60 <vid_print_char_alpha>
      }
      horiz_offset += font[45 - 33].bounds_width;  // using the width of the '-' character for the space width since it's not present in the font
    354c:	e0800217 	ldw	r2,8(fp)
    3550:	10806004 	addi	r2,r2,384
    3554:	10c00417 	ldw	r3,16(r2)
    3558:	e0bffc17 	ldw	r2,-16(fp)
    355c:	1885883a 	add	r2,r3,r2
    3560:	e0bffc15 	stw	r2,-16(fp)
    3564:	00004a06 	br	3690 <vid_print_string_alpha+0x22c>
    }
    else if(string[i] == '\t')  // this is a tab
    3568:	e0bffb17 	ldw	r2,-20(fp)
    356c:	1007883a 	mov	r3,r2
    3570:	e0800417 	ldw	r2,16(fp)
    3574:	1885883a 	add	r2,r3,r2
    3578:	10800003 	ldbu	r2,0(r2)
    357c:	10803fcc 	andi	r2,r2,255
    3580:	1080201c 	xori	r2,r2,128
    3584:	10bfe004 	addi	r2,r2,-128
    3588:	10800258 	cmpnei	r2,r2,9
    358c:	10001d1e 	bne	r2,zero,3604 <vid_print_string_alpha+0x1a0>
    {
      for( tab = 0; tab < TAB_SPACING; tab++ )
    3590:	e03ffa15 	stw	zero,-24(fp)
    3594:	00001706 	br	35f4 <vid_print_string_alpha+0x190>
      {
        if(background_color != CLEAR_BACKGROUND)  // need to fill in this spot (setting foreground to background color so that it looks like a drawn in box)
    3598:	e0bfff17 	ldw	r2,-4(fp)
    359c:	10bfffe0 	cmpeqi	r2,r2,-1
    35a0:	10000b1e 	bne	r2,zero,35d0 <vid_print_string_alpha+0x16c>
        {
          vid_print_char_alpha (horiz_offset, vert_offset, background_color, '-', background_color, font, display);
    35a4:	e0bfff17 	ldw	r2,-4(fp)
    35a8:	d8800015 	stw	r2,0(sp)
    35ac:	e0800217 	ldw	r2,8(fp)
    35b0:	d8800115 	stw	r2,4(sp)
    35b4:	e0800317 	ldw	r2,12(fp)
    35b8:	d8800215 	stw	r2,8(sp)
    35bc:	e13ffc17 	ldw	r4,-16(fp)
    35c0:	e17ffd17 	ldw	r5,-12(fp)
    35c4:	e1bfff17 	ldw	r6,-4(fp)
    35c8:	01c00b44 	movi	r7,45
    35cc:	0003e600 	call	3e60 <vid_print_char_alpha>
        }
        horiz_offset += font[45 - 33].bounds_width;  // using the width of the '-' character for the space width since it's not present in the font
    35d0:	e0800217 	ldw	r2,8(fp)
    35d4:	10806004 	addi	r2,r2,384
    35d8:	10c00417 	ldw	r3,16(r2)
    35dc:	e0bffc17 	ldw	r2,-16(fp)
    35e0:	1885883a 	add	r2,r3,r2
    35e4:	e0bffc15 	stw	r2,-16(fp)
      }
      horiz_offset += font[45 - 33].bounds_width;  // using the width of the '-' character for the space width since it's not present in the font
    }
    else if(string[i] == '\t')  // this is a tab
    {
      for( tab = 0; tab < TAB_SPACING; tab++ )
    35e8:	e0bffa17 	ldw	r2,-24(fp)
    35ec:	10800044 	addi	r2,r2,1
    35f0:	e0bffa15 	stw	r2,-24(fp)
    35f4:	e0bffa17 	ldw	r2,-24(fp)
    35f8:	10800090 	cmplti	r2,r2,2
    35fc:	103fe61e 	bne	r2,zero,3598 <vid_print_string_alpha+0x134>
    3600:	00002306 	br	3690 <vid_print_string_alpha+0x22c>
        horiz_offset += font[45 - 33].bounds_width;  // using the width of the '-' character for the space width since it's not present in the font
      }
    }
    else
    {
      vid_print_char_alpha (horiz_offset, vert_offset, color, string[i], background_color, font, display);
    3604:	e0bffb17 	ldw	r2,-20(fp)
    3608:	1007883a 	mov	r3,r2
    360c:	e0800417 	ldw	r2,16(fp)
    3610:	1885883a 	add	r2,r3,r2
    3614:	10800003 	ldbu	r2,0(r2)
    3618:	11c03fcc 	andi	r7,r2,255
    361c:	39c0201c 	xori	r7,r7,128
    3620:	39ffe004 	addi	r7,r7,-128
    3624:	e0bfff17 	ldw	r2,-4(fp)
    3628:	d8800015 	stw	r2,0(sp)
    362c:	e0800217 	ldw	r2,8(fp)
    3630:	d8800115 	stw	r2,4(sp)
    3634:	e0800317 	ldw	r2,12(fp)
    3638:	d8800215 	stw	r2,8(sp)
    363c:	e13ffc17 	ldw	r4,-16(fp)
    3640:	e17ffd17 	ldw	r5,-12(fp)
    3644:	e1bffe17 	ldw	r6,-8(fp)
    3648:	0003e600 	call	3e60 <vid_print_char_alpha>
      horiz_offset += font[string[i] - 33].bounds_width;
    364c:	e0bffb17 	ldw	r2,-20(fp)
    3650:	1007883a 	mov	r3,r2
    3654:	e0800417 	ldw	r2,16(fp)
    3658:	1885883a 	add	r2,r3,r2
    365c:	10800003 	ldbu	r2,0(r2)
    3660:	10803fcc 	andi	r2,r2,255
    3664:	1080201c 	xori	r2,r2,128
    3668:	10bfe004 	addi	r2,r2,-128
    366c:	1004917a 	slli	r2,r2,5
    3670:	1007883a 	mov	r3,r2
    3674:	e0800217 	ldw	r2,8(fp)
    3678:	1885883a 	add	r2,r3,r2
    367c:	10bef804 	addi	r2,r2,-1056
    3680:	10c00417 	ldw	r3,16(r2)
    3684:	e0bffc17 	ldw	r2,-16(fp)
    3688:	1885883a 	add	r2,r3,r2
    368c:	e0bffc15 	stw	r2,-16(fp)
    }
    i++;
    3690:	e0bffb17 	ldw	r2,-20(fp)
    3694:	10800044 	addi	r2,r2,1
    3698:	e0bffb15 	stw	r2,-20(fp)
  int original_horiz_offset;

  original_horiz_offset = horiz_offset;

  // Print until we hit the '\0' char.
  while (string[i]) {
    369c:	e0bffb17 	ldw	r2,-20(fp)
    36a0:	1007883a 	mov	r3,r2
    36a4:	e0800417 	ldw	r2,16(fp)
    36a8:	1885883a 	add	r2,r3,r2
    36ac:	10800003 	ldbu	r2,0(r2)
    36b0:	10803fcc 	andi	r2,r2,255
    36b4:	1080201c 	xori	r2,r2,128
    36b8:	10bfe004 	addi	r2,r2,-128
    36bc:	1004c03a 	cmpne	r2,r2,zero
    36c0:	103f741e 	bne	r2,zero,3494 <vid_print_string_alpha+0x30>
      vid_print_char_alpha (horiz_offset, vert_offset, color, string[i], background_color, font, display);
      horiz_offset += font[string[i] - 33].bounds_width;
    }
    i++;
  }
  return (0);
    36c4:	0005883a 	mov	r2,zero
}
    36c8:	e037883a 	mov	sp,fp
    36cc:	dfc00117 	ldw	ra,4(sp)
    36d0:	df000017 	ldw	fp,0(sp)
    36d4:	dec00204 	addi	sp,sp,8
    36d8:	f800283a 	ret

000036dc <seperate_color_channels>:
*           the function working on pointers.
*
******************************************************************/

__inline__ int seperate_color_channels(int color_depth, unsigned char * color, unsigned char * red, unsigned char * green, unsigned char * blue)
{
    36dc:	defff904 	addi	sp,sp,-28
    36e0:	df000615 	stw	fp,24(sp)
    36e4:	df000604 	addi	fp,sp,24
    36e8:	e13ffc15 	stw	r4,-16(fp)
    36ec:	e17ffd15 	stw	r5,-12(fp)
    36f0:	e1bffe15 	stw	r6,-8(fp)
    36f4:	e1ffff15 	stw	r7,-4(fp)
  int return_value;  // error checking in case anyone is listening
  unsigned short temp_color = 0;
    36f8:	e03ffa0d 	sth	zero,-24(fp)
  
  if (color_depth == 16)  // R(5):G(6):B(5)
    36fc:	e0bffc17 	ldw	r2,-16(fp)
    3700:	10800418 	cmpnei	r2,r2,16
    3704:	1000231e 	bne	r2,zero,3794 <seperate_color_channels+0xb8>
  {
    temp_color = *color++;        // get the first half of the 16 bit color
    3708:	e0bffd17 	ldw	r2,-12(fp)
    370c:	10800003 	ldbu	r2,0(r2)
    3710:	10803fcc 	andi	r2,r2,255
    3714:	e0bffa0d 	sth	r2,-24(fp)
    3718:	e0bffd17 	ldw	r2,-12(fp)
    371c:	10800044 	addi	r2,r2,1
    3720:	e0bffd15 	stw	r2,-12(fp)
    temp_color += (*color << 8);  // get the second half of the 16 bit color
    3724:	e0bffd17 	ldw	r2,-12(fp)
    3728:	10800003 	ldbu	r2,0(r2)
    372c:	10803fcc 	andi	r2,r2,255
    3730:	1004923a 	slli	r2,r2,8
    3734:	1007883a 	mov	r3,r2
    3738:	e0bffa0b 	ldhu	r2,-24(fp)
    373c:	10c5883a 	add	r2,r2,r3
    3740:	e0bffa0d 	sth	r2,-24(fp)
    *blue = temp_color & 0x1F; 
    3744:	e0bffa0b 	ldhu	r2,-24(fp)
    3748:	108007cc 	andi	r2,r2,31
    374c:	1007883a 	mov	r3,r2
    3750:	e0800117 	ldw	r2,4(fp)
    3754:	10c00005 	stb	r3,0(r2)
    *green = (temp_color >> 5) & 0x3F;
    3758:	e0bffa0b 	ldhu	r2,-24(fp)
    375c:	1004d17a 	srli	r2,r2,5
    3760:	10800fcc 	andi	r2,r2,63
    3764:	1007883a 	mov	r3,r2
    3768:	e0bfff17 	ldw	r2,-4(fp)
    376c:	10c00005 	stb	r3,0(r2)
    *red = (temp_color >> 11) & 0x1F;
    3770:	e0bffa0b 	ldhu	r2,-24(fp)
    3774:	1004d2fa 	srli	r2,r2,11
    3778:	108007cc 	andi	r2,r2,31
    377c:	1007883a 	mov	r3,r2
    3780:	e0bffe17 	ldw	r2,-8(fp)
    3784:	10c00005 	stb	r3,0(r2)
    return_value = 1;
    3788:	00800044 	movi	r2,1
    378c:	e0bffb15 	stw	r2,-20(fp)
    3790:	00002206 	br	381c <seperate_color_channels+0x140>
  }
  else if ((color_depth == 24) || (color_depth == 32))  // R(8):G(8):B(8) packed/unpacked
    3794:	e0bffc17 	ldw	r2,-16(fp)
    3798:	10800620 	cmpeqi	r2,r2,24
    379c:	1000031e 	bne	r2,zero,37ac <seperate_color_channels+0xd0>
    37a0:	e0bffc17 	ldw	r2,-16(fp)
    37a4:	10800818 	cmpnei	r2,r2,32
    37a8:	1000151e 	bne	r2,zero,3800 <seperate_color_channels+0x124>
  {
    *blue = *color++;
    37ac:	e0bffd17 	ldw	r2,-12(fp)
    37b0:	10c00003 	ldbu	r3,0(r2)
    37b4:	e0800117 	ldw	r2,4(fp)
    37b8:	10c00005 	stb	r3,0(r2)
    37bc:	e0bffd17 	ldw	r2,-12(fp)
    37c0:	10800044 	addi	r2,r2,1
    37c4:	e0bffd15 	stw	r2,-12(fp)
    *green = *color++;
    37c8:	e0bffd17 	ldw	r2,-12(fp)
    37cc:	10c00003 	ldbu	r3,0(r2)
    37d0:	e0bfff17 	ldw	r2,-4(fp)
    37d4:	10c00005 	stb	r3,0(r2)
    37d8:	e0bffd17 	ldw	r2,-12(fp)
    37dc:	10800044 	addi	r2,r2,1
    37e0:	e0bffd15 	stw	r2,-12(fp)
    *red = *color;   
    37e4:	e0bffd17 	ldw	r2,-12(fp)
    37e8:	10c00003 	ldbu	r3,0(r2)
    37ec:	e0bffe17 	ldw	r2,-8(fp)
    37f0:	10c00005 	stb	r3,0(r2)
    return_value = 1;
    37f4:	00800044 	movi	r2,1
    37f8:	e0bffb15 	stw	r2,-20(fp)
    *blue = temp_color & 0x1F; 
    *green = (temp_color >> 5) & 0x3F;
    *red = (temp_color >> 11) & 0x1F;
    return_value = 1;
  }
  else if ((color_depth == 24) || (color_depth == 32))  // R(8):G(8):B(8) packed/unpacked
    37fc:	00000706 	br	381c <seperate_color_channels+0x140>
    *red = *color;   
    return_value = 1;
  }
  else  // not a valid color depth for this function
  {
    *red = 0;
    3800:	e0bffe17 	ldw	r2,-8(fp)
    3804:	10000005 	stb	zero,0(r2)
    *green = 0;
    3808:	e0bfff17 	ldw	r2,-4(fp)
    380c:	10000005 	stb	zero,0(r2)
    *blue = 0;    
    3810:	e0800117 	ldw	r2,4(fp)
    3814:	10000005 	stb	zero,0(r2)
    return_value = 0;    
    3818:	e03ffb15 	stw	zero,-20(fp)
  }
  return return_value;
    381c:	e0bffb17 	ldw	r2,-20(fp)
}
    3820:	e037883a 	mov	sp,fp
    3824:	df000017 	ldw	fp,0(sp)
    3828:	dec00104 	addi	sp,sp,4
    382c:	f800283a 	ret

00003830 <merge_color_channels>:
*           different color formats and packing.
*
******************************************************************/

__inline__ int merge_color_channels(int color_depth, unsigned char red, unsigned char green, unsigned char blue, unsigned char * color)
{
    3830:	defff904 	addi	sp,sp,-28
    3834:	df000615 	stw	fp,24(sp)
    3838:	df000604 	addi	fp,sp,24
    383c:	e13ffc15 	stw	r4,-16(fp)
    3840:	e17ffd05 	stb	r5,-12(fp)
    3844:	e1bffe05 	stb	r6,-8(fp)
    3848:	e1ffff05 	stb	r7,-4(fp)
  int return_value;  // error checking in case anyone is listening
  unsigned short temp_color;
    
  if (color_depth == 16)  // R(5):G(6):B(5)
    384c:	e0bffc17 	ldw	r2,-16(fp)
    3850:	10800418 	cmpnei	r2,r2,16
    3854:	1000221e 	bne	r2,zero,38e0 <merge_color_channels+0xb0>
  {
    temp_color = (blue & 0x1F) | ((green & 0x3F) << 5) | ((red & 0x1F) << 11);  // 16 bit color format
    3858:	e0bfff03 	ldbu	r2,-4(fp)
    385c:	108007cc 	andi	r2,r2,31
    3860:	1007883a 	mov	r3,r2
    3864:	e0bffe03 	ldbu	r2,-8(fp)
    3868:	10800fcc 	andi	r2,r2,63
    386c:	1004917a 	slli	r2,r2,5
    3870:	1884b03a 	or	r2,r3,r2
    3874:	1007883a 	mov	r3,r2
    3878:	e0bffd03 	ldbu	r2,-12(fp)
    387c:	108007cc 	andi	r2,r2,31
    3880:	100492fa 	slli	r2,r2,11
    3884:	1884b03a 	or	r2,r3,r2
    3888:	e0bffa0d 	sth	r2,-24(fp)
    *color++ = temp_color & 0xFF;
    388c:	e0bffa0b 	ldhu	r2,-24(fp)
    3890:	1007883a 	mov	r3,r2
    3894:	00bfffc4 	movi	r2,-1
    3898:	1884703a 	and	r2,r3,r2
    389c:	1007883a 	mov	r3,r2
    38a0:	e0800117 	ldw	r2,4(fp)
    38a4:	10c00005 	stb	r3,0(r2)
    38a8:	e0800117 	ldw	r2,4(fp)
    38ac:	10800044 	addi	r2,r2,1
    38b0:	e0800115 	stw	r2,4(fp)
    *color = (temp_color >> 8) & 0xFF;
    38b4:	e0bffa0b 	ldhu	r2,-24(fp)
    38b8:	1004d23a 	srli	r2,r2,8
    38bc:	1007883a 	mov	r3,r2
    38c0:	00bfffc4 	movi	r2,-1
    38c4:	1884703a 	and	r2,r3,r2
    38c8:	1007883a 	mov	r3,r2
    38cc:	e0800117 	ldw	r2,4(fp)
    38d0:	10c00005 	stb	r3,0(r2)
    return_value = 1;
    38d4:	00800044 	movi	r2,1
    38d8:	e0bffb15 	stw	r2,-20(fp)
    38dc:	00002506 	br	3974 <merge_color_channels+0x144>
  }
  else if ((color_depth == 24) || (color_depth == 32))  // R(8):G(8):B(8) packed/unpacked
    38e0:	e0bffc17 	ldw	r2,-16(fp)
    38e4:	10800620 	cmpeqi	r2,r2,24
    38e8:	1000031e 	bne	r2,zero,38f8 <merge_color_channels+0xc8>
    38ec:	e0bffc17 	ldw	r2,-16(fp)
    38f0:	10800818 	cmpnei	r2,r2,32
    38f4:	1000121e 	bne	r2,zero,3940 <merge_color_channels+0x110>
  {
    *color++ = blue;
    38f8:	e0c00117 	ldw	r3,4(fp)
    38fc:	e0bfff03 	ldbu	r2,-4(fp)
    3900:	18800005 	stb	r2,0(r3)
    3904:	e0800117 	ldw	r2,4(fp)
    3908:	10800044 	addi	r2,r2,1
    390c:	e0800115 	stw	r2,4(fp)
    *color++ = green;
    3910:	e0c00117 	ldw	r3,4(fp)
    3914:	e0bffe03 	ldbu	r2,-8(fp)
    3918:	18800005 	stb	r2,0(r3)
    391c:	e0800117 	ldw	r2,4(fp)
    3920:	10800044 	addi	r2,r2,1
    3924:	e0800115 	stw	r2,4(fp)
    *color = red;
    3928:	e0c00117 	ldw	r3,4(fp)
    392c:	e0bffd03 	ldbu	r2,-12(fp)
    3930:	18800005 	stb	r2,0(r3)
    return_value = 1;
    3934:	00800044 	movi	r2,1
    3938:	e0bffb15 	stw	r2,-20(fp)
    temp_color = (blue & 0x1F) | ((green & 0x3F) << 5) | ((red & 0x1F) << 11);  // 16 bit color format
    *color++ = temp_color & 0xFF;
    *color = (temp_color >> 8) & 0xFF;
    return_value = 1;
  }
  else if ((color_depth == 24) || (color_depth == 32))  // R(8):G(8):B(8) packed/unpacked
    393c:	00000d06 	br	3974 <merge_color_channels+0x144>
    *color = red;
    return_value = 1;
  }
  else  // not a valid color depth for this function
  {
    *color++ = 0;
    3940:	e0800117 	ldw	r2,4(fp)
    3944:	10000005 	stb	zero,0(r2)
    3948:	e0800117 	ldw	r2,4(fp)
    394c:	10800044 	addi	r2,r2,1
    3950:	e0800115 	stw	r2,4(fp)
    *color++ = 0;
    3954:	e0800117 	ldw	r2,4(fp)
    3958:	10000005 	stb	zero,0(r2)
    395c:	e0800117 	ldw	r2,4(fp)
    3960:	10800044 	addi	r2,r2,1
    3964:	e0800115 	stw	r2,4(fp)
    *color = 0;
    3968:	e0800117 	ldw	r2,4(fp)
    396c:	10000005 	stb	zero,0(r2)
    return_value = 0;    
    3970:	e03ffb15 	stw	zero,-20(fp)
  }
  return return_value;  
    3974:	e0bffb17 	ldw	r2,-20(fp)
}
    3978:	e037883a 	mov	sp,fp
    397c:	df000017 	ldw	fp,0(sp)
    3980:	dec00104 	addi	sp,sp,4
    3984:	f800283a 	ret

00003988 <read_from_frame>:
*           needed to calculate the new one.
*
******************************************************************/

__inline__ int read_from_frame (int horiz, int vert, unsigned char *red, unsigned char *green, unsigned char *blue, alt_video_display * display)
{
    3988:	defff604 	addi	sp,sp,-40
    398c:	dfc00915 	stw	ra,36(sp)
    3990:	df000815 	stw	fp,32(sp)
    3994:	dc000715 	stw	r16,28(sp)
    3998:	df000704 	addi	fp,sp,28
    399c:	e13ffc15 	stw	r4,-16(fp)
    39a0:	e17ffd15 	stw	r5,-12(fp)
    39a4:	e1bffe15 	stw	r6,-8(fp)
    39a8:	e1ffff15 	stw	r7,-4(fp)
  int return_value;  // error checking in case anyone is listening
  unsigned int temp_color;
  unsigned int addr;
  
  if( display->color_depth == 32 )
    39ac:	e0800417 	ldw	r2,16(fp)
    39b0:	10800417 	ldw	r2,16(r2)
    39b4:	10800818 	cmpnei	r2,r2,32
    39b8:	1000221e 	bne	r2,zero,3a44 <read_from_frame+0xbc>
  {
    addr = ((unsigned int)VIPFR_GetDrawFrame(display)) + ((unsigned int)((vert * display->width * 4) + (horiz * 4)));
    39bc:	e1000417 	ldw	r4,16(fp)
    39c0:	00089b00 	call	89b0 <VIPFR_GetDrawFrame>
    39c4:	1021883a 	mov	r16,r2
    39c8:	e0800417 	ldw	r2,16(fp)
    39cc:	11000517 	ldw	r4,20(r2)
    39d0:	e17ffd17 	ldw	r5,-12(fp)
    39d4:	000a0540 	call	a054 <__mulsi3>
    39d8:	1007883a 	mov	r3,r2
    39dc:	e0bffc17 	ldw	r2,-16(fp)
    39e0:	1885883a 	add	r2,r3,r2
    39e4:	1085883a 	add	r2,r2,r2
    39e8:	1085883a 	add	r2,r2,r2
    39ec:	8085883a 	add	r2,r16,r2
    39f0:	e0bff915 	stw	r2,-28(fp)
    temp_color = IORD_32DIRECT(addr, 0);
    39f4:	e0bff917 	ldw	r2,-28(fp)
    39f8:	10800037 	ldwio	r2,0(r2)
    39fc:	e0bffa15 	stw	r2,-24(fp)
    *blue = (unsigned char)(temp_color & 0xFF);
    3a00:	e0bffa17 	ldw	r2,-24(fp)
    3a04:	1007883a 	mov	r3,r2
    3a08:	e0800317 	ldw	r2,12(fp)
    3a0c:	10c00005 	stb	r3,0(r2)
    *green = (unsigned char)((temp_color >> 8) & 0xFF);
    3a10:	e0bffa17 	ldw	r2,-24(fp)
    3a14:	1004d23a 	srli	r2,r2,8
    3a18:	1007883a 	mov	r3,r2
    3a1c:	e0bfff17 	ldw	r2,-4(fp)
    3a20:	10c00005 	stb	r3,0(r2)
    *red = (unsigned char)((temp_color >> 16) & 0xFF);
    3a24:	e0bffa17 	ldw	r2,-24(fp)
    3a28:	1004d43a 	srli	r2,r2,16
    3a2c:	1007883a 	mov	r3,r2
    3a30:	e0bffe17 	ldw	r2,-8(fp)
    3a34:	10c00005 	stb	r3,0(r2)
    return_value = 1;
    3a38:	00800044 	movi	r2,1
    3a3c:	e0bffb15 	stw	r2,-20(fp)
    3a40:	00005606 	br	3b9c <read_from_frame+0x214>
  }
  else if( display->color_depth == 24 )
    3a44:	e0800417 	ldw	r2,16(fp)
    3a48:	10800417 	ldw	r2,16(r2)
    3a4c:	10800618 	cmpnei	r2,r2,24
    3a50:	1000231e 	bne	r2,zero,3ae0 <read_from_frame+0x158>
  {
    addr = ((unsigned int)VIPFR_GetDrawFrame(display)) + ((unsigned int)((vert * display->width * 3) + (horiz * 3)));
    3a54:	e1000417 	ldw	r4,16(fp)
    3a58:	00089b00 	call	89b0 <VIPFR_GetDrawFrame>
    3a5c:	1021883a 	mov	r16,r2
    3a60:	e0800417 	ldw	r2,16(fp)
    3a64:	11000517 	ldw	r4,20(r2)
    3a68:	e17ffd17 	ldw	r5,-12(fp)
    3a6c:	000a0540 	call	a054 <__mulsi3>
    3a70:	1007883a 	mov	r3,r2
    3a74:	e0bffc17 	ldw	r2,-16(fp)
    3a78:	1887883a 	add	r3,r3,r2
    3a7c:	1805883a 	mov	r2,r3
    3a80:	1085883a 	add	r2,r2,r2
    3a84:	10c5883a 	add	r2,r2,r3
    3a88:	8085883a 	add	r2,r16,r2
    3a8c:	e0bff915 	stw	r2,-28(fp)
    *blue = IORD_8DIRECT(addr, 0);
    3a90:	e0bff917 	ldw	r2,-28(fp)
    3a94:	10800023 	ldbuio	r2,0(r2)
    3a98:	1007883a 	mov	r3,r2
    3a9c:	e0800317 	ldw	r2,12(fp)
    3aa0:	10c00005 	stb	r3,0(r2)
    *green = IORD_8DIRECT(addr, 1);
    3aa4:	e0bff917 	ldw	r2,-28(fp)
    3aa8:	10800044 	addi	r2,r2,1
    3aac:	10800023 	ldbuio	r2,0(r2)
    3ab0:	1007883a 	mov	r3,r2
    3ab4:	e0bfff17 	ldw	r2,-4(fp)
    3ab8:	10c00005 	stb	r3,0(r2)
    *red = IORD_8DIRECT(addr, 2);
    3abc:	e0bff917 	ldw	r2,-28(fp)
    3ac0:	10800084 	addi	r2,r2,2
    3ac4:	10800023 	ldbuio	r2,0(r2)
    3ac8:	1007883a 	mov	r3,r2
    3acc:	e0bffe17 	ldw	r2,-8(fp)
    3ad0:	10c00005 	stb	r3,0(r2)
    return_value = 1;
    3ad4:	00800044 	movi	r2,1
    3ad8:	e0bffb15 	stw	r2,-20(fp)
    3adc:	00002f06 	br	3b9c <read_from_frame+0x214>
  }
  else if( display->color_depth == 16 )
    3ae0:	e0800417 	ldw	r2,16(fp)
    3ae4:	10800417 	ldw	r2,16(r2)
    3ae8:	10800418 	cmpnei	r2,r2,16
    3aec:	1000241e 	bne	r2,zero,3b80 <read_from_frame+0x1f8>
  {
    addr = ((unsigned int)VIPFR_GetDrawFrame(display)) + ((unsigned int)((vert * display->width * 2) + (horiz * 2)));
    3af0:	e1000417 	ldw	r4,16(fp)
    3af4:	00089b00 	call	89b0 <VIPFR_GetDrawFrame>
    3af8:	1021883a 	mov	r16,r2
    3afc:	e0800417 	ldw	r2,16(fp)
    3b00:	11000517 	ldw	r4,20(r2)
    3b04:	e17ffd17 	ldw	r5,-12(fp)
    3b08:	000a0540 	call	a054 <__mulsi3>
    3b0c:	1007883a 	mov	r3,r2
    3b10:	e0bffc17 	ldw	r2,-16(fp)
    3b14:	1885883a 	add	r2,r3,r2
    3b18:	1085883a 	add	r2,r2,r2
    3b1c:	8085883a 	add	r2,r16,r2
    3b20:	e0bff915 	stw	r2,-28(fp)
    temp_color = (unsigned int)IORD_16DIRECT(addr, 0);
    3b24:	e0bff917 	ldw	r2,-28(fp)
    3b28:	1080002b 	ldhuio	r2,0(r2)
    3b2c:	e0bffa15 	stw	r2,-24(fp)
    *blue = (unsigned char)(temp_color & 0x1F); 
    3b30:	e0bffa17 	ldw	r2,-24(fp)
    3b34:	108007cc 	andi	r2,r2,31
    3b38:	1007883a 	mov	r3,r2
    3b3c:	e0800317 	ldw	r2,12(fp)
    3b40:	10c00005 	stb	r3,0(r2)
    *green = (unsigned char)((temp_color >> 5) & 0x3F);
    3b44:	e0bffa17 	ldw	r2,-24(fp)
    3b48:	1004d17a 	srli	r2,r2,5
    3b4c:	10800fcc 	andi	r2,r2,63
    3b50:	1007883a 	mov	r3,r2
    3b54:	e0bfff17 	ldw	r2,-4(fp)
    3b58:	10c00005 	stb	r3,0(r2)
    *red = (unsigned char)((temp_color >> 11) & 0x1F);
    3b5c:	e0bffa17 	ldw	r2,-24(fp)
    3b60:	1004d2fa 	srli	r2,r2,11
    3b64:	108007cc 	andi	r2,r2,31
    3b68:	1007883a 	mov	r3,r2
    3b6c:	e0bffe17 	ldw	r2,-8(fp)
    3b70:	10c00005 	stb	r3,0(r2)
    return_value = 1;
    3b74:	00800044 	movi	r2,1
    3b78:	e0bffb15 	stw	r2,-20(fp)
    3b7c:	00000706 	br	3b9c <read_from_frame+0x214>
  }
  else
  {
    *blue = 0;
    3b80:	e0800317 	ldw	r2,12(fp)
    3b84:	10000005 	stb	zero,0(r2)
    *red = 0;
    3b88:	e0bffe17 	ldw	r2,-8(fp)
    3b8c:	10000005 	stb	zero,0(r2)
    *green = 0;
    3b90:	e0bfff17 	ldw	r2,-4(fp)
    3b94:	10000005 	stb	zero,0(r2)
    return_value = 0; 
    3b98:	e03ffb15 	stw	zero,-20(fp)
  }

  return return_value;
    3b9c:	e0bffb17 	ldw	r2,-20(fp)
}
    3ba0:	e037883a 	mov	sp,fp
    3ba4:	dfc00217 	ldw	ra,8(sp)
    3ba8:	df000117 	ldw	fp,4(sp)
    3bac:	dc000017 	ldw	r16,0(sp)
    3bb0:	dec00304 	addi	sp,sp,12
    3bb4:	f800283a 	ret

00003bb8 <alpha_blending>:
*           the font color with the background color.
*
******************************************************************/

__inline__ int alpha_blending (int horiz_offset, int vert_offset, int background_color, unsigned char alpha, unsigned char *red, unsigned char *green, unsigned char *blue, alt_video_display * display)
{
    3bb8:	deffec04 	addi	sp,sp,-80
    3bbc:	dfc01315 	stw	ra,76(sp)
    3bc0:	df001215 	stw	fp,72(sp)
    3bc4:	dc001115 	stw	r16,68(sp)
    3bc8:	df001104 	addi	fp,sp,68
    3bcc:	e13ff615 	stw	r4,-40(fp)
    3bd0:	e17ff715 	stw	r5,-36(fp)
    3bd4:	e1bff815 	stw	r6,-32(fp)
    3bd8:	e1fff905 	stb	r7,-28(fp)
  int return_value;
  unsigned char background_red, background_green, background_blue;
  unsigned int blended_red, blended_green, blended_blue;  // short since there may be overflow to be clipped
  
  // set red, green, and blue of the background color
  if(background_color == CLEAR_BACKGROUND)
    3bdc:	e0bff817 	ldw	r2,-32(fp)
    3be0:	10bfffd8 	cmpnei	r2,r2,-1
    3be4:	10000a1e 	bne	r2,zero,3c10 <alpha_blending+0x58>
  {
    read_from_frame (horiz_offset, vert_offset, &background_red, &background_green, &background_blue, display);
    3be8:	e1bff504 	addi	r6,fp,-44
    3bec:	e1fff544 	addi	r7,fp,-43
    3bf0:	e0bff584 	addi	r2,fp,-42
    3bf4:	d8800015 	stw	r2,0(sp)
    3bf8:	e0800617 	ldw	r2,24(fp)
    3bfc:	d8800115 	stw	r2,4(sp)
    3c00:	e13ff617 	ldw	r4,-40(fp)
    3c04:	e17ff717 	ldw	r5,-36(fp)
    3c08:	00039880 	call	3988 <read_from_frame>
    3c0c:	00000806 	br	3c30 <alpha_blending+0x78>
  }
  else
  {
    seperate_color_channels(display->color_depth, (unsigned char *)&background_color, &background_red, &background_green, &background_blue);
    3c10:	e0800617 	ldw	r2,24(fp)
    3c14:	11000417 	ldw	r4,16(r2)
    3c18:	e17ff804 	addi	r5,fp,-32
    3c1c:	e1bff504 	addi	r6,fp,-44
    3c20:	e1fff544 	addi	r7,fp,-43
    3c24:	e0bff584 	addi	r2,fp,-42
    3c28:	d8800015 	stw	r2,0(sp)
    3c2c:	00036dc0 	call	36dc <seperate_color_channels>
  }

  // these blended colors may need to be clipped to the maximum amounts the color depth supports
  blended_red = (((*red) * alpha) + (background_red * (255 - alpha)))/255;
    3c30:	e0800317 	ldw	r2,12(fp)
    3c34:	10800003 	ldbu	r2,0(r2)
    3c38:	11003fcc 	andi	r4,r2,255
    3c3c:	e17ff903 	ldbu	r5,-28(fp)
    3c40:	000a0540 	call	a054 <__mulsi3>
    3c44:	1021883a 	mov	r16,r2
    3c48:	e0bff503 	ldbu	r2,-44(fp)
    3c4c:	11003fcc 	andi	r4,r2,255
    3c50:	e0fff903 	ldbu	r3,-28(fp)
    3c54:	00803fc4 	movi	r2,255
    3c58:	10cbc83a 	sub	r5,r2,r3
    3c5c:	000a0540 	call	a054 <__mulsi3>
    3c60:	8089883a 	add	r4,r16,r2
    3c64:	01403fc4 	movi	r5,255
    3c68:	0009f840 	call	9f84 <__divsi3>
    3c6c:	e0bff315 	stw	r2,-52(fp)
  blended_green = (((*green) * alpha) + (background_green * (255 - alpha)))/255;
    3c70:	e0800417 	ldw	r2,16(fp)
    3c74:	10800003 	ldbu	r2,0(r2)
    3c78:	11003fcc 	andi	r4,r2,255
    3c7c:	e17ff903 	ldbu	r5,-28(fp)
    3c80:	000a0540 	call	a054 <__mulsi3>
    3c84:	1021883a 	mov	r16,r2
    3c88:	e0bff543 	ldbu	r2,-43(fp)
    3c8c:	11003fcc 	andi	r4,r2,255
    3c90:	e0fff903 	ldbu	r3,-28(fp)
    3c94:	00803fc4 	movi	r2,255
    3c98:	10cbc83a 	sub	r5,r2,r3
    3c9c:	000a0540 	call	a054 <__mulsi3>
    3ca0:	8089883a 	add	r4,r16,r2
    3ca4:	01403fc4 	movi	r5,255
    3ca8:	0009f840 	call	9f84 <__divsi3>
    3cac:	e0bff215 	stw	r2,-56(fp)
  blended_blue = (((*blue) * alpha) + (background_blue * (255 - alpha)))/255;
    3cb0:	e0800517 	ldw	r2,20(fp)
    3cb4:	10800003 	ldbu	r2,0(r2)
    3cb8:	11003fcc 	andi	r4,r2,255
    3cbc:	e17ff903 	ldbu	r5,-28(fp)
    3cc0:	000a0540 	call	a054 <__mulsi3>
    3cc4:	1021883a 	mov	r16,r2
    3cc8:	e0bff583 	ldbu	r2,-42(fp)
    3ccc:	11003fcc 	andi	r4,r2,255
    3cd0:	e0fff903 	ldbu	r3,-28(fp)
    3cd4:	00803fc4 	movi	r2,255
    3cd8:	10cbc83a 	sub	r5,r2,r3
    3cdc:	000a0540 	call	a054 <__mulsi3>
    3ce0:	8089883a 	add	r4,r16,r2
    3ce4:	01403fc4 	movi	r5,255
    3ce8:	0009f840 	call	9f84 <__divsi3>
    3cec:	e0bff115 	stw	r2,-60(fp)
  

  if(display->color_depth == 16)
    3cf0:	e0800617 	ldw	r2,24(fp)
    3cf4:	10800417 	ldw	r2,16(r2)
    3cf8:	10800418 	cmpnei	r2,r2,16
    3cfc:	1000241e 	bne	r2,zero,3d90 <alpha_blending+0x1d8>
  {
    *red = (blended_red > 0x1F)? 0x1F: blended_red;
    3d00:	e0bff317 	ldw	r2,-52(fp)
    3d04:	e0bfff15 	stw	r2,-4(fp)
    3d08:	e0ffff17 	ldw	r3,-4(fp)
    3d0c:	18800830 	cmpltui	r2,r3,32
    3d10:	1000021e 	bne	r2,zero,3d1c <alpha_blending+0x164>
    3d14:	008007c4 	movi	r2,31
    3d18:	e0bfff15 	stw	r2,-4(fp)
    3d1c:	e0ffff17 	ldw	r3,-4(fp)
    3d20:	1805883a 	mov	r2,r3
    3d24:	e0c00317 	ldw	r3,12(fp)
    3d28:	18800005 	stb	r2,0(r3)
    *green = (blended_green > 0x3F)? 0x3F: blended_green;
    3d2c:	e0bff217 	ldw	r2,-56(fp)
    3d30:	e0bffe15 	stw	r2,-8(fp)
    3d34:	e0fffe17 	ldw	r3,-8(fp)
    3d38:	18801030 	cmpltui	r2,r3,64
    3d3c:	1000021e 	bne	r2,zero,3d48 <alpha_blending+0x190>
    3d40:	00800fc4 	movi	r2,63
    3d44:	e0bffe15 	stw	r2,-8(fp)
    3d48:	e0fffe17 	ldw	r3,-8(fp)
    3d4c:	1805883a 	mov	r2,r3
    3d50:	e0c00417 	ldw	r3,16(fp)
    3d54:	18800005 	stb	r2,0(r3)
    *blue = (blended_blue > 0x1F)? 0x1F: blended_blue; 
    3d58:	e0bff117 	ldw	r2,-60(fp)
    3d5c:	e0bffd15 	stw	r2,-12(fp)
    3d60:	e0fffd17 	ldw	r3,-12(fp)
    3d64:	18800830 	cmpltui	r2,r3,32
    3d68:	1000021e 	bne	r2,zero,3d74 <alpha_blending+0x1bc>
    3d6c:	008007c4 	movi	r2,31
    3d70:	e0bffd15 	stw	r2,-12(fp)
    3d74:	e0fffd17 	ldw	r3,-12(fp)
    3d78:	1805883a 	mov	r2,r3
    3d7c:	e0c00517 	ldw	r3,20(fp)
    3d80:	18800005 	stb	r2,0(r3)
    return_value = 1;        
    3d84:	00800044 	movi	r2,1
    3d88:	e0bff415 	stw	r2,-48(fp)
    3d8c:	00002d06 	br	3e44 <alpha_blending+0x28c>
  }
  else if((display->color_depth == 24) || (display->color_depth == 32))
    3d90:	e0800617 	ldw	r2,24(fp)
    3d94:	10800417 	ldw	r2,16(r2)
    3d98:	10800620 	cmpeqi	r2,r2,24
    3d9c:	1000041e 	bne	r2,zero,3db0 <alpha_blending+0x1f8>
    3da0:	e0800617 	ldw	r2,24(fp)
    3da4:	10800417 	ldw	r2,16(r2)
    3da8:	10800818 	cmpnei	r2,r2,32
    3dac:	1000241e 	bne	r2,zero,3e40 <alpha_blending+0x288>
  {
    *red = (blended_red > 0xFF)? 0xFF: blended_red;
    3db0:	e0bff317 	ldw	r2,-52(fp)
    3db4:	e0bffc15 	stw	r2,-16(fp)
    3db8:	e0fffc17 	ldw	r3,-16(fp)
    3dbc:	18804030 	cmpltui	r2,r3,256
    3dc0:	1000021e 	bne	r2,zero,3dcc <alpha_blending+0x214>
    3dc4:	00803fc4 	movi	r2,255
    3dc8:	e0bffc15 	stw	r2,-16(fp)
    3dcc:	e0fffc17 	ldw	r3,-16(fp)
    3dd0:	1805883a 	mov	r2,r3
    3dd4:	e0c00317 	ldw	r3,12(fp)
    3dd8:	18800005 	stb	r2,0(r3)
    *green = (blended_green > 0xFF)? 0xFF: blended_green;
    3ddc:	e0bff217 	ldw	r2,-56(fp)
    3de0:	e0bffb15 	stw	r2,-20(fp)
    3de4:	e0fffb17 	ldw	r3,-20(fp)
    3de8:	18804030 	cmpltui	r2,r3,256
    3dec:	1000021e 	bne	r2,zero,3df8 <alpha_blending+0x240>
    3df0:	00803fc4 	movi	r2,255
    3df4:	e0bffb15 	stw	r2,-20(fp)
    3df8:	e0fffb17 	ldw	r3,-20(fp)
    3dfc:	1805883a 	mov	r2,r3
    3e00:	e0c00417 	ldw	r3,16(fp)
    3e04:	18800005 	stb	r2,0(r3)
    *blue = (blended_blue > 0xFF)? 0xFF: blended_blue; 
    3e08:	e0bff117 	ldw	r2,-60(fp)
    3e0c:	e0bffa15 	stw	r2,-24(fp)
    3e10:	e0fffa17 	ldw	r3,-24(fp)
    3e14:	18804030 	cmpltui	r2,r3,256
    3e18:	1000021e 	bne	r2,zero,3e24 <alpha_blending+0x26c>
    3e1c:	00803fc4 	movi	r2,255
    3e20:	e0bffa15 	stw	r2,-24(fp)
    3e24:	e0fffa17 	ldw	r3,-24(fp)
    3e28:	1805883a 	mov	r2,r3
    3e2c:	e0c00517 	ldw	r3,20(fp)
    3e30:	18800005 	stb	r2,0(r3)
    return_value = 1;            
    3e34:	00800044 	movi	r2,1
    3e38:	e0bff415 	stw	r2,-48(fp)
    *red = (blended_red > 0x1F)? 0x1F: blended_red;
    *green = (blended_green > 0x3F)? 0x3F: blended_green;
    *blue = (blended_blue > 0x1F)? 0x1F: blended_blue; 
    return_value = 1;        
  }
  else if((display->color_depth == 24) || (display->color_depth == 32))
    3e3c:	00000106 	br	3e44 <alpha_blending+0x28c>
    *blue = (blended_blue > 0xFF)? 0xFF: blended_blue; 
    return_value = 1;            
  }
  else
  {
    return_value = 0;     
    3e40:	e03ff415 	stw	zero,-48(fp)
  }  
 
  return return_value;
    3e44:	e0bff417 	ldw	r2,-48(fp)
} 
    3e48:	e037883a 	mov	sp,fp
    3e4c:	dfc00217 	ldw	ra,8(sp)
    3e50:	df000117 	ldw	fp,4(sp)
    3e54:	dc000017 	ldw	r16,0(sp)
    3e58:	dec00304 	addi	sp,sp,12
    3e5c:	f800283a 	ret

00003e60 <vid_print_char_alpha>:
*           screen using the specified font and color.
*
******************************************************************/

int vid_print_char_alpha (int horiz_offset, int vert_offset, int color, char character, int background_color, struct abc_font_struct font[], alt_video_display * display)
{
    3e60:	defff004 	addi	sp,sp,-64
    3e64:	dfc00f15 	stw	ra,60(sp)
    3e68:	df000e15 	stw	fp,56(sp)
    3e6c:	df000e04 	addi	fp,sp,56
    3e70:	e13ffc15 	stw	r4,-16(fp)
    3e74:	e17ffd15 	stw	r5,-12(fp)
    3e78:	e1bffe15 	stw	r6,-8(fp)
    3e7c:	e1ffff05 	stb	r7,-4(fp)
  unsigned char original_red, original_blue, original_green;
  unsigned char red, green, blue;
  int new_color;

  // Assign the pointer of the font bitmap
  alpha = font[character-33].char_alpha_map;
    3e80:	e0bfff07 	ldb	r2,-4(fp)
    3e84:	1004917a 	slli	r2,r2,5
    3e88:	1007883a 	mov	r3,r2
    3e8c:	e0800317 	ldw	r2,12(fp)
    3e90:	1885883a 	add	r2,r3,r2
    3e94:	10bef804 	addi	r2,r2,-1056
    3e98:	10800617 	ldw	r2,24(r2)
    3e9c:	e0bff615 	stw	r2,-40(fp)

  // set red, green, and blue of the font color  
  seperate_color_channels(display->color_depth, (char *)&color, &original_red, &original_green, &original_blue);
    3ea0:	e0800417 	ldw	r2,16(fp)
    3ea4:	11000417 	ldw	r4,16(r2)
    3ea8:	e17ffe04 	addi	r5,fp,-8
    3eac:	e1bff904 	addi	r6,fp,-28
    3eb0:	e1fff984 	addi	r7,fp,-26
    3eb4:	e0bff944 	addi	r2,fp,-27
    3eb8:	d8800015 	stw	r2,0(sp)
    3ebc:	00036dc0 	call	36dc <seperate_color_channels>

  for(i = 0; i < font[character-33].bounds_height; i++) {
    3ec0:	e03ff815 	stw	zero,-32(fp)
    3ec4:	00004206 	br	3fd0 <vid_print_char_alpha+0x170>
    for (j = 0; j < font[character-33].bounds_width; j++) {
    3ec8:	e03ff715 	stw	zero,-36(fp)
    3ecc:	00003406 	br	3fa0 <vid_print_char_alpha+0x140>
      red = original_red;
    3ed0:	e0bff903 	ldbu	r2,-28(fp)
    3ed4:	e0bff9c5 	stb	r2,-25(fp)
      green = original_green;
    3ed8:	e0bff983 	ldbu	r2,-26(fp)
    3edc:	e0bffa05 	stb	r2,-24(fp)
      blue = original_blue;
    3ee0:	e0bff943 	ldbu	r2,-27(fp)
    3ee4:	e0bffa45 	stb	r2,-23(fp)

      // send in the font alpha channel and the colour channels for the blending to occur
      alpha_blending ((horiz_offset + j), (vert_offset + i), background_color, *alpha, &red, &green, &blue, display);
    3ee8:	e0fffc17 	ldw	r3,-16(fp)
    3eec:	e0bff717 	ldw	r2,-36(fp)
    3ef0:	1889883a 	add	r4,r3,r2
    3ef4:	e0fffd17 	ldw	r3,-12(fp)
    3ef8:	e0bff817 	ldw	r2,-32(fp)
    3efc:	188b883a 	add	r5,r3,r2
    3f00:	e0bff617 	ldw	r2,-40(fp)
    3f04:	10800003 	ldbu	r2,0(r2)
    3f08:	11c03fcc 	andi	r7,r2,255
    3f0c:	e0bff9c4 	addi	r2,fp,-25
    3f10:	d8800015 	stw	r2,0(sp)
    3f14:	e0bffa04 	addi	r2,fp,-24
    3f18:	d8800115 	stw	r2,4(sp)
    3f1c:	e0bffa44 	addi	r2,fp,-23
    3f20:	d8800215 	stw	r2,8(sp)
    3f24:	e0800417 	ldw	r2,16(fp)
    3f28:	d8800315 	stw	r2,12(sp)
    3f2c:	e1800217 	ldw	r6,8(fp)
    3f30:	0003bb80 	call	3bb8 <alpha_blending>

      // take the blended pixel and merge the color channels back into a single pixel value 
      merge_color_channels(display->color_depth, red, green, blue, (char *)&new_color);
    3f34:	e0800417 	ldw	r2,16(fp)
    3f38:	11000417 	ldw	r4,16(r2)
    3f3c:	e0bff9c3 	ldbu	r2,-25(fp)
    3f40:	11403fcc 	andi	r5,r2,255
    3f44:	e0bffa03 	ldbu	r2,-24(fp)
    3f48:	11803fcc 	andi	r6,r2,255
    3f4c:	e0bffa43 	ldbu	r2,-23(fp)
    3f50:	11c03fcc 	andi	r7,r2,255
    3f54:	e0bffb04 	addi	r2,fp,-20
    3f58:	d8800015 	stw	r2,0(sp)
    3f5c:	00038300 	call	3830 <merge_color_channels>
      
      // write the new pixel value out to memory overwriting the current background     
      vid_set_pixel((horiz_offset + j), (vert_offset + i), new_color, display);     
    3f60:	e0fffc17 	ldw	r3,-16(fp)
    3f64:	e0bff717 	ldw	r2,-36(fp)
    3f68:	1889883a 	add	r4,r3,r2
    3f6c:	e0fffd17 	ldw	r3,-12(fp)
    3f70:	e0bff817 	ldw	r2,-32(fp)
    3f74:	188b883a 	add	r5,r3,r2
    3f78:	e0bffb17 	ldw	r2,-20(fp)
    3f7c:	100d883a 	mov	r6,r2
    3f80:	e1c00417 	ldw	r7,16(fp)
    3f84:	00010b80 	call	10b8 <vid_set_pixel>

      alpha++;
    3f88:	e0bff617 	ldw	r2,-40(fp)
    3f8c:	10800044 	addi	r2,r2,1
    3f90:	e0bff615 	stw	r2,-40(fp)

  // set red, green, and blue of the font color  
  seperate_color_channels(display->color_depth, (char *)&color, &original_red, &original_green, &original_blue);

  for(i = 0; i < font[character-33].bounds_height; i++) {
    for (j = 0; j < font[character-33].bounds_width; j++) {
    3f94:	e0bff717 	ldw	r2,-36(fp)
    3f98:	10800044 	addi	r2,r2,1
    3f9c:	e0bff715 	stw	r2,-36(fp)
    3fa0:	e13ff717 	ldw	r4,-36(fp)
    3fa4:	e0bfff07 	ldb	r2,-4(fp)
    3fa8:	1004917a 	slli	r2,r2,5
    3fac:	1007883a 	mov	r3,r2
    3fb0:	e0800317 	ldw	r2,12(fp)
    3fb4:	1885883a 	add	r2,r3,r2
    3fb8:	10bef804 	addi	r2,r2,-1056
    3fbc:	10800417 	ldw	r2,16(r2)
    3fc0:	20bfc336 	bltu	r4,r2,3ed0 <vid_print_char_alpha+0x70>
