
painter.elf:     file format elf32-littlenios2
painter.elf
architecture: nios2, flags 0x00000112:
EXEC_P, HAS_SYMS, D_PAGED
start address 0x040001b8

Program Header:
    LOAD off    0x00001020 vaddr 0x04000020 paddr 0x04000020 align 2**12
         filesz 0x00078de4 memsz 0x000790d4 flags rwx
    LOAD off    0x0007a000 vaddr 0x09001000 paddr 0x09001000 align 2**12
         filesz 0x00000000 memsz 0x00000000 flags r-x

Sections:
Idx Name          Size      VMA       LMA       File off  Algn
  0 .entry        00000000  09001000  09001000  0007a000  2**5
                  CONTENTS, ALLOC, LOAD, READONLY, CODE
  1 .exceptions   00000198  04000020  04000020  00001020  2**2
                  CONTENTS, ALLOC, LOAD, READONLY, CODE
  2 .text         000167a0  040001b8  040001b8  000011b8  2**2
                  CONTENTS, ALLOC, LOAD, READONLY, CODE
  3 .rodata       0005edbc  04016958  04016958  00017958  2**2
                  CONTENTS, ALLOC, LOAD, READONLY, DATA
  4 .rwdata       000036f0  04075714  04075714  00076714  2**2
                  CONTENTS, ALLOC, LOAD, DATA, SMALL_DATA
  5 .bss          000002f0  04078e04  04078e04  00079e04  2**2
                  ALLOC, SMALL_DATA
  6 .comment      00000023  00000000  00000000  0007a000  2**0
                  CONTENTS, READONLY
  7 .debug_aranges 000010d8  00000000  00000000  0007a028  2**3
                  CONTENTS, READONLY, DEBUGGING
  8 .debug_info   0002f104  00000000  00000000  0007b100  2**0
                  CONTENTS, READONLY, DEBUGGING
  9 .debug_abbrev 0000b4da  00000000  00000000  000aa204  2**0
                  CONTENTS, READONLY, DEBUGGING
 10 .debug_line   0000d798  00000000  00000000  000b56de  2**0
                  CONTENTS, READONLY, DEBUGGING
 11 .debug_frame  00002af4  00000000  00000000  000c2e78  2**2
                  CONTENTS, READONLY, DEBUGGING
 12 .debug_str    000055e0  00000000  00000000  000c596c  2**0
                  CONTENTS, READONLY, DEBUGGING
 13 .debug_loc    000134c5  00000000  00000000  000caf4c  2**0
                  CONTENTS, READONLY, DEBUGGING
 14 .debug_alt_sim_info 00000050  00000000  00000000  000de414  2**2
                  CONTENTS, READONLY, DEBUGGING
 15 .debug_ranges 00000a78  00000000  00000000  000de468  2**3
                  CONTENTS, READONLY, DEBUGGING
 16 .thread_model 00000003  00000000  00000000  000e4ce3  2**0
                  CONTENTS, READONLY
 17 .cpu          00000003  00000000  00000000  000e4ce6  2**0
                  CONTENTS, READONLY
 18 .qsys         00000001  00000000  00000000  000e4ce9  2**0
                  CONTENTS, READONLY
 19 .simulation_enabled 00000001  00000000  00000000  000e4cea  2**0
                  CONTENTS, READONLY
 20 .sysid_hash   00000004  00000000  00000000  000e4ceb  2**0
                  CONTENTS, READONLY
 21 .sysid_base   00000004  00000000  00000000  000e4cef  2**0
                  CONTENTS, READONLY
 22 .sysid_time   00000004  00000000  00000000  000e4cf3  2**0
                  CONTENTS, READONLY
 23 .stderr_dev   00000009  00000000  00000000  000e4cf7  2**0
                  CONTENTS, READONLY
 24 .stdin_dev    00000009  00000000  00000000  000e4d00  2**0
                  CONTENTS, READONLY
 25 .stdout_dev   00000009  00000000  00000000  000e4d09  2**0
                  CONTENTS, READONLY
 26 .sopc_system_name 00000004  00000000  00000000  000e4d12  2**0
                  CONTENTS, READONLY
 27 .quartus_project_dir 00000017  00000000  00000000  000e4d16  2**0
                  CONTENTS, READONLY
 28 .jdi          00004220  00000000  00000000  000e4d2d  2**0
                  CONTENTS, READONLY
 29 .sopcinfo     0008dbc8  00000000  00000000  000e8f4d  2**0
                  CONTENTS, READONLY
SYMBOL TABLE:
09001000 l    d  .entry	00000000 .entry
04000020 l    d  .exceptions	00000000 .exceptions
040001b8 l    d  .text	00000000 .text
04016958 l    d  .rodata	00000000 .rodata
04075714 l    d  .rwdata	00000000 .rwdata
04078e04 l    d  .bss	00000000 .bss
00000000 l    d  .comment	00000000 .comment
00000000 l    d  .debug_aranges	00000000 .debug_aranges
00000000 l    d  .debug_info	00000000 .debug_info
00000000 l    d  .debug_abbrev	00000000 .debug_abbrev
00000000 l    d  .debug_line	00000000 .debug_line
00000000 l    d  .debug_frame	00000000 .debug_frame
00000000 l    d  .debug_str	00000000 .debug_str
00000000 l    d  .debug_loc	00000000 .debug_loc
00000000 l    d  .debug_alt_sim_info	00000000 .debug_alt_sim_info
00000000 l    d  .debug_ranges	00000000 .debug_ranges
00000000 l    df *ABS*	00000000 ../painter_bsp//obj/HAL/src/crt0.o
040001fc l       .text	00000000 alt_after_alt_main
00000000 l    df *ABS*	00000000 alt_exception_entry.o
04000094 l       .exceptions	00000000 alt_exception_unknown
00000000 l    df *ABS*	00000000 alt_irq_handler.c
00000000 l    df *ABS*	00000000 tahomabold_20.c
04016958 l     O .rodata	000000b6 tahomabold_20_33
04016a0e l     O .rodata	00000104 tahomabold_20_34
04016b12 l     O .rodata	000001a0 tahomabold_20_35
04016cb2 l     O .rodata	00000152 tahomabold_20_36
04016e04 l     O .rodata	00000270 tahomabold_20_37
04017074 l     O .rodata	000001ba tahomabold_20_38
0401722e l     O .rodata	0000009c tahomabold_20_39
040172ca l     O .rodata	000000ea tahomabold_20_40
040173b4 l     O .rodata	000000ea tahomabold_20_41
0401749e l     O .rodata	00000152 tahomabold_20_42
040175f0 l     O .rodata	000001a0 tahomabold_20_43
04017790 l     O .rodata	0000009c tahomabold_20_44
0401782c l     O .rodata	000000ea tahomabold_20_45
04017916 l     O .rodata	0000009c tahomabold_20_46
040179b2 l     O .rodata	00000138 tahomabold_20_47
04017aea l     O .rodata	00000152 tahomabold_20_48
04017c3c l     O .rodata	00000152 tahomabold_20_49
04017d8e l     O .rodata	00000152 tahomabold_20_50
04017ee0 l     O .rodata	00000152 tahomabold_20_51
04018032 l     O .rodata	00000152 tahomabold_20_52
04018184 l     O .rodata	00000152 tahomabold_20_53
040182d6 l     O .rodata	00000152 tahomabold_20_54
04018428 l     O .rodata	00000152 tahomabold_20_55
0401857a l     O .rodata	00000152 tahomabold_20_56
040186cc l     O .rodata	00000152 tahomabold_20_57
0401881e l     O .rodata	000000b6 tahomabold_20_58
040188d4 l     O .rodata	000000b6 tahomabold_20_59
0401898a l     O .rodata	000001a0 tahomabold_20_60
04018b2a l     O .rodata	000001a0 tahomabold_20_61
04018cca l     O .rodata	000001a0 tahomabold_20_62
04018e6a l     O .rodata	0000011e tahomabold_20_63
04018f88 l     O .rodata	000001d4 tahomabold_20_64
0401915c l     O .rodata	0000016c tahomabold_20_65
040192c8 l     O .rodata	0000016c tahomabold_20_66
04019434 l     O .rodata	00000152 tahomabold_20_67
04019586 l     O .rodata	00000186 tahomabold_20_68
0401970c l     O .rodata	00000138 tahomabold_20_69
04019844 l     O .rodata	00000138 tahomabold_20_70
0401997c l     O .rodata	00000186 tahomabold_20_71
04019b02 l     O .rodata	00000186 tahomabold_20_72
04019c88 l     O .rodata	00000104 tahomabold_20_73
04019d8c l     O .rodata	00000104 tahomabold_20_74
04019e90 l     O .rodata	0000016c tahomabold_20_75
04019ffc l     O .rodata	0000011e tahomabold_20_76
0401a11a l     O .rodata	000001d4 tahomabold_20_77
0401a2ee l     O .rodata	00000186 tahomabold_20_78
0401a474 l     O .rodata	00000186 tahomabold_20_79
0401a5fa l     O .rodata	00000152 tahomabold_20_80
0401a74c l     O .rodata	00000186 tahomabold_20_81
0401a8d2 l     O .rodata	00000186 tahomabold_20_82
0401aa58 l     O .rodata	00000152 tahomabold_20_83
0401abaa l     O .rodata	00000138 tahomabold_20_84
0401ace2 l     O .rodata	00000186 tahomabold_20_85
0401ae68 l     O .rodata	0000016c tahomabold_20_86
0401afd4 l     O .rodata	00000222 tahomabold_20_87
0401b1f6 l     O .rodata	0000016c tahomabold_20_88
0401b362 l     O .rodata	0000016c tahomabold_20_89
0401b4ce l     O .rodata	00000138 tahomabold_20_90
0401b606 l     O .rodata	000000ea tahomabold_20_91
0401b6f0 l     O .rodata	00000138 tahomabold_20_92
0401b828 l     O .rodata	000000ea tahomabold_20_93
0401b912 l     O .rodata	000001a0 tahomabold_20_94
0401bab2 l     O .rodata	00000152 tahomabold_20_95
0401bc04 l     O .rodata	0000011e tahomabold_20_96
0401bd22 l     O .rodata	00000138 tahomabold_20_97
0401be5a l     O .rodata	00000152 tahomabold_20_98
0401bfac l     O .rodata	0000011e tahomabold_20_99
0401c0ca l     O .rodata	00000152 tahomabold_20_100
0401c21c l     O .rodata	00000138 tahomabold_20_101
0401c354 l     O .rodata	000000d0 tahomabold_20_102
0401c424 l     O .rodata	00000152 tahomabold_20_103
0401c576 l     O .rodata	00000152 tahomabold_20_104
0401c6c8 l     O .rodata	0000009c tahomabold_20_105
0401c764 l     O .rodata	000000ea tahomabold_20_106
0401c84e l     O .rodata	00000138 tahomabold_20_107
0401c986 l     O .rodata	0000009c tahomabold_20_108
0401ca22 l     O .rodata	000001ee tahomabold_20_109
0401cc10 l     O .rodata	00000152 tahomabold_20_110
0401cd62 l     O .rodata	00000138 tahomabold_20_111
0401ce9a l     O .rodata	00000152 tahomabold_20_112
0401cfec l     O .rodata	00000152 tahomabold_20_113
0401d13e l     O .rodata	000000ea tahomabold_20_114
0401d228 l     O .rodata	00000104 tahomabold_20_115
0401d32c l     O .rodata	000000d0 tahomabold_20_116
0401d3fc l     O .rodata	00000152 tahomabold_20_117
0401d54e l     O .rodata	00000138 tahomabold_20_118
0401d686 l     O .rodata	000001d4 tahomabold_20_119
0401d85a l     O .rodata	00000138 tahomabold_20_120
0401d992 l     O .rodata	00000138 tahomabold_20_121
0401daca l     O .rodata	0000011e tahomabold_20_122
0401dbe8 l     O .rodata	00000138 tahomabold_20_123
0401dd20 l     O .rodata	00000152 tahomabold_20_124
0401de72 l     O .rodata	00000138 tahomabold_20_125
0401dfaa l     O .rodata	000001a0 tahomabold_20_126
00000000 l    df *ABS*	00000000 tahomabold_32.c
0401e14a l     O .rodata	000001b8 tahomabold_32_33
0401e302 l     O .rodata	00000280 tahomabold_32_34
0401e582 l     O .rodata	00000410 tahomabold_32_35
0401e992 l     O .rodata	00000320 tahomabold_32_36
0401ecb2 l     O .rodata	000005f0 tahomabold_32_37
0401f2a2 l     O .rodata	00000410 tahomabold_32_38
0401f6b2 l     O .rodata	00000168 tahomabold_32_39
0401f81a l     O .rodata	00000258 tahomabold_32_40
0401fa72 l     O .rodata	00000258 tahomabold_32_41
0401fcca l     O .rodata	00000320 tahomabold_32_42
0401ffea l     O .rodata	00000410 tahomabold_32_43
040203fa l     O .rodata	00000190 tahomabold_32_44
0402058a l     O .rodata	00000230 tahomabold_32_45
040207ba l     O .rodata	00000190 tahomabold_32_46
0402094a l     O .rodata	000002d0 tahomabold_32_47
04020c1a l     O .rodata	00000320 tahomabold_32_48
04020f3a l     O .rodata	00000320 tahomabold_32_49
0402125a l     O .rodata	00000320 tahomabold_32_50
0402157a l     O .rodata	00000320 tahomabold_32_51
0402189a l     O .rodata	00000320 tahomabold_32_52
04021bba l     O .rodata	00000320 tahomabold_32_53
04021eda l     O .rodata	00000320 tahomabold_32_54
040221fa l     O .rodata	00000320 tahomabold_32_55
0402251a l     O .rodata	00000320 tahomabold_32_56
0402283a l     O .rodata	00000320 tahomabold_32_57
04022b5a l     O .rodata	000001e0 tahomabold_32_58
04022d3a l     O .rodata	000001e0 tahomabold_32_59
04022f1a l     O .rodata	00000410 tahomabold_32_60
0402332a l     O .rodata	00000410 tahomabold_32_61
0402373a l     O .rodata	00000410 tahomabold_32_62
04023b4a l     O .rodata	000002d0 tahomabold_32_63
04023e1a l     O .rodata	00000488 tahomabold_32_64
040242a2 l     O .rodata	00000370 tahomabold_32_65
04024612 l     O .rodata	00000370 tahomabold_32_66
04024982 l     O .rodata	00000348 tahomabold_32_67
04024cca l     O .rodata	000003c0 tahomabold_32_68
0402508a l     O .rodata	00000320 tahomabold_32_69
040253aa l     O .rodata	000002f8 tahomabold_32_70
040256a2 l     O .rodata	000003c0 tahomabold_32_71
04025a62 l     O .rodata	000003c0 tahomabold_32_72
04025e22 l     O .rodata	00000258 tahomabold_32_73
0402607a l     O .rodata	00000280 tahomabold_32_74
040262fa l     O .rodata	00000398 tahomabold_32_75
04026692 l     O .rodata	000002d0 tahomabold_32_76
04026962 l     O .rodata	00000488 tahomabold_32_77
04026dea l     O .rodata	000003e8 tahomabold_32_78
040271d2 l     O .rodata	000003e8 tahomabold_32_79
040275ba l     O .rodata	00000348 tahomabold_32_80
04027902 l     O .rodata	000003e8 tahomabold_32_81
04027cea l     O .rodata	000003c0 tahomabold_32_82
040280aa l     O .rodata	00000320 tahomabold_32_83
040283ca l     O .rodata	00000320 tahomabold_32_84
040286ea l     O .rodata	000003c0 tahomabold_32_85
04028aaa l     O .rodata	00000370 tahomabold_32_86
04028e1a l     O .rodata	00000528 tahomabold_32_87
04029342 l     O .rodata	00000370 tahomabold_32_88
040296b2 l     O .rodata	00000370 tahomabold_32_89
04029a22 l     O .rodata	00000320 tahomabold_32_90
04029d42 l     O .rodata	00000258 tahomabold_32_91
04029f9a l     O .rodata	000002d0 tahomabold_32_92
0402a26a l     O .rodata	00000258 tahomabold_32_93
0402a4c2 l     O .rodata	00000410 tahomabold_32_94
0402a8d2 l     O .rodata	00000320 tahomabold_32_95
0402abf2 l     O .rodata	000002a8 tahomabold_32_96
0402ae9a l     O .rodata	000002f8 tahomabold_32_97
0402b192 l     O .rodata	00000320 tahomabold_32_98
0402b4b2 l     O .rodata	000002a8 tahomabold_32_99
0402b75a l     O .rodata	00000320 tahomabold_32_100
0402ba7a l     O .rodata	000002f8 tahomabold_32_101
0402bd72 l     O .rodata	00000230 tahomabold_32_102
0402bfa2 l     O .rodata	00000320 tahomabold_32_103
0402c2c2 l     O .rodata	00000320 tahomabold_32_104
0402c5e2 l     O .rodata	00000190 tahomabold_32_105
0402c772 l     O .rodata	00000208 tahomabold_32_106
0402c97a l     O .rodata	000002f8 tahomabold_32_107
0402cc72 l     O .rodata	00000190 tahomabold_32_108
0402ce02 l     O .rodata	000004d8 tahomabold_32_109
0402d2da l     O .rodata	00000320 tahomabold_32_110
0402d5fa l     O .rodata	00000320 tahomabold_32_111
0402d91a l     O .rodata	00000320 tahomabold_32_112
0402dc3a l     O .rodata	00000320 tahomabold_32_113
0402df5a l     O .rodata	00000230 tahomabold_32_114
0402e18a l     O .rodata	00000280 tahomabold_32_115
0402e40a l     O .rodata	00000208 tahomabold_32_116
0402e612 l     O .rodata	00000320 tahomabold_32_117
0402e932 l     O .rodata	000002f8 tahomabold_32_118
0402ec2a l     O .rodata	00000460 tahomabold_32_119
0402f08a l     O .rodata	000002f8 tahomabold_32_120
0402f382 l     O .rodata	000002d0 tahomabold_32_121
0402f652 l     O .rodata	000002a8 tahomabold_32_122
0402f8fa l     O .rodata	00000320 tahomabold_32_123
0402fc1a l     O .rodata	00000320 tahomabold_32_124
0402ff3a l     O .rodata	00000320 tahomabold_32_125
0403025a l     O .rodata	00000410 tahomabold_32_126
00000000 l    df *ABS*	00000000 geometry.c
00000000 l    df *ABS*	00000000 gesture.c
00000000 l    df *ABS*	00000000 simple_graphics.c
00000000 l    df *ABS*	00000000 simple_text.c
00000000 l    df *ABS*	00000000 gui.c
04078e04 l     O .bss	00000004 x.3969
04078db8 l     O .rwdata	00000004 y.3970
00000000 l    df *ABS*	00000000 gui_vpg.c
00000000 l    df *ABS*	00000000 main.c
00000000 l    df *ABS*	00000000 I2C.c
00000000 l    df *ABS*	00000000 I2C_core.c
00000000 l    df *ABS*	00000000 debug.c
00000000 l    df *ABS*	00000000 multi_touch2.c
04007ea4 l     F .text	00000360 mtc2_QueryData
04008204 l     F .text	00000074 mtc2_ISR
00000000 l    df *ABS*	00000000 queue.c
00000000 l    df *ABS*	00000000 vip_fr.c
00000000 l    df *ABS*	00000000 w_sqrt.c
00000000 l    df *ABS*	00000000 e_sqrt.c
00000000 l    df *ABS*	00000000 s_isnand.c
00000000 l    df *ABS*	00000000 s_lib_ver.c
00000000 l    df *ABS*	00000000 s_matherr.c
00000000 l    df *ABS*	00000000 fp-bit.c
04009214 l     F .text	00000354 _fpadd_parts
00000000 l    df *ABS*	00000000 fp-bit.c
00000000 l    df *ABS*	00000000 fp-bit.c
00000000 l    df *ABS*	00000000 fp-bit.c
00000000 l    df *ABS*	00000000 fp-bit.c
00000000 l    df *ABS*	00000000 fp-bit.c
00000000 l    df *ABS*	00000000 fp-bit.c
00000000 l    df *ABS*	00000000 lib2-divmod.c
04009ca8 l     F .text	00000074 udivmodsi4
00000000 l    df *ABS*	00000000 lib2-mul.c
00000000 l    df *ABS*	00000000 libgcc2.c
00000000 l    df *ABS*	00000000 libgcc2.c
00000000 l    df *ABS*	00000000 fp-bit.c
00000000 l    df *ABS*	00000000 fp-bit.c
00000000 l    df *ABS*	00000000 fp-bit.c
00000000 l    df *ABS*	00000000 libgcc2.c
00000000 l    df *ABS*	00000000 libgcc2.c
00000000 l    df *ABS*	00000000 libgcc2.c
00000000 l    df *ABS*	00000000 errno.c
00000000 l    df *ABS*	00000000 impure.c
040772d0 l     O .rwdata	00000400 impure_data
00000000 l    df *ABS*	00000000 malloc.c
00000000 l    df *ABS*	00000000 mallocr.c
00000000 l    df *ABS*	00000000 memcpy.c
00000000 l    df *ABS*	00000000 memset.c
00000000 l    df *ABS*	00000000 printf.c
00000000 l    df *ABS*	00000000 putchar.c
00000000 l    df *ABS*	00000000 puts.c
00000000 l    df *ABS*	00000000 sbrkr.c
00000000 l    df *ABS*	00000000 sprintf.c
00000000 l    df *ABS*	00000000 strcpy.c
00000000 l    df *ABS*	00000000 strlen.c
00000000 l    df *ABS*	00000000 vfprintf.c
0400b180 l     F .text	00000034 __sprint_r
04075532 l     O .rodata	00000010 blanks.3546
04075542 l     O .rodata	00000010 zeroes.3547
00000000 l    df *ABS*	00000000 vsnprintf.c
00000000 l    df *ABS*	00000000 wsetup.c
00000000 l    df *ABS*	00000000 dtoa.c
0400d2b4 l     F .text	0000023c quorem
00000000 l    df *ABS*	00000000 fflush.c
00000000 l    df *ABS*	00000000 findfp.c
0400ed24 l     F .text	00000008 __fp_lock
0400ed2c l     F .text	00000008 __fp_unlock
00000000 l    df *ABS*	00000000 mallocr.c
00000000 l    df *ABS*	00000000 fvwrite.c
00000000 l    df *ABS*	00000000 fwalk.c
00000000 l    df *ABS*	00000000 int_errno.c
00000000 l    df *ABS*	00000000 locale.c
04075574 l     O .rodata	00000030 lconv
00000000 l    df *ABS*	00000000 makebuf.c
00000000 l    df *ABS*	00000000 memchr.c
00000000 l    df *ABS*	00000000 memmove.c
00000000 l    df *ABS*	00000000 mprec.c
040756bc l     O .rodata	0000000c p05.2466
00000000 l    df *ABS*	00000000 putc.c
00000000 l    df *ABS*	00000000 mallocr.c
00000000 l    df *ABS*	00000000 s_isinfd.c
00000000 l    df *ABS*	00000000 stdio.c
00000000 l    df *ABS*	00000000 strcmp.c
00000000 l    df *ABS*	00000000 wbuf.c
00000000 l    df *ABS*	00000000 writer.c
00000000 l    df *ABS*	00000000 mallocr.c
00000000 l    df *ABS*	00000000 closer.c
00000000 l    df *ABS*	00000000 fclose.c
00000000 l    df *ABS*	00000000 fstatr.c
00000000 l    df *ABS*	00000000 isattyr.c
00000000 l    df *ABS*	00000000 lseekr.c
00000000 l    df *ABS*	00000000 readr.c
00000000 l    df *ABS*	00000000 libgcc2.c
00000000 l    df *ABS*	00000000 libgcc2.c
00000000 l    df *ABS*	00000000 fp-bit.c
00000000 l    df *ABS*	00000000 fp-bit.c
00000000 l    df *ABS*	00000000 fp-bit.c
00000000 l    df *ABS*	00000000 fp-bit.c
00000000 l    df *ABS*	00000000 fp-bit.c
00000000 l    df *ABS*	00000000 alt_close.c
04012e78 l     F .text	00000050 alt_get_errno
00000000 l    df *ABS*	00000000 alt_dcache_flush_all.c
00000000 l    df *ABS*	00000000 alt_dev.c
04012fd8 l     F .text	0000002c alt_dev_null_write
00000000 l    df *ABS*	00000000 alt_errno.c
00000000 l    df *ABS*	00000000 alt_fstat.c
04013004 l     F .text	00000050 alt_get_errno
00000000 l    df *ABS*	00000000 alt_iic.c
00000000 l    df *ABS*	00000000 alt_iic_isr_register.c
00000000 l    df *ABS*	00000000 alt_irq_vars.c
00000000 l    df *ABS*	00000000 alt_isatty.c
040133cc l     F .text	00000050 alt_get_errno
00000000 l    df *ABS*	00000000 alt_lseek.c
040134c0 l     F .text	00000050 alt_get_errno
00000000 l    df *ABS*	00000000 alt_main.c
00000000 l    df *ABS*	00000000 alt_malloc_lock.c
00000000 l    df *ABS*	00000000 alt_read.c
0401369c l     F .text	00000050 alt_get_errno
00000000 l    df *ABS*	00000000 alt_release_fd.c
00000000 l    df *ABS*	00000000 alt_sbrk.c
04078df0 l     O .rwdata	00000004 heap_end
00000000 l    df *ABS*	00000000 alt_tick.c
00000000 l    df *ABS*	00000000 alt_usleep.c
00000000 l    df *ABS*	00000000 alt_write.c
04013adc l     F .text	00000050 alt_get_errno
00000000 l    df *ABS*	00000000 alt_sys_init.c
04013c1c l     F .text	00000038 alt_dev_reg
04077c8c l     O .rwdata	000000c8 epcs_flash_controller_0
04077d54 l     O .rwdata	00001060 jtag_uart
00000000 l    df *ABS*	00000000 altera_avalon_epcs_flash_controller.c
04013cf0 l     F .text	00000038 alt_flash_device_register
04013d7c l     F .text	0000028c alt_epcs_flash_query
04014008 l     F .text	000000e8 alt_epcs_flash_memcmp
040143dc l     F .text	00000094 alt_epcs_test_address
00000000 l    df *ABS*	00000000 altera_avalon_jtag_uart_fd.c
00000000 l    df *ABS*	00000000 altera_avalon_jtag_uart_init.c
040148a4 l     F .text	00000204 altera_avalon_jtag_uart_irq
04014aa8 l     F .text	000000a4 altera_avalon_jtag_uart_timeout
00000000 l    df *ABS*	00000000 altera_avalon_jtag_uart_ioctl.c
00000000 l    df *ABS*	00000000 altera_avalon_jtag_uart_read.c
00000000 l    df *ABS*	00000000 altera_avalon_jtag_uart_write.c
00000000 l    df *ABS*	00000000 altera_avalon_timer_sc.c
040150e0 l     F .text	00000074 alt_avalon_timer_sc_irq
00000000 l    df *ABS*	00000000 epcs_commands.c
04015238 l     F .text	00000038 epcs_test_wip
04015270 l     F .text	00000038 epcs_await_wip_released
00000000 l    df *ABS*	00000000 alt_alarm_start.c
00000000 l    df *ABS*	00000000 alt_busy_sleep.c
00000000 l    df *ABS*	00000000 alt_dev_llist_insert.c
04015a94 l     F .text	00000050 alt_get_errno
00000000 l    df *ABS*	00000000 alt_do_ctors.c
00000000 l    df *ABS*	00000000 alt_do_dtors.c
00000000 l    df *ABS*	00000000 alt_flash_dev.c
00000000 l    df *ABS*	00000000 alt_io_redirect.c
04015cf4 l     F .text	000000e0 alt_open_fd
00000000 l    df *ABS*	00000000 alt_open.c
04015e4c l     F .text	00000050 alt_get_errno
04015e9c l     F .text	000000f0 alt_file_locked
00000000 l    df *ABS*	00000000 altera_nios2_qsys_irq.c
00000000 l    df *ABS*	00000000 altera_avalon_spi.c
00000000 l    df *ABS*	00000000 alt_find_dev.c
00000000 l    df *ABS*	00000000 alt_find_file.c
00000000 l    df *ABS*	00000000 alt_get_fd.c
00000000 l    df *ABS*	00000000 atexit.c
00000000 l    df *ABS*	00000000 exit.c
00000000 l    df *ABS*	00000000 memcmp.c
00000000 l    df *ABS*	00000000 __atexit.c
00000000 l    df *ABS*	00000000 __call_atexit.c
00000000 l    df *ABS*	00000000 alt_exit.c
00000000 l    df *ABS*	00000000 
0400ae84 g     F .text	0000001c putchar
04001524 g     F .text	000002fc vid_draw_horiz_line
04010e44 g     F .text	00000074 _mprec_log10
040063b0 g     F .text	00000118 I2C_Read
04014350 g     F .text	0000008c alt_epcs_flash_get_info
04010f34 g     F .text	00000084 __any_on
04011e28 g     F .text	00000064 _isatty_r
040755a4 g     O .rodata	00000028 __mprec_tinytens
040135e4 g     F .text	00000078 alt_main
0400b060 g     F .text	00000094 strcpy
0400a3f8 g     F .text	00000044 __ashldi3
0400aea0 g     F .text	00000084 _puts_r
04078e64 g     O .bss	00000100 alt_irq
04011e8c g     F .text	0000006c _lseek_r
04007488 g     F .text	00000068 ACK_check
0400190c g     F .text	0000006c vid_color_convert16_24
04008dd4 g     F .text	00000148 sqrt
04007130 g     F .text	000000a0 I2CL_Read16
040073fc g     F .text	0000008c ACK_single_check
04012bdc g     F .text	0000005c __eqdf2
040790f4 g       *ABS*	00000000 __alt_heap_start
0400862c g     F .text	00000064 QUEUE_IsFull
0400ae40 g     F .text	0000003c printf
04004144 g     F .text	00000200 GUI_DeskInit
04011874 g     F .text	0000005c __sseek
0400edc8 g     F .text	0000010c __sinit
0401197c g     F .text	0000013c __swbuf_r
0400fa60 g     F .text	0000009c _setlocale_r
0400ed40 g     F .text	00000078 __sfmoreglue
0401367c g     F .text	00000020 __malloc_unlock
04000e74 g     F .text	00000150 vid_draw_box
040005bc g     F .text	00000044 PtCopy
040034c8 g     F .text	0000025c vid_print_string_alpha
0400fddc g     F .text	0000018c memmove
040074f0 g     F .text	000001fc OC_I2C_Write
04004a0c g     F .text	00000308 GUI_ShowGesture
0400edb8 g     F .text	00000010 _cleanup
0400ff68 g     F .text	000000a8 _Balloc
04076e94 g     O .rwdata	00000415 cour10_font_array
04012c94 g     F .text	00000064 __gtdf2
04000c50 g     F .text	0000011c vid_move_block
0400a43c g     F .text	00000010 __errno
040152a8 g     F .text	000000f8 epcs_sector_erase
04006fb4 g     F .text	0000017c I2CL_MultipleWrite
04004064 g     F .text	000000e0 vid_string_pixel_length_alpha
040068b8 g     F .text	00000144 i2c_write
09001000 g     F .entry	00000000 __reset
04008b04 g     F .text	00000090 DRAW_EraseScreen
04006134 g     F .text	00000040 my_wait
04011dc0 g     F .text	00000068 _fstat_r
04078e14 g     O .bss	00000004 errno
040064c8 g     F .text	00000178 I2C_Read16
04078e2c g     O .bss	00000004 alt_argv
04080db4 g       *ABS*	00000000 _gp
04013aac g     F .text	00000030 usleep
040058b8 g     F .text	000000a4 VPG_ColorPanel
04003724 g     F .text	00000154 seperate_color_channels
04077b0c g     O .rwdata	00000180 alt_fd_list
04008ce4 g     F .text	00000038 FrameReader_Go
0400ae7c g     F .text	00000008 _putchar_r
040154e4 g     F .text	00000068 epcs_write_status_register
0401630c g     F .text	00000090 alt_find_dev
0400abf8 g     F .text	00000140 memcpy
0400ed34 g     F .text	0000000c _cleanup_r
04009b10 g     F .text	000000d4 __floatsidf
04002398 g     F .text	00000758 vid_round_corner_points
04015dd4 g     F .text	00000078 alt_io_redirect
04009ab4 g     F .text	0000005c __ltdf2
04008514 g     F .text	00000038 MTC2_ClearEvent
04016958 g       *ABS*	00000000 __DTOR_END__
04004344 g     F .text	00000094 GUI_CheckButton
0400af24 g     F .text	00000014 puts
04000600 g     F .text	00000060 vid_clean_screen
040144e4 g     F .text	00000104 alt_epcs_flash_write_block
04010da0 g     F .text	000000a4 __ratio
040085ec g     F .text	00000040 QUEUE_IsEmpty
0400076c g     F .text	00000154 vid_scroll_string_init
04014ca8 g     F .text	00000218 altera_avalon_jtag_uart_read
0400a44c g     F .text	00000014 malloc
0400ae14 g     F .text	0000002c _printf_r
04009dc8 g     F .text	00000008 __udivsi3
0401341c g     F .text	000000a4 isatty
040755f4 g     O .rodata	000000c8 __mprec_tens
040083b4 g     F .text	00000160 MTC2_GetStatus
0400fafc g     F .text	0000000c __locale_charset
0400d100 g     F .text	00000040 vsnprintf
040043d8 g     F .text	000005a8 GUI_DeskDraw
04006640 g     F .text	0000017c I2C_MultipleRead
04078e10 g     O .bss	00000004 __malloc_top_pad
040087b4 g     F .text	00000030 QUEUE_Empty
04078dd0 g     O .rwdata	00000004 __mb_cur_max
0400fb08 g     F .text	0000000c _localeconv_r
04010398 g     F .text	0000003c __i2b
0400f41c g     F .text	000004e4 __sfvwrite_r
04008724 g     F .text	00000090 QUEUE_Pop
0400af38 g     F .text	00000064 _sbrk_r
040004c8 g     F .text	00000034 RectHeight
04008a7c g     F .text	00000088 VIPFR_ActiveDrawFrame
04008b94 g     F .text	0000008c FrameReader_SetFrame0
04011ef8 g     F .text	0000006c _read_r
04077ad8 g     O .rwdata	0000000c __lc_ctype
04078de4 g     O .rwdata	00000004 alt_max_fd
0400a1e0 g     F .text	00000104 __unpack_d
04005800 g     F .text	000000b8 VPG_XLine
04011c70 g     F .text	0000013c _fclose_r
0400ecf4 g     F .text	00000030 fflush
04078e0c g     O .bss	00000004 __malloc_max_sbrked_mem
04006c8c g     F .text	00000168 I2CL_Read
040762d4 g     O .rwdata	00000bc0 tahomabold_32
04009568 g     F .text	00000054 __adddf3
04004d5c g     F .text	000000c4 GUI_ClearPaintArea
04014470 g     F .text	00000074 alt_epcs_flash_erase_block
04000284 g     F .text	00000040 PtSet
04010b14 g     F .text	00000148 __b2d
040125b4 g     F .text	00000628 __umoddi3
04013510 g     F .text	000000d4 lseek
04078dbc g     O .rwdata	00000004 __fdlib_version
04078dc0 g     O .rwdata	00000004 _global_impure_ptr
04001e9c g     F .text	00000140 vid_draw_circle
040157a8 g     F .text	00000058 epcs_exit_4_bytes_mode
04011164 g     F .text	000005fc _realloc_r
040790f4 g       *ABS*	00000000 __bss_end
040132dc g     F .text	000000f0 alt_iic_isr_register
040139a8 g     F .text	00000104 alt_tick
04006270 g     F .text	00000140 I2C_Write16
040003a8 g     F .text	00000088 RectOffset
04008278 g     F .text	000000f4 MTC2_Init
04011f64 g     F .text	00000650 __udivdi3
040755cc g     O .rodata	00000028 __mprec_bigtens
0401017c g     F .text	00000104 __s2b
04001c38 g     F .text	00000264 vid_draw_sloped_line
04012d5c g     F .text	0000011c __floatunsidf
040108b4 g     F .text	00000058 __mcmp
04005a68 g     F .text	000000f4 VPG_VGrid
0400efe0 g     F .text	00000018 __fp_lock_all
04013290 g     F .text	0000004c alt_ic_irq_enabled
04006174 g     F .text	000000fc I2C_Write
04001fdc g     F .text	000003bc vid_draw_round_corner_box
04007900 g     F .text	000001d8 OC_I2CL_Write
04013910 g     F .text	00000098 alt_alarm_stop
04078e24 g     O .bss	00000004 alt_irq_active
040076ec g     F .text	00000064 ACK_judge_for_read
040000ec g     F .exceptions	000000cc alt_irq_handler
04077ae4 g     O .rwdata	00000028 alt_dev_null
0400725c g     F .text	00000054 Write32_Data
040071d0 g     F .text	0000008c I2CL_Write16
040067bc g     F .text	00000084 i2c_start
04012f94 g     F .text	00000044 alt_dcache_flush_all
04010280 g     F .text	00000068 __hi0bits
04009be4 g     F .text	000000c4 __fixdfsi
04002f24 g     F .text	00000394 vid_draw_triangle
04078ddc g     O .rwdata	00000008 alt_dev_list
04013b2c g     F .text	000000f0 write
04010fb8 g     F .text	000000bc _putc_r
040772ac g     O .rwdata	00000024 szPallete
04003394 g     F .text	00000134 CropImage16
04013054 g     F .text	000000b0 fstat
0400a3b4 g     F .text	00000044 __lshrdi3
040008c0 g     F .text	00000390 vid_scroll_string
04007d24 g     F .text	0000006c myprintf
0401062c g     F .text	0000012c __pow5mult
04078e20 g     O .bss	00000004 __nlocale_changed
04009dd0 g     F .text	00000008 __umodsi3
04000494 g     F .text	00000034 RectWidth
04015668 g     F .text	00000068 epcs_read_electronic_signature
040032b8 g     F .text	000000dc CopyImage16
040790f4 g       *ABS*	00000000 end
04005f34 g     F .text	00000134 GUI_VPG
040089fc g     F .text	0000003c VIPFR_Go
040056d4 g     F .text	0000006c GUI_ShowInfo
040147e4 g     F .text	000000c0 altera_avalon_jtag_uart_init
04000fc4 g     F .text	000000f8 vid_print_char
04016958 g       *ABS*	00000000 __CTOR_LIST__
08000000 g       *ABS*	00000000 __alt_stack_pointer
04015154 g     F .text	00000088 alt_avalon_timer_sc_init
04009f10 g     F .text	000000ac __clzsi2
04014ec0 g     F .text	00000220 altera_avalon_jtag_uart_write
04005db4 g     F .text	00000180 GUI_ShowPAT
04002b44 g     F .text	00000054 min3
04000660 g     F .text	000000cc vid_draw_line
040087e4 g     F .text	000000d8 VIPFR_Init
0400efd0 g     F .text	00000004 __sfp_lock_acquire
0400fce4 g     F .text	000000f8 memchr
0400b1b4 g     F .text	00001e7c ___vfprintf_internal_r
0400af9c g     F .text	00000058 _sprintf_r
0400f14c g     F .text	000002d0 _free_r
0401677c g     F .text	000001a0 __call_exitprocs
04078e1c g     O .bss	00000004 __mlocale_changed
0400595c g     F .text	0000010c VPG_Grid
04078dc8 g     O .rwdata	00000004 __malloc_sbrk_base
040001b8 g     F .text	00000048 _start
04078e34 g     O .bss	00000004 _alt_tick_rate
0400836c g     F .text	00000048 MTC2_UnInit
04010758 g     F .text	0000015c __lshift
04016104 g     F .text	00000208 alt_avalon_spi_command
04008690 g     F .text	00000094 QUEUE_Push
04078e38 g     O .bss	00000004 _alt_nticks
04002bfc g     F .text	000000f0 vid_put_pixel_in_span_map
040136ec g     F .text	000000f4 read
040088bc g     F .text	00000038 VIPFR_UnInit
04005c50 g     F .text	00000164 VPG_ColorBar
04013c88 g     F .text	00000068 alt_sys_init
0401664c g     F .text	00000130 __register_exitproc
040103d4 g     F .text	00000258 __multiply
040012c4 g     F .text	00000260 vid_paint_block
04014b4c g     F .text	00000068 altera_avalon_jtag_uart_close
04009dd8 g     F .text	00000028 __mulsi3
04078e3c g     O .bss	00000028 __malloc_current_mallinfo
04010c5c g     F .text	00000144 __d2b
04005b5c g     F .text	000000f4 VPG_HGrid
040151dc g     F .text	0000005c epcs_read_status_register
0400186c g     F .text	000000a0 vid_color_convert24_16
04014680 g     F .text	00000060 altera_avalon_jtag_uart_read_fd
040164b0 g     F .text	000000d4 alt_get_fd
04015940 g     F .text	00000154 alt_busy_sleep
0400a2e4 g     F .text	000000d0 __fpcmp_parts_d
04011c0c g     F .text	00000064 _close_r
04004e20 g     F .text	000008b4 GUI
04003c0c g     F .text	00000298 alpha_blending
040156d0 g     F .text	00000080 epcs_read_device_id
040165d0 g     F .text	0000007c memcmp
04014740 g     F .text	00000050 altera_avalon_jtag_uart_close_fd
040790f4 g       *ABS*	00000000 __alt_stack_base
04014790 g     F .text	00000054 altera_avalon_jtag_uart_ioctl_fd
09001000 g       *ABS*	00000000 __alt_mem_epcs_flash_controller_0
0403066c g     O .rodata	000448f0 gesture_bmp
0400d140 g     F .text	00000174 __swsetup_r
04007308 g     F .text	000000f4 oc_i2c_init
04009900 g     F .text	000001b4 __divdf3
0400eed4 g     F .text	000000fc __sfp
04010eb8 g     F .text	0000007c __copybits
040776d0 g     O .rwdata	00000408 __malloc_av_
0400efdc g     F .text	00000004 __sinit_lock_release
0400d054 g     F .text	000000ac _vsnprintf_r
04006840 g     F .text	00000078 i2c_stop
0400961c g     F .text	000002e4 __muldf3
04011798 g     F .text	00000054 __sread
0401639c g     F .text	00000114 alt_find_file
04015ae4 g     F .text	000000a0 alt_dev_llist_insert
0401365c g     F .text	00000020 __malloc_lock
04001978 g     F .text	000002c0 vid_copy_line_to_frame_buffer
04013860 g     F .text	000000b0 sbrk
0400eb0c g     F .text	000001e8 _fflush_r
04011b40 g     F .text	000000cc _calloc_r
04078dfc g     O .rwdata	00000008 alt_flash_dev_list
0400854c g     F .text	00000070 QUEUE_New
04078e04 g       *ABS*	00000000 __bss_start
0400ad38 g     F .text	000000dc memset
04006068 g     F .text	000000cc main
04078e30 g     O .bss	00000004 alt_envp
04078e08 g     O .bss	00000004 __malloc_max_total_mem
04007d90 g     F .text	00000088 myprintf_hexarray
040146e0 g     F .text	00000060 altera_avalon_jtag_uart_write_fd
04005740 g     F .text	00000060 GUI_ShowTouchPoint
040069fc g     F .text	00000150 i2c_read
04011ab8 g     F .text	0000001c __swbuf
04008cac g     F .text	00000038 FrameReader_SelectFrame
04075714 g     O .rwdata	00000bc0 tahomabold_20
040118d0 g     F .text	00000008 __sclose
0400920c g     F .text	00000008 matherr
08000000 g       *ABS*	00000000 __alt_heap_limit
04003ea4 g     F .text	000001c0 vid_print_char_alpha
04011dac g     F .text	00000014 fclose
04078db4 g     O .rwdata	00000004 cour10_font
04078f64 g     O .bss	00000190 _atexit0
0400d4f0 g     F .text	0000161c _dtoa_r
0400a474 g     F .text	00000784 _malloc_r
04078de8 g     O .rwdata	00000004 alt_errno
0400f900 g     F .text	000000a8 _fwalk
040004fc g     F .text	000000c0 PtDistance
040002c4 g     F .text	0000005c RectSet
04011074 g     F .text	000000f0 putc
04009d1c g     F .text	00000050 __divsi3
04000430 g     F .text	00000064 RectCopy
040753d4 g     O .rodata	00000014 __thenan_df
0400f010 g     F .text	0000013c _malloc_trim_r
04016958 g       *ABS*	00000000 __CTOR_END__
04008a38 g     F .text	00000044 VIPFR_GetDrawFrame
040140f0 g     F .text	00000260 alt_epcs_flash_write
040118d8 g     F .text	000000a4 strcmp
040039c0 g     F .text	0000024c read_from_frame
04016958 g       *ABS*	00000000 __DTOR_LIST__
04001248 g     F .text	0000007c vid_get_pixel
04012c38 g     F .text	0000005c __nedf2
04013c54 g     F .text	00000034 alt_irq_init
040137e0 g     F .text	00000080 alt_release_fd
0400aff4 g     F .text	0000006c sprintf
040753e8 g     O .rodata	00000100 __clz_tab
04007cf4 g     F .text	00000030 debug_output
04078e18 g     O .bss	00000004 _PathLocale
04016584 g     F .text	00000014 atexit
04011ad4 g     F .text	0000006c _write_r
04000200 g     F .text	00000084 IsPtInRect
0400fb14 g     F .text	0000001c setlocale
04078dc4 g     O .rwdata	00000004 _impure_ptr
04078e28 g     O .bss	00000004 alt_argc
04015be0 g     F .text	0000005c _do_dtors
04007e18 g     F .text	0000008c myprintf_dwordarray
04006df4 g     F .text	000001c0 I2CL_MultipleRead
04000020 g       .exceptions	00000000 alt_irq_entry
04010ab4 g     F .text	00000060 __ulp
04011760 g     F .text	00000038 __isinfd
0400eff8 g     F .text	00000018 __fp_unlock_all
04078dd4 g     O .rwdata	00000008 alt_fs_list
040072b0 g     F .text	00000058 Read32_Data
04000d6c g     F .text	00000108 vid_print_string
04007750 g     F .text	000001b0 OC_I2C_Read
04008c20 g     F .text	0000008c FrameReader_SetFrame1
0400fb30 g     F .text	0000000c localeconv
040153a0 g     F .text	000000f4 epcs_read_buffer
04008f1c g     F .text	000002c4 __ieee754_sqrt
04013d28 g     F .text	00000054 alt_epcs_flash_init
04013104 g     F .text	00000050 alt_ic_isr_register
04078e04 g       *ABS*	00000000 _edata
04004d14 g     F .text	00000048 GUI_TraceGesture
040790f4 g       *ABS*	00000000 _end
04015c3c g     F .text	00000068 alt_flash_open_dev
040057a0 g     F .text	00000060 ShowInfo
04002af0 g     F .text	00000054 max3
04014bb4 g     F .text	000000f4 altera_avalon_jtag_uart_ioctl
04008d1c g     F .text	000000b8 VIPFR_ReserveBackground
040131f0 g     F .text	000000a0 alt_ic_irq_disable
04015750 g     F .text	00000058 epcs_enter_4_bytes_mode
04001820 g     F .text	0000004c vid_merge_colors
040117ec g     F .text	00000088 __swrite
04078dcc g     O .rwdata	00000004 __malloc_trim_threshold
040160e4 g     F .text	00000020 altera_nios2_qsys_irq_init
04016598 g     F .text	00000038 exit
0400f9a8 g     F .text	000000b8 _fwalk_reent
0401090c g     F .text	000001a8 __mdiff
04015ca4 g     F .text	00000050 alt_flash_close_dev
04004980 g     F .text	0000008c IsContinuedPoint
04009d6c g     F .text	0000005c __modsi3
08000000 g       *ABS*	00000000 __alt_data_end
04000020 g     F .exceptions	00000000 alt_exception
0400efd4 g     F .text	00000004 __sfp_lock_release
04000000 g       *ABS*	00000000 __alt_mem_sdram
040085bc g     F .text	00000030 QUEUE_Delete
040010bc g     F .text	0000018c vid_set_pixel
040088f4 g     F .text	00000108 VIPFR_SetFrameSize
04007ad8 g     F .text	0000021c OC_I2CL_Read
0401691c g     F .text	0000003c _exit
040091e0 g     F .text	0000002c __isnand
04015800 g     F .text	00000140 alt_alarm_start
0400072c g     F .text	00000040 vid_scroll_string_quit
04009e00 g     F .text	00000110 __muldi3
0400fb3c g     F .text	000001a8 __smakebuf_r
0400b0f4 g     F .text	0000008c strlen
04015494 g     F .text	00000050 epcs_write_enable
04015f8c g     F .text	00000158 open
04012cf8 g     F .text	00000064 __gedf2
04000320 g     F .text	00000088 RectInflate
04078dec g     O .rwdata	00000004 alt_priority_mask
04013154 g     F .text	0000009c alt_ic_irq_enable
0400d030 g     F .text	00000024 __vfprintf_internal
040095bc g     F .text	00000060 __subdf3
04002cec g     F .text	00000238 vid_bres_scan_edges
040145e8 g     F .text	00000098 alt_epcs_flash_read
040102e8 g     F .text	000000b0 __lo0bits
04078df4 g     O .rwdata	00000008 alt_alarm_list
04002b98 g     F .text	00000064 max_diff3
04015b84 g     F .text	0000005c _do_ctors
04006b4c g     F .text	00000140 I2CL_Write
04003878 g     F .text	00000148 merge_color_channels
04012ec8 g     F .text	000000cc close
04009fbc g     F .text	00000224 __pack_d
0400a460 g     F .text	00000014 free
0400efd8 g     F .text	00000004 __sinit_lock_acquire
0401554c g     F .text	0000011c epcs_write_buffer
04010038 g     F .text	00000144 __multadd
04010010 g     F .text	00000028 _Bfree



Disassembly of section .exceptions:

04000020 <alt_exception>:

#else /* ALT_EXCEPTION_STACK disabled */
        /* 
         * Reserve space on normal stack for registers about to be pushed.
         */
        addi  sp, sp, -76
 4000020:	deffed04 	addi	sp,sp,-76
         * documentation for details).
         *
         * Leave a gap in the stack frame at 4(sp) for the muldiv handler to
         * store zero into.
         */
        stw   ra,  0(sp)
 4000024:	dfc00015 	stw	ra,0(sp)
        stw   r1,   8(sp)
 4000028:	d8400215 	stw	at,8(sp)
        stw   r2,  12(sp)
 400002c:	d8800315 	stw	r2,12(sp)
        stw   r3,  16(sp)
 4000030:	d8c00415 	stw	r3,16(sp)
        stw   r4,  20(sp)
 4000034:	d9000515 	stw	r4,20(sp)
        stw   r5,  24(sp)
 4000038:	d9400615 	stw	r5,24(sp)
        stw   r6,  28(sp)
 400003c:	d9800715 	stw	r6,28(sp)
        stw   r7,  32(sp)
 4000040:	d9c00815 	stw	r7,32(sp)
        rdctl r5, estatus   /* Read early to avoid usage stall */
 4000044:	000b307a 	rdctl	r5,estatus
        stw   r8,  36(sp)
 4000048:	da000915 	stw	r8,36(sp)
        stw   r9,  40(sp)
 400004c:	da400a15 	stw	r9,40(sp)
        stw   r10, 44(sp)
 4000050:	da800b15 	stw	r10,44(sp)
        stw   r11, 48(sp)
 4000054:	dac00c15 	stw	r11,48(sp)
        stw   r12, 52(sp)
 4000058:	db000d15 	stw	r12,52(sp)
        stw   r13, 56(sp)
 400005c:	db400e15 	stw	r13,56(sp)
        stw   r14, 60(sp)
 4000060:	db800f15 	stw	r14,60(sp)
        stw   r15, 64(sp)
 4000064:	dbc01015 	stw	r15,64(sp)
        /*
         * ea-4 contains the address of the instruction being executed
         * when the exception occured. For interrupt exceptions, we will
         * will be re-issue the isntruction. Store it in 72(sp)
         */
        stw   r5,  68(sp)  /* estatus */
 4000068:	d9401115 	stw	r5,68(sp)
        addi  r15, ea, -4  /* instruction that caused exception */
 400006c:	ebffff04 	addi	r15,ea,-4
        stw   r15,  72(sp)
 4000070:	dbc01215 	stw	r15,72(sp)
#else
        /*
         * Test to see if the exception was a software exception or caused 
         * by an external interrupt, and vector accordingly.
         */
        rdctl r4, ipending
 4000074:	0009313a 	rdctl	r4,ipending
        andi  r2, r5, 1
 4000078:	2880004c 	andi	r2,r5,1
        beq   r2, zero, .Lnot_irq
 400007c:	10000326 	beq	r2,zero,400008c <alt_exception+0x6c>
        beq   r4, zero, .Lnot_irq
 4000080:	20000226 	beq	r4,zero,400008c <alt_exception+0x6c>
        /*
         * Now that all necessary registers have been preserved, call 
         * alt_irq_handler() to process the interrupts.
         */

        call alt_irq_handler
 4000084:	40000ec0 	call	40000ec <alt_irq_handler>

        .section .exceptions.irqreturn, "xa"

        br    .Lexception_exit
 4000088:	00000306 	br	4000098 <alt_exception_unknown+0x4>
         * upon completion, so we write ea (address of instruction *after*
         * the one where the exception occured) into 72(sp). The actual
         * instruction that caused the exception is written in r2, which these
         * handlers will utilize.
         */
        stw   ea,  72(sp)  /* Don't re-issue */
 400008c:	df401215 	stw	ea,72(sp)
        ldw   r2, -4(ea)   /* Instruction that caused exception */
 4000090:	e8bfff17 	ldw	r2,-4(ea)

04000094 <alt_exception_unknown>:
#ifdef NIOS2_HAS_DEBUG_STUB
       /*
        *  Either tell the user now (if there is a debugger attached) or go into
        *  the debug monitor which will loop until a debugger is attached.
        */
        break
 4000094:	003da03a 	break	0
        /* 
         * Restore the saved registers, so that all general purpose registers 
         * have been restored to their state at the time the interrupt occured.
         */

        ldw   r5,  68(sp)
 4000098:	d9401117 	ldw	r5,68(sp)
        ldw   ea,  72(sp)  /* This becomes the PC once eret is executed */
 400009c:	df401217 	ldw	ea,72(sp)
        ldw   ra,   0(sp)
 40000a0:	dfc00017 	ldw	ra,0(sp)

        wrctl estatus, r5
 40000a4:	2801707a 	wrctl	estatus,r5

        ldw   r1,   8(sp)
 40000a8:	d8400217 	ldw	at,8(sp)
        ldw   r2,  12(sp)
 40000ac:	d8800317 	ldw	r2,12(sp)
        ldw   r3,  16(sp)
 40000b0:	d8c00417 	ldw	r3,16(sp)
        ldw   r4,  20(sp)
 40000b4:	d9000517 	ldw	r4,20(sp)
        ldw   r5,  24(sp)
 40000b8:	d9400617 	ldw	r5,24(sp)
        ldw   r6,  28(sp)
 40000bc:	d9800717 	ldw	r6,28(sp)
        ldw   r7,  32(sp)
 40000c0:	d9c00817 	ldw	r7,32(sp)

#if defined(ALT_EXCEPTION_STACK) && defined(ALT_STACK_CHECK)
        ldw   et, %gprel(alt_exception_old_stack_limit)(gp)
#endif

        ldw   r8,  36(sp)
 40000c4:	da000917 	ldw	r8,36(sp)
        ldw   r9,  40(sp)
 40000c8:	da400a17 	ldw	r9,40(sp)
        ldw   r10, 44(sp)
 40000cc:	da800b17 	ldw	r10,44(sp)
        ldw   r11, 48(sp)
 40000d0:	dac00c17 	ldw	r11,48(sp)
        ldw   r12, 52(sp)
 40000d4:	db000d17 	ldw	r12,52(sp)
        ldw   r13, 56(sp)
 40000d8:	db400e17 	ldw	r13,56(sp)
        ldw   r14, 60(sp)
 40000dc:	db800f17 	ldw	r14,60(sp)
        ldw   r15, 64(sp)
 40000e0:	dbc01017 	ldw	r15,64(sp)
        stw   et, %gprel(alt_stack_limit_value)(gp)
        stw   zero, %gprel(alt_exception_old_stack_limit)(gp)
#endif /* ALT_STACK_CHECK */
        ldw   sp,  76(sp)
#else /* ALT_EXCEPTION_STACK disabled */
        addi  sp, sp, 76
 40000e4:	dec01304 	addi	sp,sp,76

        /*
         * Return to the interrupted instruction.
         */

        eret
 40000e8:	ef80083a 	eret

040000ec <alt_irq_handler>:
 * instruction is present if the macro ALT_CI_INTERRUPT_VECTOR defined.
 */

void alt_irq_handler (void) __attribute__ ((section (".exceptions")));
void alt_irq_handler (void)
{
 40000ec:	defff904 	addi	sp,sp,-28
 40000f0:	dfc00615 	stw	ra,24(sp)
 40000f4:	df000515 	stw	fp,20(sp)
 40000f8:	df000504 	addi	fp,sp,20
  
  /*
   * Notify the operating system that we are at interrupt level.
   */ 
  
  ALT_OS_INT_ENTER();
 40000fc:	0001883a 	nop
#ifndef NIOS2_EIC_PRESENT
static ALT_INLINE alt_u32 ALT_ALWAYS_INLINE alt_irq_pending (void)
{
  alt_u32 active;

  NIOS2_READ_IPENDING (active);
 4000100:	0005313a 	rdctl	r2,ipending
 4000104:	e0bffe15 	stw	r2,-8(fp)

  return active;
 4000108:	e0bffe17 	ldw	r2,-8(fp)
   * Consider the case where the high priority interupt is asserted during
   * the interrupt entry sequence for a lower priority interrupt to see why
   * this is the case.
   */

  active = alt_irq_pending ();
 400010c:	e0bffb15 	stw	r2,-20(fp)

  do
  {
    i = 0;
 4000110:	e03ffd15 	stw	zero,-12(fp)
    mask = 1;
 4000114:	00800044 	movi	r2,1
 4000118:	e0bffc15 	stw	r2,-16(fp)
     * called to clear the interrupt condition.
     */

    do
    {
      if (active & mask)
 400011c:	e0fffb17 	ldw	r3,-20(fp)
 4000120:	e0bffc17 	ldw	r2,-16(fp)
 4000124:	1884703a 	and	r2,r3,r2
 4000128:	10001726 	beq	r2,zero,4000188 <alt_irq_handler+0x9c>
      { 
#ifdef ALT_ENHANCED_INTERRUPT_API_PRESENT
        alt_irq[i].handler(alt_irq[i].context); 
 400012c:	00c10234 	movhi	r3,1032
 4000130:	18e39904 	addi	r3,r3,-29084
 4000134:	e0bffd17 	ldw	r2,-12(fp)
 4000138:	100490fa 	slli	r2,r2,3
 400013c:	1885883a 	add	r2,r3,r2
 4000140:	10c00017 	ldw	r3,0(r2)
 4000144:	01010234 	movhi	r4,1032
 4000148:	21239904 	addi	r4,r4,-29084
 400014c:	e0bffd17 	ldw	r2,-12(fp)
 4000150:	100490fa 	slli	r2,r2,3
 4000154:	2085883a 	add	r2,r4,r2
 4000158:	10800104 	addi	r2,r2,4
 400015c:	10800017 	ldw	r2,0(r2)
 4000160:	1009883a 	mov	r4,r2
 4000164:	183ee83a 	callr	r3
#else
        alt_irq[i].handler(alt_irq[i].context, i); 
#endif
        break;
 4000168:	0001883a 	nop
#ifndef NIOS2_EIC_PRESENT
static ALT_INLINE alt_u32 ALT_ALWAYS_INLINE alt_irq_pending (void)
{
  alt_u32 active;

  NIOS2_READ_IPENDING (active);
 400016c:	0005313a 	rdctl	r2,ipending
 4000170:	e0bfff15 	stw	r2,-4(fp)

  return active;
 4000174:	e0bfff17 	ldw	r2,-4(fp)
      mask <<= 1;
      i++;

    } while (1);

    active = alt_irq_pending ();
 4000178:	e0bffb15 	stw	r2,-20(fp)
    
  } while (active);
 400017c:	e0bffb17 	ldw	r2,-20(fp)
 4000180:	103fe31e 	bne	r2,zero,4000110 <__reset+0xfafff110>

  /*
   * Notify the operating system that interrupt processing is complete.
   */ 

  ALT_OS_INT_EXIT();
 4000184:	00000706 	br	40001a4 <alt_irq_handler+0xb8>
#else
        alt_irq[i].handler(alt_irq[i].context, i); 
#endif
        break;
      }
      mask <<= 1;
 4000188:	e0bffc17 	ldw	r2,-16(fp)
 400018c:	1085883a 	add	r2,r2,r2
 4000190:	e0bffc15 	stw	r2,-16(fp)
      i++;
 4000194:	e0bffd17 	ldw	r2,-12(fp)
 4000198:	10800044 	addi	r2,r2,1
 400019c:	e0bffd15 	stw	r2,-12(fp)

    } while (1);
 40001a0:	003fde06 	br	400011c <__reset+0xfafff11c>
  /*
   * Notify the operating system that interrupt processing is complete.
   */ 

  ALT_OS_INT_EXIT();
}
 40001a4:	e037883a 	mov	sp,fp
 40001a8:	dfc00117 	ldw	ra,4(sp)
 40001ac:	df000017 	ldw	fp,0(sp)
 40001b0:	dec00204 	addi	sp,sp,8
 40001b4:	f800283a 	ret

Disassembly of section .text:

040001b8 <_start>:

    /* Assume the data cache size is always a power of two. */
#if NIOS2_DCACHE_SIZE > 0x8000
    movhi r2, %hi(NIOS2_DCACHE_SIZE)
#else
    movui r2, NIOS2_DCACHE_SIZE
 40001b8:	00820014 	movui	r2,2048
#endif

0:
    initd 0(r2)
 40001bc:	10000033 	initd	0(r2)
#ifdef NIOS2_ECC_PRESENT
    addi r2, r2, -4
#else
    addi r2, r2, -NIOS2_DCACHE_LINE_SIZE
 40001c0:	10bff804 	addi	r2,r2,-32
#endif
    bgt r2, zero, 0b
 40001c4:	00bffd16 	blt	zero,r2,40001bc <__reset+0xfafff1bc>

    /*
     * Now that the caches are initialized, set up the stack pointer and global pointer.
     * The values provided by the linker are assumed to be correctly aligned.
     */
    movhi sp, %hi(__alt_stack_pointer)
 40001c8:	06c20034 	movhi	sp,2048
    ori sp, sp, %lo(__alt_stack_pointer)
 40001cc:	dec00014 	ori	sp,sp,0
    movhi gp, %hi(_gp)
 40001d0:	06810234 	movhi	gp,1032
    ori gp, gp, %lo(_gp)
 40001d4:	d6836d14 	ori	gp,gp,3508
 */
#ifndef ALT_SIM_OPTIMIZE
    /* Log that the BSS is about to be cleared. */
    ALT_LOG_PUTS(alt_log_msg_bss)

    movhi r2, %hi(__bss_start)
 40001d8:	008101f4 	movhi	r2,1031
    ori r2, r2, %lo(__bss_start)
 40001dc:	10a38114 	ori	r2,r2,36356

    movhi r3, %hi(__bss_end)
 40001e0:	00c101f4 	movhi	r3,1031
    ori r3, r3, %lo(__bss_end)
 40001e4:	18e43d14 	ori	r3,r3,37108

    beq r2, r3, 1f
 40001e8:	10c00326 	beq	r2,r3,40001f8 <_start+0x40>

0:
    stw zero, (r2)
 40001ec:	10000015 	stw	zero,0(r2)
    addi r2, r2, 4
 40001f0:	10800104 	addi	r2,r2,4
    bltu r2, r3, 0b
 40001f4:	10fffd36 	bltu	r2,r3,40001ec <__reset+0xfafff1ec>

    /* Log that alt_main is about to be called. */
    ALT_LOG_PUTS(alt_log_msg_alt_main)

    /* Call the C entry point. It should never return. */
    call alt_main
 40001f8:	40135e40 	call	40135e4 <alt_main>

040001fc <alt_after_alt_main>:

    /* Wait in infinite loop in case alt_main does return. */
alt_after_alt_main:
    br alt_after_alt_main
 40001fc:	003fff06 	br	40001fc <__reset+0xfafff1fc>

04000200 <IsPtInRect>:

//#define BOUND(x, mini, maxi) ((x<(mini)?(mini):( (x>(maxi))?(maxi):(x) )))

//#define COPY_POINT(pt_des, pt_src)  memcpy(&pt_des, &pt_src,sizeof(POINT))

bool IsPtInRect(POINT *pt, RECT *rc){
 4000200:	defffc04 	addi	sp,sp,-16
 4000204:	df000315 	stw	fp,12(sp)
 4000208:	df000304 	addi	fp,sp,12
 400020c:	e13ffe15 	stw	r4,-8(fp)
 4000210:	e17fff15 	stw	r5,-4(fp)
    bool bYes = FALSE;
 4000214:	e03ffd15 	stw	zero,-12(fp)
    
    if (pt->x >= rc->left && pt->x <= rc->right && pt->y >= rc->top && pt->y <= rc->bottom)
 4000218:	e0bffe17 	ldw	r2,-8(fp)
 400021c:	10c00017 	ldw	r3,0(r2)
 4000220:	e0bfff17 	ldw	r2,-4(fp)
 4000224:	10800017 	ldw	r2,0(r2)
 4000228:	18801116 	blt	r3,r2,4000270 <IsPtInRect+0x70>
 400022c:	e0bffe17 	ldw	r2,-8(fp)
 4000230:	10800017 	ldw	r2,0(r2)
 4000234:	e0ffff17 	ldw	r3,-4(fp)
 4000238:	18c00117 	ldw	r3,4(r3)
 400023c:	18800c16 	blt	r3,r2,4000270 <IsPtInRect+0x70>
 4000240:	e0bffe17 	ldw	r2,-8(fp)
 4000244:	10c00117 	ldw	r3,4(r2)
 4000248:	e0bfff17 	ldw	r2,-4(fp)
 400024c:	10800217 	ldw	r2,8(r2)
 4000250:	18800716 	blt	r3,r2,4000270 <IsPtInRect+0x70>
 4000254:	e0bffe17 	ldw	r2,-8(fp)
 4000258:	10800117 	ldw	r2,4(r2)
 400025c:	e0ffff17 	ldw	r3,-4(fp)
 4000260:	18c00317 	ldw	r3,12(r3)
 4000264:	18800216 	blt	r3,r2,4000270 <IsPtInRect+0x70>
        bYes = TRUE;
 4000268:	00800044 	movi	r2,1
 400026c:	e0bffd15 	stw	r2,-12(fp)
    
    return bYes;
 4000270:	e0bffd17 	ldw	r2,-12(fp)
}
 4000274:	e037883a 	mov	sp,fp
 4000278:	df000017 	ldw	fp,0(sp)
 400027c:	dec00104 	addi	sp,sp,4
 4000280:	f800283a 	ret

04000284 <PtSet>:

void PtSet(POINT *pt, int x, int y){
 4000284:	defffc04 	addi	sp,sp,-16
 4000288:	df000315 	stw	fp,12(sp)
 400028c:	df000304 	addi	fp,sp,12
 4000290:	e13ffd15 	stw	r4,-12(fp)
 4000294:	e17ffe15 	stw	r5,-8(fp)
 4000298:	e1bfff15 	stw	r6,-4(fp)
    pt->x = x;
 400029c:	e0bffd17 	ldw	r2,-12(fp)
 40002a0:	e0fffe17 	ldw	r3,-8(fp)
 40002a4:	10c00015 	stw	r3,0(r2)
    pt->y = y;
 40002a8:	e0bffd17 	ldw	r2,-12(fp)
 40002ac:	e0ffff17 	ldw	r3,-4(fp)
 40002b0:	10c00115 	stw	r3,4(r2)
}
 40002b4:	e037883a 	mov	sp,fp
 40002b8:	df000017 	ldw	fp,0(sp)
 40002bc:	dec00104 	addi	sp,sp,4
 40002c0:	f800283a 	ret

040002c4 <RectSet>:

void RectSet(RECT *rc, int left, int right, int top, int bottom){
 40002c4:	defffb04 	addi	sp,sp,-20
 40002c8:	df000415 	stw	fp,16(sp)
 40002cc:	df000404 	addi	fp,sp,16
 40002d0:	e13ffc15 	stw	r4,-16(fp)
 40002d4:	e17ffd15 	stw	r5,-12(fp)
 40002d8:	e1bffe15 	stw	r6,-8(fp)
 40002dc:	e1ffff15 	stw	r7,-4(fp)
    rc->left = left;
 40002e0:	e0bffc17 	ldw	r2,-16(fp)
 40002e4:	e0fffd17 	ldw	r3,-12(fp)
 40002e8:	10c00015 	stw	r3,0(r2)
    rc->right = right;
 40002ec:	e0bffc17 	ldw	r2,-16(fp)
 40002f0:	e0fffe17 	ldw	r3,-8(fp)
 40002f4:	10c00115 	stw	r3,4(r2)
    rc->top = top;
 40002f8:	e0bffc17 	ldw	r2,-16(fp)
 40002fc:	e0ffff17 	ldw	r3,-4(fp)
 4000300:	10c00215 	stw	r3,8(r2)
    rc->bottom = bottom;
 4000304:	e0bffc17 	ldw	r2,-16(fp)
 4000308:	e0c00117 	ldw	r3,4(fp)
 400030c:	10c00315 	stw	r3,12(r2)
}
 4000310:	e037883a 	mov	sp,fp
 4000314:	df000017 	ldw	fp,0(sp)
 4000318:	dec00104 	addi	sp,sp,4
 400031c:	f800283a 	ret

04000320 <RectInflate>:

void RectInflate(RECT *rc, int x, int y){
 4000320:	defffc04 	addi	sp,sp,-16
 4000324:	df000315 	stw	fp,12(sp)
 4000328:	df000304 	addi	fp,sp,12
 400032c:	e13ffd15 	stw	r4,-12(fp)
 4000330:	e17ffe15 	stw	r5,-8(fp)
 4000334:	e1bfff15 	stw	r6,-4(fp)
    rc->left -= x;
 4000338:	e0bffd17 	ldw	r2,-12(fp)
 400033c:	10c00017 	ldw	r3,0(r2)
 4000340:	e0bffe17 	ldw	r2,-8(fp)
 4000344:	1887c83a 	sub	r3,r3,r2
 4000348:	e0bffd17 	ldw	r2,-12(fp)
 400034c:	10c00015 	stw	r3,0(r2)
    rc->right += x;
 4000350:	e0bffd17 	ldw	r2,-12(fp)
 4000354:	10c00117 	ldw	r3,4(r2)
 4000358:	e0bffe17 	ldw	r2,-8(fp)
 400035c:	1887883a 	add	r3,r3,r2
 4000360:	e0bffd17 	ldw	r2,-12(fp)
 4000364:	10c00115 	stw	r3,4(r2)
    rc->top -= y;
 4000368:	e0bffd17 	ldw	r2,-12(fp)
 400036c:	10c00217 	ldw	r3,8(r2)
 4000370:	e0bfff17 	ldw	r2,-4(fp)
 4000374:	1887c83a 	sub	r3,r3,r2
 4000378:	e0bffd17 	ldw	r2,-12(fp)
 400037c:	10c00215 	stw	r3,8(r2)
    rc->bottom += y;
 4000380:	e0bffd17 	ldw	r2,-12(fp)
 4000384:	10c00317 	ldw	r3,12(r2)
 4000388:	e0bfff17 	ldw	r2,-4(fp)
 400038c:	1887883a 	add	r3,r3,r2
 4000390:	e0bffd17 	ldw	r2,-12(fp)
 4000394:	10c00315 	stw	r3,12(r2)
}
 4000398:	e037883a 	mov	sp,fp
 400039c:	df000017 	ldw	fp,0(sp)
 40003a0:	dec00104 	addi	sp,sp,4
 40003a4:	f800283a 	ret

040003a8 <RectOffset>:

void RectOffset(RECT *rc, int x, int y){
 40003a8:	defffc04 	addi	sp,sp,-16
 40003ac:	df000315 	stw	fp,12(sp)
 40003b0:	df000304 	addi	fp,sp,12
 40003b4:	e13ffd15 	stw	r4,-12(fp)
 40003b8:	e17ffe15 	stw	r5,-8(fp)
 40003bc:	e1bfff15 	stw	r6,-4(fp)
    rc->left += x;
 40003c0:	e0bffd17 	ldw	r2,-12(fp)
 40003c4:	10c00017 	ldw	r3,0(r2)
 40003c8:	e0bffe17 	ldw	r2,-8(fp)
 40003cc:	1887883a 	add	r3,r3,r2
 40003d0:	e0bffd17 	ldw	r2,-12(fp)
 40003d4:	10c00015 	stw	r3,0(r2)
    rc->right += x;
 40003d8:	e0bffd17 	ldw	r2,-12(fp)
 40003dc:	10c00117 	ldw	r3,4(r2)
 40003e0:	e0bffe17 	ldw	r2,-8(fp)
 40003e4:	1887883a 	add	r3,r3,r2
 40003e8:	e0bffd17 	ldw	r2,-12(fp)
 40003ec:	10c00115 	stw	r3,4(r2)
    rc->top += y;
 40003f0:	e0bffd17 	ldw	r2,-12(fp)
 40003f4:	10c00217 	ldw	r3,8(r2)
 40003f8:	e0bfff17 	ldw	r2,-4(fp)
 40003fc:	1887883a 	add	r3,r3,r2
 4000400:	e0bffd17 	ldw	r2,-12(fp)
 4000404:	10c00215 	stw	r3,8(r2)
    rc->bottom += y;
 4000408:	e0bffd17 	ldw	r2,-12(fp)
 400040c:	10c00317 	ldw	r3,12(r2)
 4000410:	e0bfff17 	ldw	r2,-4(fp)
 4000414:	1887883a 	add	r3,r3,r2
 4000418:	e0bffd17 	ldw	r2,-12(fp)
 400041c:	10c00315 	stw	r3,12(r2)
}
 4000420:	e037883a 	mov	sp,fp
 4000424:	df000017 	ldw	fp,0(sp)
 4000428:	dec00104 	addi	sp,sp,4
 400042c:	f800283a 	ret

04000430 <RectCopy>:

void RectCopy(RECT *rcDes, RECT *rcSrc){
 4000430:	defffd04 	addi	sp,sp,-12
 4000434:	df000215 	stw	fp,8(sp)
 4000438:	df000204 	addi	fp,sp,8
 400043c:	e13ffe15 	stw	r4,-8(fp)
 4000440:	e17fff15 	stw	r5,-4(fp)
    rcDes->left = rcSrc->left;
 4000444:	e0bfff17 	ldw	r2,-4(fp)
 4000448:	10c00017 	ldw	r3,0(r2)
 400044c:	e0bffe17 	ldw	r2,-8(fp)
 4000450:	10c00015 	stw	r3,0(r2)
    rcDes->right = rcSrc->right;
 4000454:	e0bfff17 	ldw	r2,-4(fp)
 4000458:	10c00117 	ldw	r3,4(r2)
 400045c:	e0bffe17 	ldw	r2,-8(fp)
 4000460:	10c00115 	stw	r3,4(r2)
    rcDes->top = rcSrc->top;
 4000464:	e0bfff17 	ldw	r2,-4(fp)
 4000468:	10c00217 	ldw	r3,8(r2)
 400046c:	e0bffe17 	ldw	r2,-8(fp)
 4000470:	10c00215 	stw	r3,8(r2)
    rcDes->bottom = rcSrc->bottom;
 4000474:	e0bfff17 	ldw	r2,-4(fp)
 4000478:	10c00317 	ldw	r3,12(r2)
 400047c:	e0bffe17 	ldw	r2,-8(fp)
 4000480:	10c00315 	stw	r3,12(r2)
}
 4000484:	e037883a 	mov	sp,fp
 4000488:	df000017 	ldw	fp,0(sp)
 400048c:	dec00104 	addi	sp,sp,4
 4000490:	f800283a 	ret

04000494 <RectWidth>:

int RectWidth(RECT *rc){
 4000494:	defffe04 	addi	sp,sp,-8
 4000498:	df000115 	stw	fp,4(sp)
 400049c:	df000104 	addi	fp,sp,4
 40004a0:	e13fff15 	stw	r4,-4(fp)
    return (rc->right-rc->left);
 40004a4:	e0bfff17 	ldw	r2,-4(fp)
 40004a8:	10c00117 	ldw	r3,4(r2)
 40004ac:	e0bfff17 	ldw	r2,-4(fp)
 40004b0:	10800017 	ldw	r2,0(r2)
 40004b4:	1885c83a 	sub	r2,r3,r2
}
 40004b8:	e037883a 	mov	sp,fp
 40004bc:	df000017 	ldw	fp,0(sp)
 40004c0:	dec00104 	addi	sp,sp,4
 40004c4:	f800283a 	ret

040004c8 <RectHeight>:

int RectHeight(RECT *rc){
 40004c8:	defffe04 	addi	sp,sp,-8
 40004cc:	df000115 	stw	fp,4(sp)
 40004d0:	df000104 	addi	fp,sp,4
 40004d4:	e13fff15 	stw	r4,-4(fp)
    return (rc->bottom-rc->top);
 40004d8:	e0bfff17 	ldw	r2,-4(fp)
 40004dc:	10c00317 	ldw	r3,12(r2)
 40004e0:	e0bfff17 	ldw	r2,-4(fp)
 40004e4:	10800217 	ldw	r2,8(r2)
 40004e8:	1885c83a 	sub	r2,r3,r2
}
 40004ec:	e037883a 	mov	sp,fp
 40004f0:	df000017 	ldw	fp,0(sp)
 40004f4:	dec00104 	addi	sp,sp,4
 40004f8:	f800283a 	ret

040004fc <PtDistance>:

int PtDistance(POINT *pt1, POINT *pt2){
 40004fc:	defff804 	addi	sp,sp,-32
 4000500:	dfc00715 	stw	ra,28(sp)
 4000504:	df000615 	stw	fp,24(sp)
 4000508:	dc000515 	stw	r16,20(sp)
 400050c:	df000504 	addi	fp,sp,20
 4000510:	e13ffe15 	stw	r4,-8(fp)
 4000514:	e17fff15 	stw	r5,-4(fp)
    int nDistance;
    int a, b;
    a = pt1->x - pt2->x;
 4000518:	e0bffe17 	ldw	r2,-8(fp)
 400051c:	10c00017 	ldw	r3,0(r2)
 4000520:	e0bfff17 	ldw	r2,-4(fp)
 4000524:	10800017 	ldw	r2,0(r2)
 4000528:	1885c83a 	sub	r2,r3,r2
 400052c:	e0bffb15 	stw	r2,-20(fp)
    b = pt1->y - pt2->y;
 4000530:	e0bffe17 	ldw	r2,-8(fp)
 4000534:	10c00117 	ldw	r3,4(r2)
 4000538:	e0bfff17 	ldw	r2,-4(fp)
 400053c:	10800117 	ldw	r2,4(r2)
 4000540:	1885c83a 	sub	r2,r3,r2
 4000544:	e0bffc15 	stw	r2,-16(fp)
    nDistance = a*a + b*b;
 4000548:	e13ffb17 	ldw	r4,-20(fp)
 400054c:	e17ffb17 	ldw	r5,-20(fp)
 4000550:	4009dd80 	call	4009dd8 <__mulsi3>
 4000554:	1021883a 	mov	r16,r2
 4000558:	e13ffc17 	ldw	r4,-16(fp)
 400055c:	e17ffc17 	ldw	r5,-16(fp)
 4000560:	4009dd80 	call	4009dd8 <__mulsi3>
 4000564:	8085883a 	add	r2,r16,r2
 4000568:	e0bffd15 	stw	r2,-12(fp)
    nDistance = sqrt(nDistance);
 400056c:	e13ffd17 	ldw	r4,-12(fp)
 4000570:	4009b100 	call	4009b10 <__floatsidf>
 4000574:	100b883a 	mov	r5,r2
 4000578:	180d883a 	mov	r6,r3
 400057c:	2809883a 	mov	r4,r5
 4000580:	300b883a 	mov	r5,r6
 4000584:	4008dd40 	call	4008dd4 <sqrt>
 4000588:	100b883a 	mov	r5,r2
 400058c:	180d883a 	mov	r6,r3
 4000590:	2809883a 	mov	r4,r5
 4000594:	300b883a 	mov	r5,r6
 4000598:	4009be40 	call	4009be4 <__fixdfsi>
 400059c:	e0bffd15 	stw	r2,-12(fp)
    
    return nDistance;
 40005a0:	e0bffd17 	ldw	r2,-12(fp)
}
 40005a4:	e037883a 	mov	sp,fp
 40005a8:	dfc00217 	ldw	ra,8(sp)
 40005ac:	df000117 	ldw	fp,4(sp)
 40005b0:	dc000017 	ldw	r16,0(sp)
 40005b4:	dec00304 	addi	sp,sp,12
 40005b8:	f800283a 	ret

040005bc <PtCopy>:

void PtCopy(POINT *ptDes, POINT *ptSrc){
 40005bc:	defffd04 	addi	sp,sp,-12
 40005c0:	df000215 	stw	fp,8(sp)
 40005c4:	df000204 	addi	fp,sp,8
 40005c8:	e13ffe15 	stw	r4,-8(fp)
 40005cc:	e17fff15 	stw	r5,-4(fp)
    ptDes->x = ptSrc->x;
 40005d0:	e0bfff17 	ldw	r2,-4(fp)
 40005d4:	10c00017 	ldw	r3,0(r2)
 40005d8:	e0bffe17 	ldw	r2,-8(fp)
 40005dc:	10c00015 	stw	r3,0(r2)
    ptDes->y = ptSrc->y;
 40005e0:	e0bfff17 	ldw	r2,-4(fp)
 40005e4:	10c00117 	ldw	r3,4(r2)
 40005e8:	e0bffe17 	ldw	r2,-8(fp)
 40005ec:	10c00115 	stw	r3,4(r2)
}
 40005f0:	e037883a 	mov	sp,fp
 40005f4:	df000017 	ldw	fp,0(sp)
 40005f8:	dec00104 	addi	sp,sp,4
 40005fc:	f800283a 	ret

04000600 <vid_clean_screen>:
#include "sys/alt_cache.h"
#include "system.h"


// richard add
void vid_clean_screen(alt_video_display* display, int color){
 4000600:	defffa04 	addi	sp,sp,-24
 4000604:	dfc00515 	stw	ra,20(sp)
 4000608:	df000415 	stw	fp,16(sp)
 400060c:	df000404 	addi	fp,sp,16
 4000610:	e13ffe15 	stw	r4,-8(fp)
 4000614:	e17fff15 	stw	r5,-4(fp)
    vid_paint_block(0 , 0,display->width, display->height, color, display);
 4000618:	e0bffe17 	ldw	r2,-8(fp)
 400061c:	10c00517 	ldw	r3,20(r2)
 4000620:	e0bffe17 	ldw	r2,-8(fp)
 4000624:	10800617 	ldw	r2,24(r2)
 4000628:	e13fff17 	ldw	r4,-4(fp)
 400062c:	d9000015 	stw	r4,0(sp)
 4000630:	e13ffe17 	ldw	r4,-8(fp)
 4000634:	d9000115 	stw	r4,4(sp)
 4000638:	0009883a 	mov	r4,zero
 400063c:	000b883a 	mov	r5,zero
 4000640:	180d883a 	mov	r6,r3
 4000644:	100f883a 	mov	r7,r2
 4000648:	40012c40 	call	40012c4 <vid_paint_block>
}
 400064c:	e037883a 	mov	sp,fp
 4000650:	dfc00117 	ldw	ra,4(sp)
 4000654:	df000017 	ldw	fp,0(sp)
 4000658:	dec00204 	addi	sp,sp,8
 400065c:	f800283a 	ret

04000660 <vid_draw_line>:
*           vid_draw_horiz_line(), which is much faster than 
*           vid_draw_sloped_line.
*
******************************************************************/
__inline__ void vid_draw_line(int horiz_start, int vert_start, int horiz_end, int vert_end, int width, int color, alt_video_display* display)
{
 4000660:	defff704 	addi	sp,sp,-36
 4000664:	dfc00815 	stw	ra,32(sp)
 4000668:	df000715 	stw	fp,28(sp)
 400066c:	df000704 	addi	fp,sp,28
 4000670:	e13ffc15 	stw	r4,-16(fp)
 4000674:	e17ffd15 	stw	r5,-12(fp)
 4000678:	e1bffe15 	stw	r6,-8(fp)
 400067c:	e1ffff15 	stw	r7,-4(fp)
 
  if( vert_start == vert_end )
 4000680:	e0fffd17 	ldw	r3,-12(fp)
 4000684:	e0bfff17 	ldw	r2,-4(fp)
 4000688:	1880111e 	bne	r3,r2,40006d0 <vid_draw_line+0x70>
//                         (unsigned short)horiz_end,  
//                         (unsigned short)vert_start,
//                         color,
//                         display->buffer_ptrs[display->buffer_being_written]->buffer);

    vid_draw_horiz_line( (unsigned short)horiz_start, 
 400068c:	e0bffc17 	ldw	r2,-16(fp)
 4000690:	113fffcc 	andi	r4,r2,65535
 4000694:	2120001c 	xori	r4,r4,32768
 4000698:	21200004 	addi	r4,r4,-32768
 400069c:	e0bffe17 	ldw	r2,-8(fp)
 40006a0:	10ffffcc 	andi	r3,r2,65535
 40006a4:	18e0001c 	xori	r3,r3,32768
 40006a8:	18e00004 	addi	r3,r3,-32768
                         (unsigned short)horiz_end, 
                         (unsigned short)vert_start,
 40006ac:	e0bffd17 	ldw	r2,-12(fp)
//                         (unsigned short)horiz_end,  
//                         (unsigned short)vert_start,
//                         color,
//                         display->buffer_ptrs[display->buffer_being_written]->buffer);

    vid_draw_horiz_line( (unsigned short)horiz_start, 
 40006b0:	10bfffcc 	andi	r2,r2,65535
 40006b4:	e1400417 	ldw	r5,16(fp)
 40006b8:	d9400015 	stw	r5,0(sp)
 40006bc:	180b883a 	mov	r5,r3
 40006c0:	100d883a 	mov	r6,r2
 40006c4:	e1c00317 	ldw	r7,12(fp)
 40006c8:	40015240 	call	4001524 <vid_draw_horiz_line>
 40006cc:	00001206 	br	4000718 <vid_draw_line+0xb8>
                         color,
                         display );
  }
  else
  {
    vid_draw_sloped_line( (unsigned short)horiz_start, 
 40006d0:	e0bffc17 	ldw	r2,-16(fp)
 40006d4:	113fffcc 	andi	r4,r2,65535
                          (unsigned short)vert_start, 
 40006d8:	e0bffd17 	ldw	r2,-12(fp)
                         color,
                         display );
  }
  else
  {
    vid_draw_sloped_line( (unsigned short)horiz_start, 
 40006dc:	117fffcc 	andi	r5,r2,65535
                          (unsigned short)vert_start, 
                          (unsigned short)horiz_end, 
 40006e0:	e0bffe17 	ldw	r2,-8(fp)
                         color,
                         display );
  }
  else
  {
    vid_draw_sloped_line( (unsigned short)horiz_start, 
 40006e4:	10ffffcc 	andi	r3,r2,65535
                          (unsigned short)vert_start, 
                          (unsigned short)horiz_end, 
                          (unsigned short)vert_end, 
 40006e8:	e0bfff17 	ldw	r2,-4(fp)
                         color,
                         display );
  }
  else
  {
    vid_draw_sloped_line( (unsigned short)horiz_start, 
 40006ec:	10bfffcc 	andi	r2,r2,65535
                          (unsigned short)vert_start, 
                          (unsigned short)horiz_end, 
                          (unsigned short)vert_end, 
                          (unsigned short)width, 
 40006f0:	e1800217 	ldw	r6,8(fp)
                         color,
                         display );
  }
  else
  {
    vid_draw_sloped_line( (unsigned short)horiz_start, 
 40006f4:	31bfffcc 	andi	r6,r6,65535
 40006f8:	d9800015 	stw	r6,0(sp)
 40006fc:	e1800317 	ldw	r6,12(fp)
 4000700:	d9800115 	stw	r6,4(sp)
 4000704:	e1800417 	ldw	r6,16(fp)
 4000708:	d9800215 	stw	r6,8(sp)
 400070c:	180d883a 	mov	r6,r3
 4000710:	100f883a 	mov	r7,r2
 4000714:	4001c380 	call	4001c38 <vid_draw_sloped_line>
                          (unsigned short)vert_end, 
                          (unsigned short)width, 
                          color,
                          display );
  }
}
 4000718:	e037883a 	mov	sp,fp
 400071c:	dfc00117 	ldw	ra,4(sp)
 4000720:	df000017 	ldw	fp,0(sp)
 4000724:	dec00204 	addi	sp,sp,8
 4000728:	f800283a 	ret

0400072c <vid_scroll_string_quit>:



void vid_scroll_string_quit(vid_text_scroll_struct* scroll)
{
 400072c:	defffd04 	addi	sp,sp,-12
 4000730:	dfc00215 	stw	ra,8(sp)
 4000734:	df000115 	stw	fp,4(sp)
 4000738:	df000104 	addi	fp,sp,4
 400073c:	e13fff15 	stw	r4,-4(fp)
  free(scroll->string);
 4000740:	e0bfff17 	ldw	r2,-4(fp)
 4000744:	10800517 	ldw	r2,20(r2)
 4000748:	1009883a 	mov	r4,r2
 400074c:	400a4600 	call	400a460 <free>
  free(scroll);
 4000750:	e13fff17 	ldw	r4,-4(fp)
 4000754:	400a4600 	call	400a460 <free>
}
 4000758:	e037883a 	mov	sp,fp
 400075c:	dfc00117 	ldw	ra,4(sp)
 4000760:	df000017 	ldw	fp,0(sp)
 4000764:	dec00204 	addi	sp,sp,8
 4000768:	f800283a 	ret

0400076c <vid_scroll_string_init>:

vid_text_scroll_struct* vid_scroll_string_init(int hbegin, int vbegin, int hend, int f_color, int b_color, char* font, int ms_delay, char *string)
{
 400076c:	defff904 	addi	sp,sp,-28
 4000770:	dfc00615 	stw	ra,24(sp)
 4000774:	df000515 	stw	fp,20(sp)
 4000778:	df000504 	addi	fp,sp,20
 400077c:	e13ffc15 	stw	r4,-16(fp)
 4000780:	e17ffd15 	stw	r5,-12(fp)
 4000784:	e1bffe15 	stw	r6,-8(fp)
 4000788:	e1ffff15 	stw	r7,-4(fp)
  vid_text_scroll_struct* scroll;
  scroll = malloc(sizeof (vid_text_scroll_struct));
 400078c:	01000f04 	movi	r4,60
 4000790:	400a44c0 	call	400a44c <malloc>
 4000794:	e0bffb15 	stw	r2,-20(fp)
  
  scroll->hbegin = hbegin;
 4000798:	e0bffb17 	ldw	r2,-20(fp)
 400079c:	e0fffc17 	ldw	r3,-16(fp)
 40007a0:	10c00015 	stw	r3,0(r2)
  scroll->vbegin = vbegin;
 40007a4:	e0bffb17 	ldw	r2,-20(fp)
 40007a8:	e0fffd17 	ldw	r3,-12(fp)
 40007ac:	10c00115 	stw	r3,4(r2)
  scroll->hend = hend;
 40007b0:	e0bffb17 	ldw	r2,-20(fp)
 40007b4:	e0fffe17 	ldw	r3,-8(fp)
 40007b8:	10c00215 	stw	r3,8(r2)
  scroll->f_color = f_color;
 40007bc:	e0bffb17 	ldw	r2,-20(fp)
 40007c0:	e0ffff17 	ldw	r3,-4(fp)
 40007c4:	10c00315 	stw	r3,12(r2)
  scroll->b_color = b_color;
 40007c8:	e0bffb17 	ldw	r2,-20(fp)
 40007cc:	e0c00217 	ldw	r3,8(fp)
 40007d0:	10c00415 	stw	r3,16(r2)
  scroll->string = malloc(strlen(string)+2);
 40007d4:	e1000517 	ldw	r4,20(fp)
 40007d8:	400b0f40 	call	400b0f4 <strlen>
 40007dc:	10800084 	addi	r2,r2,2
 40007e0:	1009883a 	mov	r4,r2
 40007e4:	400a44c0 	call	400a44c <malloc>
 40007e8:	1007883a 	mov	r3,r2
 40007ec:	e0bffb17 	ldw	r2,-20(fp)
 40007f0:	10c00515 	stw	r3,20(r2)
  strcpy(scroll->string, string);
 40007f4:	e0bffb17 	ldw	r2,-20(fp)
 40007f8:	10800517 	ldw	r2,20(r2)
 40007fc:	1009883a 	mov	r4,r2
 4000800:	e1400517 	ldw	r5,20(fp)
 4000804:	400b0600 	call	400b060 <strcpy>
  scroll->font = font;
 4000808:	e0bffb17 	ldw	r2,-20(fp)
 400080c:	e0c00317 	ldw	r3,12(fp)
 4000810:	10c00615 	stw	r3,24(r2)
  scroll->ms_delay = ms_delay;
 4000814:	e0bffb17 	ldw	r2,-20(fp)
 4000818:	e0c00417 	ldw	r3,16(fp)
 400081c:	10c00715 	stw	r3,28(r2)
 * alt_nticks() returns the elapsed number of system clock ticks since reset.
 */

static ALT_INLINE alt_u32 ALT_ALWAYS_INLINE alt_nticks (void)
{
  return _alt_nticks;
 4000820:	00810234 	movhi	r2,1032
 4000824:	10a38e04 	addi	r2,r2,-29128
 4000828:	10800017 	ldw	r2,0(r2)
  scroll->ticks_at_last_move = alt_nticks();
 400082c:	1007883a 	mov	r3,r2
 4000830:	e0bffb17 	ldw	r2,-20(fp)
 4000834:	10c00815 	stw	r3,32(r2)
  scroll->text_scroll_index = 0;
 4000838:	e0bffb17 	ldw	r2,-20(fp)
 400083c:	10000915 	stw	zero,36(r2)
  scroll->text_scroll_started = 0;
 4000840:	e0bffb17 	ldw	r2,-20(fp)
 4000844:	10000a05 	stb	zero,40(r2)
  scroll->window_width = scroll->hend - scroll->hbegin;
 4000848:	e0bffb17 	ldw	r2,-20(fp)
 400084c:	10c00217 	ldw	r3,8(r2)
 4000850:	e0bffb17 	ldw	r2,-20(fp)
 4000854:	10800017 	ldw	r2,0(r2)
 4000858:	1887c83a 	sub	r3,r3,r2
 400085c:	e0bffb17 	ldw	r2,-20(fp)
 4000860:	10c00b15 	stw	r3,44(r2)
  scroll->length_of_string = strlen(string);
 4000864:	e1000517 	ldw	r4,20(fp)
 4000868:	400b0f40 	call	400b0f4 <strlen>
 400086c:	1007883a 	mov	r3,r2
 4000870:	e0bffb17 	ldw	r2,-20(fp)
 4000874:	10c00c15 	stw	r3,48(r2)
  scroll->string_points = scroll->length_of_string * 8;
 4000878:	e0bffb17 	ldw	r2,-20(fp)
 400087c:	10800c17 	ldw	r2,48(r2)
 4000880:	100690fa 	slli	r3,r2,3
 4000884:	e0bffb17 	ldw	r2,-20(fp)
 4000888:	10c00e15 	stw	r3,56(r2)
  scroll->scroll_points = (scroll->window_width + scroll->string_points);
 400088c:	e0bffb17 	ldw	r2,-20(fp)
 4000890:	10c00b17 	ldw	r3,44(r2)
 4000894:	e0bffb17 	ldw	r2,-20(fp)
 4000898:	10800e17 	ldw	r2,56(r2)
 400089c:	1887883a 	add	r3,r3,r2
 40008a0:	e0bffb17 	ldw	r2,-20(fp)
 40008a4:	10c00d15 	stw	r3,52(r2)
 
  return(scroll);
 40008a8:	e0bffb17 	ldw	r2,-20(fp)
  
}
 40008ac:	e037883a 	mov	sp,fp
 40008b0:	dfc00117 	ldw	ra,4(sp)
 40008b4:	df000017 	ldw	fp,0(sp)
 40008b8:	dec00204 	addi	sp,sp,8
 40008bc:	f800283a 	ret

040008c0 <vid_scroll_string>:


int vid_scroll_string(vid_text_scroll_struct* scroll, alt_video_display* display)
{
 40008c0:	deffec04 	addi	sp,sp,-80
 40008c4:	dfc01315 	stw	ra,76(sp)
 40008c8:	df001215 	stw	fp,72(sp)
 40008cc:	dc401115 	stw	r17,68(sp)
 40008d0:	dc001015 	stw	r16,64(sp)
 40008d4:	df001004 	addi	fp,sp,64
 40008d8:	e13ffe15 	stw	r4,-8(fp)
 40008dc:	e17fff15 	stw	r5,-4(fp)

  int x_start, x_end, x_index, string_x_index, string_char_index, char_row, char_column;
  char character, column_mask;
  char* font_char_ptr;
  char pixels_to_move_by = 1;
 40008e0:	00800044 	movi	r2,1
 40008e4:	e0bff805 	stb	r2,-32(fp)
 40008e8:	00810234 	movhi	r2,1032
 40008ec:	10a38e04 	addi	r2,r2,-29128
 40008f0:	10800017 	ldw	r2,0(r2)

  // If it's time to move the scroll..
  if (alt_nticks() >= (scroll->ticks_at_last_move + ((alt_ticks_per_second() * (scroll->ms_delay)) / 1000))) {
 40008f4:	1021883a 	mov	r16,r2
 40008f8:	e0bffe17 	ldw	r2,-8(fp)
 40008fc:	10800817 	ldw	r2,32(r2)
 4000900:	1023883a 	mov	r17,r2
 * Obtain the system clock rate in ticks/s. 
 */

static ALT_INLINE alt_u32 ALT_ALWAYS_INLINE alt_ticks_per_second (void)
{
  return _alt_tick_rate;
 4000904:	00810234 	movhi	r2,1032
 4000908:	10a38d04 	addi	r2,r2,-29132
 400090c:	10800017 	ldw	r2,0(r2)
 4000910:	1007883a 	mov	r3,r2
 4000914:	e0bffe17 	ldw	r2,-8(fp)
 4000918:	10800717 	ldw	r2,28(r2)
 400091c:	1809883a 	mov	r4,r3
 4000920:	100b883a 	mov	r5,r2
 4000924:	4009dd80 	call	4009dd8 <__mulsi3>
 4000928:	1009883a 	mov	r4,r2
 400092c:	0140fa04 	movi	r5,1000
 4000930:	4009dc80 	call	4009dc8 <__udivsi3>
 4000934:	8885883a 	add	r2,r17,r2
 4000938:	8080bd36 	bltu	r16,r2,4000c30 <vid_scroll_string+0x370>
 * alt_nticks() returns the elapsed number of system clock ticks since reset.
 */

static ALT_INLINE alt_u32 ALT_ALWAYS_INLINE alt_nticks (void)
{
  return _alt_nticks;
 400093c:	00810234 	movhi	r2,1032
 4000940:	10a38e04 	addi	r2,r2,-29128
 4000944:	10800017 	ldw	r2,0(r2)
    scroll->ticks_at_last_move = alt_nticks();
 4000948:	1007883a 	mov	r3,r2
 400094c:	e0bffe17 	ldw	r2,-8(fp)
 4000950:	10c00815 	stw	r3,32(r2)
    
    // Track where we are in the scroll.
    if(scroll->text_scroll_started == 0) {
 4000954:	e0bffe17 	ldw	r2,-8(fp)
 4000958:	10800a03 	ldbu	r2,40(r2)
 400095c:	10803fcc 	andi	r2,r2,255
 4000960:	1080201c 	xori	r2,r2,128
 4000964:	10bfe004 	addi	r2,r2,-128
 4000968:	1000061e 	bne	r2,zero,4000984 <vid_scroll_string+0xc4>
      scroll->text_scroll_index = 0;
 400096c:	e0bffe17 	ldw	r2,-8(fp)
 4000970:	10000915 	stw	zero,36(r2)
      scroll->text_scroll_started = 1;
 4000974:	e0bffe17 	ldw	r2,-8(fp)
 4000978:	00c00044 	movi	r3,1
 400097c:	10c00a05 	stb	r3,40(r2)
 4000980:	00000e06 	br	40009bc <vid_scroll_string+0xfc>
    } else if(scroll->text_scroll_index >= scroll->scroll_points)  {
 4000984:	e0bffe17 	ldw	r2,-8(fp)
 4000988:	10c00917 	ldw	r3,36(r2)
 400098c:	e0bffe17 	ldw	r2,-8(fp)
 4000990:	10800d17 	ldw	r2,52(r2)
 4000994:	18800316 	blt	r3,r2,40009a4 <vid_scroll_string+0xe4>
      scroll->text_scroll_started = 0;
 4000998:	e0bffe17 	ldw	r2,-8(fp)
 400099c:	10000a05 	stb	zero,40(r2)
 40009a0:	00000606 	br	40009bc <vid_scroll_string+0xfc>
    } else {
      scroll->text_scroll_index += pixels_to_move_by;
 40009a4:	e0bffe17 	ldw	r2,-8(fp)
 40009a8:	10c00917 	ldw	r3,36(r2)
 40009ac:	e0bff807 	ldb	r2,-32(fp)
 40009b0:	1887883a 	add	r3,r3,r2
 40009b4:	e0bffe17 	ldw	r2,-8(fp)
 40009b8:	10c00915 	stw	r3,36(r2)
    }
    
    //Find out where we start
    if (scroll->text_scroll_index < scroll->window_width) {
 40009bc:	e0bffe17 	ldw	r2,-8(fp)
 40009c0:	10c00917 	ldw	r3,36(r2)
 40009c4:	e0bffe17 	ldw	r2,-8(fp)
 40009c8:	10800b17 	ldw	r2,44(r2)
 40009cc:	18800a0e 	bge	r3,r2,40009f8 <vid_scroll_string+0x138>
      x_start = scroll->hbegin + scroll->window_width - scroll->text_scroll_index;
 40009d0:	e0bffe17 	ldw	r2,-8(fp)
 40009d4:	10c00017 	ldw	r3,0(r2)
 40009d8:	e0bffe17 	ldw	r2,-8(fp)
 40009dc:	10800b17 	ldw	r2,44(r2)
 40009e0:	1887883a 	add	r3,r3,r2
 40009e4:	e0bffe17 	ldw	r2,-8(fp)
 40009e8:	10800917 	ldw	r2,36(r2)
 40009ec:	1885c83a 	sub	r2,r3,r2
 40009f0:	e0bff315 	stw	r2,-52(fp)
 40009f4:	00000306 	br	4000a04 <vid_scroll_string+0x144>
    } else {
      x_start = scroll->hbegin;
 40009f8:	e0bffe17 	ldw	r2,-8(fp)
 40009fc:	10800017 	ldw	r2,0(r2)
 4000a00:	e0bff315 	stw	r2,-52(fp)
    }
    //Find out where we end
    if (scroll->string_points > scroll->text_scroll_index) {
 4000a04:	e0bffe17 	ldw	r2,-8(fp)
 4000a08:	10800e17 	ldw	r2,56(r2)
 4000a0c:	e0fffe17 	ldw	r3,-8(fp)
 4000a10:	18c00917 	ldw	r3,36(r3)
 4000a14:	1880040e 	bge	r3,r2,4000a28 <vid_scroll_string+0x168>
      x_end = scroll->hend;
 4000a18:	e0bffe17 	ldw	r2,-8(fp)
 4000a1c:	10800217 	ldw	r2,8(r2)
 4000a20:	e0bff415 	stw	r2,-48(fp)
 4000a24:	00000906 	br	4000a4c <vid_scroll_string+0x18c>
    } else {
      x_end = (scroll->hend - scroll->text_scroll_index + scroll->string_points);
 4000a28:	e0bffe17 	ldw	r2,-8(fp)
 4000a2c:	10c00217 	ldw	r3,8(r2)
 4000a30:	e0bffe17 	ldw	r2,-8(fp)
 4000a34:	10800917 	ldw	r2,36(r2)
 4000a38:	1887c83a 	sub	r3,r3,r2
 4000a3c:	e0bffe17 	ldw	r2,-8(fp)
 4000a40:	10800e17 	ldw	r2,56(r2)
 4000a44:	1885883a 	add	r2,r3,r2
 4000a48:	e0bff415 	stw	r2,-48(fp)
    }

    // Write the string segment a column (x) at a time
    for(x_index = x_start; x_index < x_end; x_index++) {
 4000a4c:	e0bff317 	ldw	r2,-52(fp)
 4000a50:	e0bff515 	stw	r2,-44(fp)
 4000a54:	00006206 	br	4000be0 <vid_scroll_string+0x320>
      // Find the x index we're at within the string
      // If first part of string hasnt yet reached left side of scroll window
      if (scroll->text_scroll_index < scroll->window_width) {
 4000a58:	e0bffe17 	ldw	r2,-8(fp)
 4000a5c:	10c00917 	ldw	r3,36(r2)
 4000a60:	e0bffe17 	ldw	r2,-8(fp)
 4000a64:	10800b17 	ldw	r2,44(r2)
 4000a68:	1880050e 	bge	r3,r2,4000a80 <vid_scroll_string+0x1c0>
        string_x_index = (x_index - x_start);
 4000a6c:	e0fff517 	ldw	r3,-44(fp)
 4000a70:	e0bff317 	ldw	r2,-52(fp)
 4000a74:	1885c83a 	sub	r2,r3,r2
 4000a78:	e0bff615 	stw	r2,-40(fp)
 4000a7c:	00000a06 	br	4000aa8 <vid_scroll_string+0x1e8>
      } else {
        string_x_index = scroll->text_scroll_index - scroll->window_width + x_index - x_start;
 4000a80:	e0bffe17 	ldw	r2,-8(fp)
 4000a84:	10c00917 	ldw	r3,36(r2)
 4000a88:	e0bffe17 	ldw	r2,-8(fp)
 4000a8c:	10800b17 	ldw	r2,44(r2)
 4000a90:	1887c83a 	sub	r3,r3,r2
 4000a94:	e0bff517 	ldw	r2,-44(fp)
 4000a98:	1887883a 	add	r3,r3,r2
 4000a9c:	e0bff317 	ldw	r2,-52(fp)
 4000aa0:	1885c83a 	sub	r2,r3,r2
 4000aa4:	e0bff615 	stw	r2,-40(fp)
      }
      //Find the character we're supposed to be writing
      string_char_index = (string_x_index / 8);
 4000aa8:	e0bff617 	ldw	r2,-40(fp)
 4000aac:	1000010e 	bge	r2,zero,4000ab4 <vid_scroll_string+0x1f4>
 4000ab0:	108001c4 	addi	r2,r2,7
 4000ab4:	1005d0fa 	srai	r2,r2,3
 4000ab8:	e0bff915 	stw	r2,-28(fp)
      character = scroll->string[string_char_index];
 4000abc:	e0bffe17 	ldw	r2,-8(fp)
 4000ac0:	10c00517 	ldw	r3,20(r2)
 4000ac4:	e0bff917 	ldw	r2,-28(fp)
 4000ac8:	1885883a 	add	r2,r3,r2
 4000acc:	10800003 	ldbu	r2,0(r2)
 4000ad0:	e0bffa05 	stb	r2,-24(fp)
      char_column = (string_x_index % 8);
 4000ad4:	e0fff617 	ldw	r3,-40(fp)
 4000ad8:	00a00034 	movhi	r2,32768
 4000adc:	108001c4 	addi	r2,r2,7
 4000ae0:	1884703a 	and	r2,r3,r2
 4000ae4:	1000040e 	bge	r2,zero,4000af8 <vid_scroll_string+0x238>
 4000ae8:	10bfffc4 	addi	r2,r2,-1
 4000aec:	00fffe04 	movi	r3,-8
 4000af0:	10c4b03a 	or	r2,r2,r3
 4000af4:	10800044 	addi	r2,r2,1
 4000af8:	e0bffb15 	stw	r2,-20(fp)
      column_mask = (((unsigned int)0x80) >> char_column);
 4000afc:	00c02004 	movi	r3,128
 4000b00:	e0bffb17 	ldw	r2,-20(fp)
 4000b04:	1884d83a 	srl	r2,r3,r2
 4000b08:	e0bffc05 	stb	r2,-16(fp)
      font_char_ptr = (scroll->font + ((character - 0x20) * FONT_10PT_ROW));
 4000b0c:	e0bffe17 	ldw	r2,-8(fp)
 4000b10:	14000617 	ldw	r16,24(r2)
 4000b14:	e0bffa07 	ldb	r2,-24(fp)
 4000b18:	1009883a 	mov	r4,r2
 4000b1c:	014002c4 	movi	r5,11
 4000b20:	4009dd80 	call	4009dd8 <__mulsi3>
 4000b24:	10bfa804 	addi	r2,r2,-352
 4000b28:	8085883a 	add	r2,r16,r2
 4000b2c:	e0bffd15 	stw	r2,-12(fp)
      //We have all the data now, so let's write a column
      for(char_row = 0; char_row < 11; char_row++) {
 4000b30:	e03ff715 	stw	zero,-36(fp)
 4000b34:	00002406 	br	4000bc8 <vid_scroll_string+0x308>
        // If the font table says this pixel is on, then set it to the foreground color
        if (*(font_char_ptr + char_row) & column_mask) {
 4000b38:	e0bff717 	ldw	r2,-36(fp)
 4000b3c:	e0fffd17 	ldw	r3,-12(fp)
 4000b40:	1885883a 	add	r2,r3,r2
 4000b44:	10c00003 	ldbu	r3,0(r2)
 4000b48:	e0bffc03 	ldbu	r2,-16(fp)
 4000b4c:	1884703a 	and	r2,r3,r2
 4000b50:	10803fcc 	andi	r2,r2,255
 4000b54:	1080201c 	xori	r2,r2,128
 4000b58:	10bfe004 	addi	r2,r2,-128
 4000b5c:	10000c26 	beq	r2,zero,4000b90 <vid_scroll_string+0x2d0>
          vid_set_pixel(x_index, scroll->vbegin + char_row, scroll->f_color, display); 
 4000b60:	e0bffe17 	ldw	r2,-8(fp)
 4000b64:	10c00117 	ldw	r3,4(r2)
 4000b68:	e0bff717 	ldw	r2,-36(fp)
 4000b6c:	1887883a 	add	r3,r3,r2
 4000b70:	e0bffe17 	ldw	r2,-8(fp)
 4000b74:	10800317 	ldw	r2,12(r2)
 4000b78:	e13ff517 	ldw	r4,-44(fp)
 4000b7c:	180b883a 	mov	r5,r3
 4000b80:	100d883a 	mov	r6,r2
 4000b84:	e1ffff17 	ldw	r7,-4(fp)
 4000b88:	40010bc0 	call	40010bc <vid_set_pixel>
 4000b8c:	00000b06 	br	4000bbc <vid_scroll_string+0x2fc>
        // Otherwise, set it to the background color.
        } else {
          vid_set_pixel(x_index, scroll->vbegin + char_row, scroll->b_color, display); //background color
 4000b90:	e0bffe17 	ldw	r2,-8(fp)
 4000b94:	10c00117 	ldw	r3,4(r2)
 4000b98:	e0bff717 	ldw	r2,-36(fp)
 4000b9c:	1887883a 	add	r3,r3,r2
 4000ba0:	e0bffe17 	ldw	r2,-8(fp)
 4000ba4:	10800417 	ldw	r2,16(r2)
 4000ba8:	e13ff517 	ldw	r4,-44(fp)
 4000bac:	180b883a 	mov	r5,r3
 4000bb0:	100d883a 	mov	r6,r2
 4000bb4:	e1ffff17 	ldw	r7,-4(fp)
 4000bb8:	40010bc0 	call	40010bc <vid_set_pixel>
      character = scroll->string[string_char_index];
      char_column = (string_x_index % 8);
      column_mask = (((unsigned int)0x80) >> char_column);
      font_char_ptr = (scroll->font + ((character - 0x20) * FONT_10PT_ROW));
      //We have all the data now, so let's write a column
      for(char_row = 0; char_row < 11; char_row++) {
 4000bbc:	e0bff717 	ldw	r2,-36(fp)
 4000bc0:	10800044 	addi	r2,r2,1
 4000bc4:	e0bff715 	stw	r2,-36(fp)
 4000bc8:	e0bff717 	ldw	r2,-36(fp)
 4000bcc:	108002d0 	cmplti	r2,r2,11
 4000bd0:	103fd91e 	bne	r2,zero,4000b38 <__reset+0xfafffb38>
    } else {
      x_end = (scroll->hend - scroll->text_scroll_index + scroll->string_points);
    }

    // Write the string segment a column (x) at a time
    for(x_index = x_start; x_index < x_end; x_index++) {
 4000bd4:	e0bff517 	ldw	r2,-44(fp)
 4000bd8:	10800044 	addi	r2,r2,1
 4000bdc:	e0bff515 	stw	r2,-44(fp)
 4000be0:	e0fff517 	ldw	r3,-44(fp)
 4000be4:	e0bff417 	ldw	r2,-48(fp)
 4000be8:	18bf9b16 	blt	r3,r2,4000a58 <__reset+0xfafffa58>
          vid_set_pixel(x_index, scroll->vbegin + char_row, scroll->b_color, display); //background color
        }
      }
    }
    // Erase the leftover column (x) of the last string we wrote.
    vid_draw_line(x_end, scroll->vbegin, x_end, scroll->vbegin + 10, 1, scroll->b_color, display);
 4000bec:	e0bffe17 	ldw	r2,-8(fp)
 4000bf0:	10c00117 	ldw	r3,4(r2)
 4000bf4:	e0bffe17 	ldw	r2,-8(fp)
 4000bf8:	10800117 	ldw	r2,4(r2)
 4000bfc:	10800284 	addi	r2,r2,10
 4000c00:	e13ffe17 	ldw	r4,-8(fp)
 4000c04:	21000417 	ldw	r4,16(r4)
 4000c08:	01400044 	movi	r5,1
 4000c0c:	d9400015 	stw	r5,0(sp)
 4000c10:	d9000115 	stw	r4,4(sp)
 4000c14:	e13fff17 	ldw	r4,-4(fp)
 4000c18:	d9000215 	stw	r4,8(sp)
 4000c1c:	e13ff417 	ldw	r4,-48(fp)
 4000c20:	180b883a 	mov	r5,r3
 4000c24:	e1bff417 	ldw	r6,-48(fp)
 4000c28:	100f883a 	mov	r7,r2
 4000c2c:	40006600 	call	4000660 <vid_draw_line>
    // Log what time we moved the scroll.
  }
  return(0);
 4000c30:	0005883a 	mov	r2,zero
}
 4000c34:	e037883a 	mov	sp,fp
 4000c38:	dfc00317 	ldw	ra,12(sp)
 4000c3c:	df000217 	ldw	fp,8(sp)
 4000c40:	dc400117 	ldw	r17,4(sp)
 4000c44:	dc000017 	ldw	r16,0(sp)
 4000c48:	dec00404 	addi	sp,sp,16
 4000c4c:	f800283a 	ret

04000c50 <vid_move_block>:
*           the backfill_color parameter.
*
******************************************************************/

int vid_move_block(int xbegin, int ybegin, int xend, int yend, int x_distance, int y_distance, int backfill_color, alt_video_display* display)
{
 4000c50:	defff504 	addi	sp,sp,-44
 4000c54:	dfc00a15 	stw	ra,40(sp)
 4000c58:	df000915 	stw	fp,36(sp)
 4000c5c:	df000904 	addi	fp,sp,36
 4000c60:	e13ffc15 	stw	r4,-16(fp)
 4000c64:	e17ffd15 	stw	r5,-12(fp)
 4000c68:	e1bffe15 	stw	r6,-8(fp)
 4000c6c:	e1ffff15 	stw	r7,-4(fp)
  int read_x, read_y, write_x, write_y;
  short temp_pixel;
  
  if(x_distance <= 0 && y_distance <= 0) {  
 4000c70:	e0800217 	ldw	r2,8(fp)
 4000c74:	00803716 	blt	zero,r2,4000d54 <vid_move_block+0x104>
 4000c78:	e0800317 	ldw	r2,12(fp)
 4000c7c:	00803516 	blt	zero,r2,4000d54 <vid_move_block+0x104>
    //Move by rows because they are contiguous in memory (could help speed if in SDRAM)
    for (read_y = ybegin; read_y < yend; read_y++) {
 4000c80:	e0bffd17 	ldw	r2,-12(fp)
 4000c84:	e0bff815 	stw	r2,-32(fp)
 4000c88:	00002f06 	br	4000d48 <vid_move_block+0xf8>
      write_y = read_y + y_distance;
 4000c8c:	e0fff817 	ldw	r3,-32(fp)
 4000c90:	e0800317 	ldw	r2,12(fp)
 4000c94:	1885883a 	add	r2,r3,r2
 4000c98:	e0bff915 	stw	r2,-28(fp)
      for(read_x = xbegin; read_x < xend; read_x++) {
 4000c9c:	e0bffc17 	ldw	r2,-16(fp)
 4000ca0:	e0bff715 	stw	r2,-36(fp)
 4000ca4:	00002206 	br	4000d30 <vid_move_block+0xe0>
        write_x = read_x + x_distance;
 4000ca8:	e0fff717 	ldw	r3,-36(fp)
 4000cac:	e0800217 	ldw	r2,8(fp)
 4000cb0:	1885883a 	add	r2,r3,r2
 4000cb4:	e0bffa15 	stw	r2,-24(fp)
        temp_pixel = vid_get_pixel(read_x, read_y, display);
 4000cb8:	e13ff717 	ldw	r4,-36(fp)
 4000cbc:	e17ff817 	ldw	r5,-32(fp)
 4000cc0:	e1800517 	ldw	r6,20(fp)
 4000cc4:	40012480 	call	4001248 <vid_get_pixel>
 4000cc8:	e0bffb0d 	sth	r2,-20(fp)
        vid_set_pixel(write_x, write_y, temp_pixel, display);
 4000ccc:	e0bffb0f 	ldh	r2,-20(fp)
 4000cd0:	e13ffa17 	ldw	r4,-24(fp)
 4000cd4:	e17ff917 	ldw	r5,-28(fp)
 4000cd8:	100d883a 	mov	r6,r2
 4000cdc:	e1c00517 	ldw	r7,20(fp)
 4000ce0:	40010bc0 	call	40010bc <vid_set_pixel>
        if(read_x >= xend + x_distance || read_y >= yend + y_distance) 
 4000ce4:	e0fffe17 	ldw	r3,-8(fp)
 4000ce8:	e0800217 	ldw	r2,8(fp)
 4000cec:	1885883a 	add	r2,r3,r2
 4000cf0:	e0fff717 	ldw	r3,-36(fp)
 4000cf4:	1880050e 	bge	r3,r2,4000d0c <vid_move_block+0xbc>
 4000cf8:	e0ffff17 	ldw	r3,-4(fp)
 4000cfc:	e0800317 	ldw	r2,12(fp)
 4000d00:	1885883a 	add	r2,r3,r2
 4000d04:	e0fff817 	ldw	r3,-32(fp)
 4000d08:	18800616 	blt	r3,r2,4000d24 <vid_move_block+0xd4>
        {
	        vid_set_pixel(read_x, read_y, backfill_color, display);
 4000d0c:	e0800417 	ldw	r2,16(fp)
 4000d10:	e13ff717 	ldw	r4,-36(fp)
 4000d14:	e17ff817 	ldw	r5,-32(fp)
 4000d18:	100d883a 	mov	r6,r2
 4000d1c:	e1c00517 	ldw	r7,20(fp)
 4000d20:	40010bc0 	call	40010bc <vid_set_pixel>
  
  if(x_distance <= 0 && y_distance <= 0) {  
    //Move by rows because they are contiguous in memory (could help speed if in SDRAM)
    for (read_y = ybegin; read_y < yend; read_y++) {
      write_y = read_y + y_distance;
      for(read_x = xbegin; read_x < xend; read_x++) {
 4000d24:	e0bff717 	ldw	r2,-36(fp)
 4000d28:	10800044 	addi	r2,r2,1
 4000d2c:	e0bff715 	stw	r2,-36(fp)
 4000d30:	e0fff717 	ldw	r3,-36(fp)
 4000d34:	e0bffe17 	ldw	r2,-8(fp)
 4000d38:	18bfdb16 	blt	r3,r2,4000ca8 <__reset+0xfafffca8>
  int read_x, read_y, write_x, write_y;
  short temp_pixel;
  
  if(x_distance <= 0 && y_distance <= 0) {  
    //Move by rows because they are contiguous in memory (could help speed if in SDRAM)
    for (read_y = ybegin; read_y < yend; read_y++) {
 4000d3c:	e0bff817 	ldw	r2,-32(fp)
 4000d40:	10800044 	addi	r2,r2,1
 4000d44:	e0bff815 	stw	r2,-32(fp)
 4000d48:	e0fff817 	ldw	r3,-32(fp)
 4000d4c:	e0bfff17 	ldw	r2,-4(fp)
 4000d50:	18bfce16 	blt	r3,r2,4000c8c <__reset+0xfafffc8c>
	        vid_set_pixel(read_x, read_y, backfill_color, display);
        }
      }
    }
  }
  return (0);
 4000d54:	0005883a 	mov	r2,zero
}
 4000d58:	e037883a 	mov	sp,fp
 4000d5c:	dfc00117 	ldw	ra,4(sp)
 4000d60:	df000017 	ldw	fp,0(sp)
 4000d64:	dec00204 	addi	sp,sp,8
 4000d68:	f800283a 	ret

04000d6c <vid_print_string>:
*           using the specified font and color.
*           Calls vid_print_char
*
******************************************************************/
int vid_print_string(int horiz_offset, int vert_offset, int color, char *font, alt_video_display* display, char string[])
{
 4000d6c:	defff604 	addi	sp,sp,-40
 4000d70:	dfc00915 	stw	ra,36(sp)
 4000d74:	df000815 	stw	fp,32(sp)
 4000d78:	df000804 	addi	fp,sp,32
 4000d7c:	e13ffc15 	stw	r4,-16(fp)
 4000d80:	e17ffd15 	stw	r5,-12(fp)
 4000d84:	e1bffe15 	stw	r6,-8(fp)
 4000d88:	e1ffff15 	stw	r7,-4(fp)
  int i = 0;
 4000d8c:	e03ffa15 	stw	zero,-24(fp)
  int original_horiz_offset;

  original_horiz_offset = horiz_offset;
 4000d90:	e0bffc17 	ldw	r2,-16(fp)
 4000d94:	e0bffb15 	stw	r2,-20(fp)

  // Print until we hit the '\0' char.
  while (string[i]) {
 4000d98:	00002806 	br	4000e3c <vid_print_string+0xd0>
    //Handle newline char here.
    if (string[i] == '\n') {
 4000d9c:	e0bffa17 	ldw	r2,-24(fp)
 4000da0:	e0c00317 	ldw	r3,12(fp)
 4000da4:	1885883a 	add	r2,r3,r2
 4000da8:	10800003 	ldbu	r2,0(r2)
 4000dac:	10803fcc 	andi	r2,r2,255
 4000db0:	1080201c 	xori	r2,r2,128
 4000db4:	10bfe004 	addi	r2,r2,-128
 4000db8:	10800298 	cmpnei	r2,r2,10
 4000dbc:	1000091e 	bne	r2,zero,4000de4 <vid_print_string+0x78>
      horiz_offset = original_horiz_offset;
 4000dc0:	e0bffb17 	ldw	r2,-20(fp)
 4000dc4:	e0bffc15 	stw	r2,-16(fp)
      vert_offset += 12;
 4000dc8:	e0bffd17 	ldw	r2,-12(fp)
 4000dcc:	10800304 	addi	r2,r2,12
 4000dd0:	e0bffd15 	stw	r2,-12(fp)
      i++;
 4000dd4:	e0bffa17 	ldw	r2,-24(fp)
 4000dd8:	10800044 	addi	r2,r2,1
 4000ddc:	e0bffa15 	stw	r2,-24(fp)
      continue;
 4000de0:	00001606 	br	4000e3c <vid_print_string+0xd0>
    }
    // Lay down that character and increment our offsets.
    vid_print_char (horiz_offset, vert_offset, color, string[i], font, display);
 4000de4:	e0bffa17 	ldw	r2,-24(fp)
 4000de8:	e0c00317 	ldw	r3,12(fp)
 4000dec:	1885883a 	add	r2,r3,r2
 4000df0:	10800003 	ldbu	r2,0(r2)
 4000df4:	10803fcc 	andi	r2,r2,255
 4000df8:	1080201c 	xori	r2,r2,128
 4000dfc:	10bfe004 	addi	r2,r2,-128
 4000e00:	e0ffff17 	ldw	r3,-4(fp)
 4000e04:	d8c00015 	stw	r3,0(sp)
 4000e08:	e0c00217 	ldw	r3,8(fp)
 4000e0c:	d8c00115 	stw	r3,4(sp)
 4000e10:	e13ffc17 	ldw	r4,-16(fp)
 4000e14:	e17ffd17 	ldw	r5,-12(fp)
 4000e18:	e1bffe17 	ldw	r6,-8(fp)
 4000e1c:	100f883a 	mov	r7,r2
 4000e20:	4000fc40 	call	4000fc4 <vid_print_char>
    i++;
 4000e24:	e0bffa17 	ldw	r2,-24(fp)
 4000e28:	10800044 	addi	r2,r2,1
 4000e2c:	e0bffa15 	stw	r2,-24(fp)
    horiz_offset += 8;
 4000e30:	e0bffc17 	ldw	r2,-16(fp)
 4000e34:	10800204 	addi	r2,r2,8
 4000e38:	e0bffc15 	stw	r2,-16(fp)
  int original_horiz_offset;

  original_horiz_offset = horiz_offset;

  // Print until we hit the '\0' char.
  while (string[i]) {
 4000e3c:	e0bffa17 	ldw	r2,-24(fp)
 4000e40:	e0c00317 	ldw	r3,12(fp)
 4000e44:	1885883a 	add	r2,r3,r2
 4000e48:	10800003 	ldbu	r2,0(r2)
 4000e4c:	10803fcc 	andi	r2,r2,255
 4000e50:	1080201c 	xori	r2,r2,128
 4000e54:	10bfe004 	addi	r2,r2,-128
 4000e58:	103fd01e 	bne	r2,zero,4000d9c <__reset+0xfafffd9c>
    // Lay down that character and increment our offsets.
    vid_print_char (horiz_offset, vert_offset, color, string[i], font, display);
    i++;
    horiz_offset += 8;
  }
  return (0);
 4000e5c:	0005883a 	mov	r2,zero
}
 4000e60:	e037883a 	mov	sp,fp
 4000e64:	dfc00117 	ldw	ra,4(sp)
 4000e68:	df000017 	ldw	fp,0(sp)
 4000e6c:	dec00204 	addi	sp,sp,8
 4000e70:	f800283a 	ret

04000e74 <vid_draw_box>:
*  points.  The fill parameter tells the function whether or not
*  to fill in the box.  1 = fill, 0 = do not fill.
*
******************************************************************/
int vid_draw_box (int horiz_start, int vert_start, int horiz_end, int vert_end, int color, int fill, alt_video_display* display)
{
 4000e74:	defff704 	addi	sp,sp,-36
 4000e78:	dfc00815 	stw	ra,32(sp)
 4000e7c:	df000715 	stw	fp,28(sp)
 4000e80:	df000704 	addi	fp,sp,28
 4000e84:	e13ffc15 	stw	r4,-16(fp)
 4000e88:	e17ffd15 	stw	r5,-12(fp)
 4000e8c:	e1bffe15 	stw	r6,-8(fp)
 4000e90:	e1ffff15 	stw	r7,-4(fp)

  // If we want to fill in our box
  if (fill) {
 4000e94:	e0800317 	ldw	r2,12(fp)
 4000e98:	10000a26 	beq	r2,zero,4000ec4 <vid_draw_box+0x50>
     vid_paint_block (horiz_start, vert_start, horiz_end, vert_end, color, display);
 4000e9c:	e0800217 	ldw	r2,8(fp)
 4000ea0:	d8800015 	stw	r2,0(sp)
 4000ea4:	e0800417 	ldw	r2,16(fp)
 4000ea8:	d8800115 	stw	r2,4(sp)
 4000eac:	e13ffc17 	ldw	r4,-16(fp)
 4000eb0:	e17ffd17 	ldw	r5,-12(fp)
 4000eb4:	e1bffe17 	ldw	r6,-8(fp)
 4000eb8:	e1ffff17 	ldw	r7,-4(fp)
 4000ebc:	40012c40 	call	40012c4 <vid_paint_block>
 4000ec0:	00003a06 	br	4000fac <vid_draw_box+0x138>
  // If we're not filling in the box, just draw four lines.
  } else {
    vid_draw_line(horiz_start, vert_start, horiz_start, vert_end-1, 1, color, display);
 4000ec4:	e0bfff17 	ldw	r2,-4(fp)
 4000ec8:	10bfffc4 	addi	r2,r2,-1
 4000ecc:	00c00044 	movi	r3,1
 4000ed0:	d8c00015 	stw	r3,0(sp)
 4000ed4:	e0c00217 	ldw	r3,8(fp)
 4000ed8:	d8c00115 	stw	r3,4(sp)
 4000edc:	e0c00417 	ldw	r3,16(fp)
 4000ee0:	d8c00215 	stw	r3,8(sp)
 4000ee4:	e13ffc17 	ldw	r4,-16(fp)
 4000ee8:	e17ffd17 	ldw	r5,-12(fp)
 4000eec:	e1bffc17 	ldw	r6,-16(fp)
 4000ef0:	100f883a 	mov	r7,r2
 4000ef4:	40006600 	call	4000660 <vid_draw_line>
    vid_draw_line(horiz_end-1, vert_start, horiz_end-1, vert_end-1, 1, color, display);
 4000ef8:	e0bffe17 	ldw	r2,-8(fp)
 4000efc:	113fffc4 	addi	r4,r2,-1
 4000f00:	e0bffe17 	ldw	r2,-8(fp)
 4000f04:	10ffffc4 	addi	r3,r2,-1
 4000f08:	e0bfff17 	ldw	r2,-4(fp)
 4000f0c:	10bfffc4 	addi	r2,r2,-1
 4000f10:	01400044 	movi	r5,1
 4000f14:	d9400015 	stw	r5,0(sp)
 4000f18:	e1400217 	ldw	r5,8(fp)
 4000f1c:	d9400115 	stw	r5,4(sp)
 4000f20:	e1400417 	ldw	r5,16(fp)
 4000f24:	d9400215 	stw	r5,8(sp)
 4000f28:	e17ffd17 	ldw	r5,-12(fp)
 4000f2c:	180d883a 	mov	r6,r3
 4000f30:	100f883a 	mov	r7,r2
 4000f34:	40006600 	call	4000660 <vid_draw_line>
    vid_draw_line(horiz_start, vert_start, horiz_end-1, vert_start, 1, color, display);
 4000f38:	e0bffe17 	ldw	r2,-8(fp)
 4000f3c:	10bfffc4 	addi	r2,r2,-1
 4000f40:	00c00044 	movi	r3,1
 4000f44:	d8c00015 	stw	r3,0(sp)
 4000f48:	e0c00217 	ldw	r3,8(fp)
 4000f4c:	d8c00115 	stw	r3,4(sp)
 4000f50:	e0c00417 	ldw	r3,16(fp)
 4000f54:	d8c00215 	stw	r3,8(sp)
 4000f58:	e13ffc17 	ldw	r4,-16(fp)
 4000f5c:	e17ffd17 	ldw	r5,-12(fp)
 4000f60:	100d883a 	mov	r6,r2
 4000f64:	e1fffd17 	ldw	r7,-12(fp)
 4000f68:	40006600 	call	4000660 <vid_draw_line>
    vid_draw_line(horiz_start, vert_end-1, horiz_end-1, vert_end-1, 1, color, display);
 4000f6c:	e0bfff17 	ldw	r2,-4(fp)
 4000f70:	117fffc4 	addi	r5,r2,-1
 4000f74:	e0bffe17 	ldw	r2,-8(fp)
 4000f78:	10ffffc4 	addi	r3,r2,-1
 4000f7c:	e0bfff17 	ldw	r2,-4(fp)
 4000f80:	10bfffc4 	addi	r2,r2,-1
 4000f84:	01000044 	movi	r4,1
 4000f88:	d9000015 	stw	r4,0(sp)
 4000f8c:	e1000217 	ldw	r4,8(fp)
 4000f90:	d9000115 	stw	r4,4(sp)
 4000f94:	e1000417 	ldw	r4,16(fp)
 4000f98:	d9000215 	stw	r4,8(sp)
 4000f9c:	e13ffc17 	ldw	r4,-16(fp)
 4000fa0:	180d883a 	mov	r6,r3
 4000fa4:	100f883a 	mov	r7,r2
 4000fa8:	40006600 	call	4000660 <vid_draw_line>
  }

  return (0);
 4000fac:	0005883a 	mov	r2,zero
}
 4000fb0:	e037883a 	mov	sp,fp
 4000fb4:	dfc00117 	ldw	ra,4(sp)
 4000fb8:	df000017 	ldw	fp,0(sp)
 4000fbc:	dec00204 	addi	sp,sp,8
 4000fc0:	f800283a 	ret

04000fc4 <vid_print_char>:
*           screen using the specified font and color.
*
******************************************************************/

int vid_print_char (int horiz_offset, int vert_offset, int color, char character, char *font, alt_video_display* display)
{
 4000fc4:	defff704 	addi	sp,sp,-36
 4000fc8:	dfc00815 	stw	ra,32(sp)
 4000fcc:	df000715 	stw	fp,28(sp)
 4000fd0:	df000704 	addi	fp,sp,28
 4000fd4:	e13ffc15 	stw	r4,-16(fp)
 4000fd8:	e17ffd15 	stw	r5,-12(fp)
 4000fdc:	e1bffe15 	stw	r6,-8(fp)
 4000fe0:	3805883a 	mov	r2,r7
 4000fe4:	e0bfff05 	stb	r2,-4(fp)
  int i, j;
  
  char temp_char, char_row;

  // Convert the ASCII value to an array offset
  temp_char = (character - 0x20);
 4000fe8:	e0bfff03 	ldbu	r2,-4(fp)
 4000fec:	10bff804 	addi	r2,r2,-32
 4000ff0:	e0bffb05 	stb	r2,-20(fp)

  //Each character is 8 pixels wide and 11 tall.
  for(i = 0; i < 11; i++) {
 4000ff4:	e03ff915 	stw	zero,-28(fp)
 4000ff8:	00002706 	br	4001098 <vid_print_char+0xd4>
      char_row = *(font + (temp_char * FONT_10PT_ROW) + i);
 4000ffc:	e0bffb07 	ldb	r2,-20(fp)
 4001000:	1009883a 	mov	r4,r2
 4001004:	014002c4 	movi	r5,11
 4001008:	4009dd80 	call	4009dd8 <__mulsi3>
 400100c:	1007883a 	mov	r3,r2
 4001010:	e0bff917 	ldw	r2,-28(fp)
 4001014:	1885883a 	add	r2,r3,r2
 4001018:	e0c00217 	ldw	r3,8(fp)
 400101c:	1885883a 	add	r2,r3,r2
 4001020:	10800003 	ldbu	r2,0(r2)
 4001024:	e0bffb45 	stb	r2,-19(fp)
    for (j = 0; j < 8; j++) {
 4001028:	e03ffa15 	stw	zero,-24(fp)
 400102c:	00001406 	br	4001080 <vid_print_char+0xbc>
      //If the font table says the pixel in this location is on for this character, then set it.
      if (char_row & (((unsigned char)0x80) >> j)) {
 4001030:	e0fffb47 	ldb	r3,-19(fp)
 4001034:	01002004 	movi	r4,128
 4001038:	e0bffa17 	ldw	r2,-24(fp)
 400103c:	2085d83a 	sra	r2,r4,r2
 4001040:	1884703a 	and	r2,r3,r2
 4001044:	10000b26 	beq	r2,zero,4001074 <vid_print_char+0xb0>
        vid_set_pixel((horiz_offset + j), (vert_offset + i), color, display); // plot the pixel
 4001048:	e0fffc17 	ldw	r3,-16(fp)
 400104c:	e0bffa17 	ldw	r2,-24(fp)
 4001050:	1889883a 	add	r4,r3,r2
 4001054:	e0fffd17 	ldw	r3,-12(fp)
 4001058:	e0bff917 	ldw	r2,-28(fp)
 400105c:	1887883a 	add	r3,r3,r2
 4001060:	e0bffe17 	ldw	r2,-8(fp)
 4001064:	180b883a 	mov	r5,r3
 4001068:	100d883a 	mov	r6,r2
 400106c:	e1c00317 	ldw	r7,12(fp)
 4001070:	40010bc0 	call	40010bc <vid_set_pixel>
  temp_char = (character - 0x20);

  //Each character is 8 pixels wide and 11 tall.
  for(i = 0; i < 11; i++) {
      char_row = *(font + (temp_char * FONT_10PT_ROW) + i);
    for (j = 0; j < 8; j++) {
 4001074:	e0bffa17 	ldw	r2,-24(fp)
 4001078:	10800044 	addi	r2,r2,1
 400107c:	e0bffa15 	stw	r2,-24(fp)
 4001080:	e0bffa17 	ldw	r2,-24(fp)
 4001084:	10800210 	cmplti	r2,r2,8
 4001088:	103fe91e 	bne	r2,zero,4001030 <__reset+0xfb000030>

  // Convert the ASCII value to an array offset
  temp_char = (character - 0x20);

  //Each character is 8 pixels wide and 11 tall.
  for(i = 0; i < 11; i++) {
 400108c:	e0bff917 	ldw	r2,-28(fp)
 4001090:	10800044 	addi	r2,r2,1
 4001094:	e0bff915 	stw	r2,-28(fp)
 4001098:	e0bff917 	ldw	r2,-28(fp)
 400109c:	108002d0 	cmplti	r2,r2,11
 40010a0:	103fd61e 	bne	r2,zero,4000ffc <__reset+0xfafffffc>
      if (char_row & (((unsigned char)0x80) >> j)) {
        vid_set_pixel((horiz_offset + j), (vert_offset + i), color, display); // plot the pixel
      }
    }
  }
  return(0);
 40010a4:	0005883a 	mov	r2,zero
}
 40010a8:	e037883a 	mov	sp,fp
 40010ac:	dfc00117 	ldw	ra,4(sp)
 40010b0:	df000017 	ldw	fp,0(sp)
 40010b4:	dec00204 	addi	sp,sp,8
 40010b8:	f800283a 	ret

040010bc <vid_set_pixel>:
*           efficient when painting large areas of the screen.
*
******************************************************************/

void vid_set_pixel(int horiz, int vert, unsigned int color, alt_video_display* display)
{
 40010bc:	defff804 	addi	sp,sp,-32
 40010c0:	dfc00715 	stw	ra,28(sp)
 40010c4:	df000615 	stw	fp,24(sp)
 40010c8:	dc000515 	stw	r16,20(sp)
 40010cc:	df000504 	addi	fp,sp,20
 40010d0:	e13ffc15 	stw	r4,-16(fp)
 40010d4:	e17ffd15 	stw	r5,-12(fp)
 40010d8:	e1bffe15 	stw	r6,-8(fp)
 40010dc:	e1ffff15 	stw	r7,-4(fp)
  int addr;
  
  if( display->color_depth == 32 )
 40010e0:	e0bfff17 	ldw	r2,-4(fp)
 40010e4:	10800417 	ldw	r2,16(r2)
 40010e8:	10800818 	cmpnei	r2,r2,32
 40010ec:	1000141e 	bne	r2,zero,4001140 <vid_set_pixel+0x84>
  {
//  	addr = ( ( (int)(display->buffer_ptrs[display->buffer_being_written]) )+ (vert * (display->width * 4)) + horiz * 4);
    addr = ( ( (int)(VIPFR_GetDrawFrame(display)) )+ (vert * (display->width * 4)) + horiz * 4);
 40010f0:	e13fff17 	ldw	r4,-4(fp)
 40010f4:	4008a380 	call	4008a38 <VIPFR_GetDrawFrame>
 40010f8:	1021883a 	mov	r16,r2
 40010fc:	e0bfff17 	ldw	r2,-4(fp)
 4001100:	10800517 	ldw	r2,20(r2)
 4001104:	1085883a 	add	r2,r2,r2
 4001108:	1085883a 	add	r2,r2,r2
 400110c:	1009883a 	mov	r4,r2
 4001110:	e17ffd17 	ldw	r5,-12(fp)
 4001114:	4009dd80 	call	4009dd8 <__mulsi3>
 4001118:	8087883a 	add	r3,r16,r2
 400111c:	e0bffc17 	ldw	r2,-16(fp)
 4001120:	1085883a 	add	r2,r2,r2
 4001124:	1085883a 	add	r2,r2,r2
 4001128:	1885883a 	add	r2,r3,r2
 400112c:	e0bffb15 	stw	r2,-20(fp)
		IOWR_32DIRECT( addr, 0, (unsigned int)(color));
 4001130:	e0bffb17 	ldw	r2,-20(fp)
 4001134:	e0fffe17 	ldw	r3,-8(fp)
 4001138:	10c00035 	stwio	r3,0(r2)
 400113c:	00003c06 	br	4001230 <vid_set_pixel+0x174>
  }
  
  else if( display->color_depth == 24 )
 4001140:	e0bfff17 	ldw	r2,-4(fp)
 4001144:	10800417 	ldw	r2,16(r2)
 4001148:	10800618 	cmpnei	r2,r2,24
 400114c:	1000231e 	bne	r2,zero,40011dc <vid_set_pixel+0x120>
  {
  	addr = ( ( (int)(VIPFR_GetDrawFrame(display)) )+ (vert * (display->width * 3)) + horiz * 3);
 4001150:	e13fff17 	ldw	r4,-4(fp)
 4001154:	4008a380 	call	4008a38 <VIPFR_GetDrawFrame>
 4001158:	1021883a 	mov	r16,r2
 400115c:	e0bfff17 	ldw	r2,-4(fp)
 4001160:	10c00517 	ldw	r3,20(r2)
 4001164:	1805883a 	mov	r2,r3
 4001168:	1085883a 	add	r2,r2,r2
 400116c:	10c5883a 	add	r2,r2,r3
 4001170:	1009883a 	mov	r4,r2
 4001174:	e17ffd17 	ldw	r5,-12(fp)
 4001178:	4009dd80 	call	4009dd8 <__mulsi3>
 400117c:	8089883a 	add	r4,r16,r2
 4001180:	e0fffc17 	ldw	r3,-16(fp)
 4001184:	1805883a 	mov	r2,r3
 4001188:	1085883a 	add	r2,r2,r2
 400118c:	10c5883a 	add	r2,r2,r3
 4001190:	2085883a 	add	r2,r4,r2
 4001194:	e0bffb15 	stw	r2,-20(fp)
		IOWR_8DIRECT( addr, 0, (unsigned char)(color));
 4001198:	e0bffb17 	ldw	r2,-20(fp)
 400119c:	e0fffe17 	ldw	r3,-8(fp)
 40011a0:	18c03fcc 	andi	r3,r3,255
 40011a4:	10c00025 	stbio	r3,0(r2)
 		IOWR_8DIRECT( addr+1, 0, (unsigned char)(color >> 8));
 40011a8:	e0bffb17 	ldw	r2,-20(fp)
 40011ac:	10800044 	addi	r2,r2,1
 40011b0:	e0fffe17 	ldw	r3,-8(fp)
 40011b4:	1806d23a 	srli	r3,r3,8
 40011b8:	18c03fcc 	andi	r3,r3,255
 40011bc:	10c00025 	stbio	r3,0(r2)
    IOWR_8DIRECT( addr+2, 0, (unsigned char)(color >> 16));
 40011c0:	e0bffb17 	ldw	r2,-20(fp)
 40011c4:	10800084 	addi	r2,r2,2
 40011c8:	e0fffe17 	ldw	r3,-8(fp)
 40011cc:	1806d43a 	srli	r3,r3,16
 40011d0:	18c03fcc 	andi	r3,r3,255
 40011d4:	10c00025 	stbio	r3,0(r2)
 40011d8:	00001506 	br	4001230 <vid_set_pixel+0x174>
  }
  
  else if( display->color_depth == 16 )
 40011dc:	e0bfff17 	ldw	r2,-4(fp)
 40011e0:	10800417 	ldw	r2,16(r2)
 40011e4:	10800418 	cmpnei	r2,r2,16
 40011e8:	1000111e 	bne	r2,zero,4001230 <vid_set_pixel+0x174>
  {
  	addr = ( ( (int)(VIPFR_GetDrawFrame(display)) )+ (vert * (display->width * 2)) + horiz * 2);
 40011ec:	e13fff17 	ldw	r4,-4(fp)
 40011f0:	4008a380 	call	4008a38 <VIPFR_GetDrawFrame>
 40011f4:	1021883a 	mov	r16,r2
 40011f8:	e0bfff17 	ldw	r2,-4(fp)
 40011fc:	10800517 	ldw	r2,20(r2)
 4001200:	1085883a 	add	r2,r2,r2
 4001204:	1009883a 	mov	r4,r2
 4001208:	e17ffd17 	ldw	r5,-12(fp)
 400120c:	4009dd80 	call	4009dd8 <__mulsi3>
 4001210:	8087883a 	add	r3,r16,r2
 4001214:	e0bffc17 	ldw	r2,-16(fp)
 4001218:	1085883a 	add	r2,r2,r2
 400121c:	1885883a 	add	r2,r3,r2
 4001220:	e0bffb15 	stw	r2,-20(fp)
  	IOWR_16DIRECT( addr, 0, (int)(color));
 4001224:	e0bffb17 	ldw	r2,-20(fp)
 4001228:	e0fffe17 	ldw	r3,-8(fp)
 400122c:	10c0002d 	sthio	r3,0(r2)
	}


}
 4001230:	e037883a 	mov	sp,fp
 4001234:	dfc00217 	ldw	ra,8(sp)
 4001238:	df000117 	ldw	fp,4(sp)
 400123c:	dc000017 	ldw	r16,0(sp)
 4001240:	dec00304 	addi	sp,sp,12
 4001244:	f800283a 	ret

04001248 <vid_get_pixel>:
*  Purpose: Reads the color of the pixel at the given coordinates
*
******************************************************************/

short vid_get_pixel(int horiz, int vert, alt_video_display* display)
{
 4001248:	defff904 	addi	sp,sp,-28
 400124c:	dfc00615 	stw	ra,24(sp)
 4001250:	df000515 	stw	fp,20(sp)
 4001254:	dc000415 	stw	r16,16(sp)
 4001258:	df000404 	addi	fp,sp,16
 400125c:	e13ffd15 	stw	r4,-12(fp)
 4001260:	e17ffe15 	stw	r5,-8(fp)
 4001264:	e1bfff15 	stw	r6,-4(fp)
  int addr;
  
  addr = ( ( (int)(VIPFR_GetDrawFrame(display)) )+ (vert * (display->width * 2)) + horiz * 2);
 4001268:	e13fff17 	ldw	r4,-4(fp)
 400126c:	4008a380 	call	4008a38 <VIPFR_GetDrawFrame>
 4001270:	1021883a 	mov	r16,r2
 4001274:	e0bfff17 	ldw	r2,-4(fp)
 4001278:	10800517 	ldw	r2,20(r2)
 400127c:	1085883a 	add	r2,r2,r2
 4001280:	1009883a 	mov	r4,r2
 4001284:	e17ffe17 	ldw	r5,-8(fp)
 4001288:	4009dd80 	call	4009dd8 <__mulsi3>
 400128c:	8087883a 	add	r3,r16,r2
 4001290:	e0bffd17 	ldw	r2,-12(fp)
 4001294:	1085883a 	add	r2,r2,r2
 4001298:	1885883a 	add	r2,r3,r2
 400129c:	e0bffc15 	stw	r2,-16(fp)
  return(IORD_16DIRECT(addr, 0));
 40012a0:	e0bffc17 	ldw	r2,-16(fp)
 40012a4:	1080002b 	ldhuio	r2,0(r2)
 40012a8:	10bfffcc 	andi	r2,r2,65535

}
 40012ac:	e037883a 	mov	sp,fp
 40012b0:	dfc00217 	ldw	ra,8(sp)
 40012b4:	df000117 	ldw	fp,4(sp)
 40012b8:	dc000017 	ldw	r16,0(sp)
 40012bc:	dec00304 	addi	sp,sp,12
 40012c0:	f800283a 	ret

040012c4 <vid_paint_block>:
*           The color parameter must contain two pixel's worth
*           (32 bits).
*
******************************************************************/
void vid_paint_block (int Hstart,int Vstart, int Hend, int Vend, int color, alt_video_display* display)
{
 40012c4:	defff304 	addi	sp,sp,-52
 40012c8:	dfc00c15 	stw	ra,48(sp)
 40012cc:	df000b15 	stw	fp,44(sp)
 40012d0:	dc400a15 	stw	r17,40(sp)
 40012d4:	dc000915 	stw	r16,36(sp)
 40012d8:	df000904 	addi	fp,sp,36
 40012dc:	e13ffc15 	stw	r4,-16(fp)
 40012e0:	e17ffd15 	stw	r5,-12(fp)
 40012e4:	e1bffe15 	stw	r6,-8(fp)
 40012e8:	e1ffff15 	stw	r7,-4(fp)
  int i;
  unsigned int addr; // richard add unsigned
  int bytes_per_line, bytes_per_pixel;
  char* line;
  
  bytes_per_pixel = (display->color_depth / 8);
 40012ec:	e0800517 	ldw	r2,20(fp)
 40012f0:	10800417 	ldw	r2,16(r2)
 40012f4:	1000010e 	bge	r2,zero,40012fc <vid_paint_block+0x38>
 40012f8:	108001c4 	addi	r2,r2,7
 40012fc:	1005d0fa 	srai	r2,r2,3
 4001300:	e0bff915 	stw	r2,-28(fp)
  bytes_per_line = ((Hend - Hstart) * bytes_per_pixel);
 4001304:	e0fffe17 	ldw	r3,-8(fp)
 4001308:	e0bffc17 	ldw	r2,-16(fp)
 400130c:	1885c83a 	sub	r2,r3,r2
 4001310:	1009883a 	mov	r4,r2
 4001314:	e17ff917 	ldw	r5,-28(fp)
 4001318:	4009dd80 	call	4009dd8 <__mulsi3>
 400131c:	e0bffa15 	stw	r2,-24(fp)

  line = malloc(bytes_per_line + 12);
 4001320:	e0bffa17 	ldw	r2,-24(fp)
 4001324:	10800304 	addi	r2,r2,12
 4001328:	1009883a 	mov	r4,r2
 400132c:	400a44c0 	call	400a44c <malloc>
 4001330:	e0bffb15 	stw	r2,-20(fp)

	if(display->color_depth == 16)
 4001334:	e0800517 	ldw	r2,20(fp)
 4001338:	10800417 	ldw	r2,16(r2)
 400133c:	10800418 	cmpnei	r2,r2,16
 4001340:	1000151e 	bne	r2,zero,4001398 <vid_paint_block+0xd4>
	{
    for (i = 0; i < bytes_per_line; i+=2) 
 4001344:	e03ff715 	stw	zero,-36(fp)
 4001348:	00000f06 	br	4001388 <vid_paint_block+0xc4>
    {
      *(line + i) = (unsigned char)color;
 400134c:	e0bff717 	ldw	r2,-36(fp)
 4001350:	e0fffb17 	ldw	r3,-20(fp)
 4001354:	1885883a 	add	r2,r3,r2
 4001358:	e0c00417 	ldw	r3,16(fp)
 400135c:	10c00005 	stb	r3,0(r2)
      *(line + i + 1) = (unsigned char)(color >> 8);
 4001360:	e0bff717 	ldw	r2,-36(fp)
 4001364:	10800044 	addi	r2,r2,1
 4001368:	e0fffb17 	ldw	r3,-20(fp)
 400136c:	1885883a 	add	r2,r3,r2
 4001370:	e0c00417 	ldw	r3,16(fp)
 4001374:	1807d23a 	srai	r3,r3,8
 4001378:	10c00005 	stb	r3,0(r2)

  line = malloc(bytes_per_line + 12);

	if(display->color_depth == 16)
	{
    for (i = 0; i < bytes_per_line; i+=2) 
 400137c:	e0bff717 	ldw	r2,-36(fp)
 4001380:	10800084 	addi	r2,r2,2
 4001384:	e0bff715 	stw	r2,-36(fp)
 4001388:	e0fff717 	ldw	r3,-36(fp)
 400138c:	e0bffa17 	ldw	r2,-24(fp)
 4001390:	18bfee16 	blt	r3,r2,400134c <__reset+0xfb00034c>
 4001394:	00003106 	br	400145c <vid_paint_block+0x198>
    {
      *(line + i) = (unsigned char)color;
      *(line + i + 1) = (unsigned char)(color >> 8);
    }
  }
  else if(display->color_depth == 24)
 4001398:	e0800517 	ldw	r2,20(fp)
 400139c:	10800417 	ldw	r2,16(r2)
 40013a0:	10800618 	cmpnei	r2,r2,24
 40013a4:	10001c1e 	bne	r2,zero,4001418 <vid_paint_block+0x154>
  { 
    for (i = 0; i < bytes_per_line; i+=3) 
 40013a8:	e03ff715 	stw	zero,-36(fp)
 40013ac:	00001606 	br	4001408 <vid_paint_block+0x144>
    {
      *(line + i) = (unsigned char)color;
 40013b0:	e0bff717 	ldw	r2,-36(fp)
 40013b4:	e0fffb17 	ldw	r3,-20(fp)
 40013b8:	1885883a 	add	r2,r3,r2
 40013bc:	e0c00417 	ldw	r3,16(fp)
 40013c0:	10c00005 	stb	r3,0(r2)
      *(line + i + 1) = (unsigned char)(color >> 8);
 40013c4:	e0bff717 	ldw	r2,-36(fp)
 40013c8:	10800044 	addi	r2,r2,1
 40013cc:	e0fffb17 	ldw	r3,-20(fp)
 40013d0:	1885883a 	add	r2,r3,r2
 40013d4:	e0c00417 	ldw	r3,16(fp)
 40013d8:	1807d23a 	srai	r3,r3,8
 40013dc:	10c00005 	stb	r3,0(r2)
      *(line + i + 2) = (unsigned char)(color >> 16);
 40013e0:	e0bff717 	ldw	r2,-36(fp)
 40013e4:	10800084 	addi	r2,r2,2
 40013e8:	e0fffb17 	ldw	r3,-20(fp)
 40013ec:	1885883a 	add	r2,r3,r2
 40013f0:	e0c00417 	ldw	r3,16(fp)
 40013f4:	1807d43a 	srai	r3,r3,16
 40013f8:	10c00005 	stb	r3,0(r2)
      *(line + i + 1) = (unsigned char)(color >> 8);
    }
  }
  else if(display->color_depth == 24)
  { 
    for (i = 0; i < bytes_per_line; i+=3) 
 40013fc:	e0bff717 	ldw	r2,-36(fp)
 4001400:	108000c4 	addi	r2,r2,3
 4001404:	e0bff715 	stw	r2,-36(fp)
 4001408:	e0fff717 	ldw	r3,-36(fp)
 400140c:	e0bffa17 	ldw	r2,-24(fp)
 4001410:	18bfe716 	blt	r3,r2,40013b0 <__reset+0xfb0003b0>
 4001414:	00001106 	br	400145c <vid_paint_block+0x198>
      *(line + i) = (unsigned char)color;
      *(line + i + 1) = (unsigned char)(color >> 8);
      *(line + i + 2) = (unsigned char)(color >> 16);
    }
  }
  else if(display->color_depth == 32)
 4001418:	e0800517 	ldw	r2,20(fp)
 400141c:	10800417 	ldw	r2,16(r2)
 4001420:	10800818 	cmpnei	r2,r2,32
 4001424:	10000d1e 	bne	r2,zero,400145c <vid_paint_block+0x198>
  { 
    for (i = 0; i < bytes_per_line; i+=4) 
 4001428:	e03ff715 	stw	zero,-36(fp)
 400142c:	00000806 	br	4001450 <vid_paint_block+0x18c>
    {
      // Does the right hand side of this assignment determine the size?
      *(int*)(line + i) = (unsigned int)color;
 4001430:	e0bff717 	ldw	r2,-36(fp)
 4001434:	e0fffb17 	ldw	r3,-20(fp)
 4001438:	1885883a 	add	r2,r3,r2
 400143c:	e0c00417 	ldw	r3,16(fp)
 4001440:	10c00015 	stw	r3,0(r2)
      *(line + i + 2) = (unsigned char)(color >> 16);
    }
  }
  else if(display->color_depth == 32)
  { 
    for (i = 0; i < bytes_per_line; i+=4) 
 4001444:	e0bff717 	ldw	r2,-36(fp)
 4001448:	10800104 	addi	r2,r2,4
 400144c:	e0bff715 	stw	r2,-36(fp)
 4001450:	e0fff717 	ldw	r3,-36(fp)
 4001454:	e0bffa17 	ldw	r2,-24(fp)
 4001458:	18bff516 	blt	r3,r2,4001430 <__reset+0xfb000430>
      *(int*)(line + i) = (unsigned int)color;
    }
  }
  
  /* Initial Address */
  addr = (int)(VIPFR_GetDrawFrame(display)) + ((Vstart * (display->width * bytes_per_pixel)) + (Hstart * bytes_per_pixel));
 400145c:	e1000517 	ldw	r4,20(fp)
 4001460:	4008a380 	call	4008a38 <VIPFR_GetDrawFrame>
 4001464:	1021883a 	mov	r16,r2
 4001468:	e0800517 	ldw	r2,20(fp)
 400146c:	10800517 	ldw	r2,20(r2)
 4001470:	1009883a 	mov	r4,r2
 4001474:	e17ff917 	ldw	r5,-28(fp)
 4001478:	4009dd80 	call	4009dd8 <__mulsi3>
 400147c:	1009883a 	mov	r4,r2
 4001480:	e17ffd17 	ldw	r5,-12(fp)
 4001484:	4009dd80 	call	4009dd8 <__mulsi3>
 4001488:	1023883a 	mov	r17,r2
 400148c:	e13ffc17 	ldw	r4,-16(fp)
 4001490:	e17ff917 	ldw	r5,-28(fp)
 4001494:	4009dd80 	call	4009dd8 <__mulsi3>
 4001498:	8885883a 	add	r2,r17,r2
 400149c:	8085883a 	add	r2,r16,r2
 40014a0:	e0bff815 	stw	r2,-32(fp)
  
  for (i = Vstart; i < Vend; i++)
 40014a4:	e0bffd17 	ldw	r2,-12(fp)
 40014a8:	e0bff715 	stw	r2,-36(fp)
 40014ac:	00001106 	br	40014f4 <vid_paint_block+0x230>
  {
    memcpy( (void*)addr, line, bytes_per_line );
 40014b0:	e0fff817 	ldw	r3,-32(fp)
 40014b4:	e0bffa17 	ldw	r2,-24(fp)
 40014b8:	1809883a 	mov	r4,r3
 40014bc:	e17ffb17 	ldw	r5,-20(fp)
 40014c0:	100d883a 	mov	r6,r2
 40014c4:	400abf80 	call	400abf8 <memcpy>
    addr += (display->width * bytes_per_pixel);
 40014c8:	e0800517 	ldw	r2,20(fp)
 40014cc:	10800517 	ldw	r2,20(r2)
 40014d0:	1009883a 	mov	r4,r2
 40014d4:	e17ff917 	ldw	r5,-28(fp)
 40014d8:	4009dd80 	call	4009dd8 <__mulsi3>
 40014dc:	e0fff817 	ldw	r3,-32(fp)
 40014e0:	1885883a 	add	r2,r3,r2
 40014e4:	e0bff815 	stw	r2,-32(fp)
  }
  
  /* Initial Address */
  addr = (int)(VIPFR_GetDrawFrame(display)) + ((Vstart * (display->width * bytes_per_pixel)) + (Hstart * bytes_per_pixel));
  
  for (i = Vstart; i < Vend; i++)
 40014e8:	e0bff717 	ldw	r2,-36(fp)
 40014ec:	10800044 	addi	r2,r2,1
 40014f0:	e0bff715 	stw	r2,-36(fp)
 40014f4:	e0fff717 	ldw	r3,-36(fp)
 40014f8:	e0bfff17 	ldw	r2,-4(fp)
 40014fc:	18bfec16 	blt	r3,r2,40014b0 <__reset+0xfb0004b0>
  {
    memcpy( (void*)addr, line, bytes_per_line );
    addr += (display->width * bytes_per_pixel);
  }
  free (line);
 4001500:	e13ffb17 	ldw	r4,-20(fp)
 4001504:	400a4600 	call	400a460 <free>
}
 4001508:	e037883a 	mov	sp,fp
 400150c:	dfc00317 	ldw	ra,12(sp)
 4001510:	df000217 	ldw	fp,8(sp)
 4001514:	dc400117 	ldw	r17,4(sp)
 4001518:	dc000017 	ldw	r16,0(sp)
 400151c:	dec00404 	addi	sp,sp,16
 4001520:	f800283a 	ret

04001524 <vid_draw_horiz_line>:
*  Purpose: Draws a horizontal line on the screen quickly.
*           Good for filling stuff.
*
******************************************************************/
void vid_draw_horiz_line (short Hstart, short Hend, int V, int color, alt_video_display* display)
{
 4001524:	defff404 	addi	sp,sp,-48
 4001528:	dfc00b15 	stw	ra,44(sp)
 400152c:	df000a15 	stw	fp,40(sp)
 4001530:	dc000915 	stw	r16,36(sp)
 4001534:	df000904 	addi	fp,sp,36
 4001538:	2007883a 	mov	r3,r4
 400153c:	2805883a 	mov	r2,r5
 4001540:	e1bffe15 	stw	r6,-8(fp)
 4001544:	e1ffff15 	stw	r7,-4(fp)
 4001548:	e0fffc0d 	sth	r3,-16(fp)
 400154c:	e0bffd0d 	sth	r2,-12(fp)

  int i;
  int addr;
  int bytes_per_line;

  char *fast_buffer = malloc(1024 * 3);
 4001550:	01030004 	movi	r4,3072
 4001554:	400a44c0 	call	400a44c <malloc>
 4001558:	e0bff815 	stw	r2,-32(fp)

  if( Hstart > Hend )
 400155c:	e0bffc0f 	ldh	r2,-16(fp)
 4001560:	e0fffd0f 	ldh	r3,-12(fp)
 4001564:	1880060e 	bge	r3,r2,4001580 <vid_draw_horiz_line+0x5c>
  {
    short temp = Hstart;
 4001568:	e0bffc0b 	ldhu	r2,-16(fp)
 400156c:	e0bff90d 	sth	r2,-28(fp)
    Hstart = Hend;
 4001570:	e0bffd0b 	ldhu	r2,-12(fp)
 4001574:	e0bffc0d 	sth	r2,-16(fp)
    Hend = temp;
 4001578:	e0bff90b 	ldhu	r2,-28(fp)
 400157c:	e0bffd0d 	sth	r2,-12(fp)
  }
  
  if(display->color_depth == 32)
 4001580:	e0800317 	ldw	r2,12(fp)
 4001584:	10800417 	ldw	r2,16(r2)
 4001588:	10800818 	cmpnei	r2,r2,32
 400158c:	10002a1e 	bne	r2,zero,4001638 <vid_draw_horiz_line+0x114>
  { 
    addr = (int)(VIPFR_GetDrawFrame(display)) + ((V * (display->width * 4)) + (Hstart * 4));
 4001590:	e1000317 	ldw	r4,12(fp)
 4001594:	4008a380 	call	4008a38 <VIPFR_GetDrawFrame>
 4001598:	1021883a 	mov	r16,r2
 400159c:	e0800317 	ldw	r2,12(fp)
 40015a0:	10800517 	ldw	r2,20(r2)
 40015a4:	1085883a 	add	r2,r2,r2
 40015a8:	1085883a 	add	r2,r2,r2
 40015ac:	1009883a 	mov	r4,r2
 40015b0:	e17ffe17 	ldw	r5,-8(fp)
 40015b4:	4009dd80 	call	4009dd8 <__mulsi3>
 40015b8:	1007883a 	mov	r3,r2
 40015bc:	e0bffc0f 	ldh	r2,-16(fp)
 40015c0:	1085883a 	add	r2,r2,r2
 40015c4:	1085883a 	add	r2,r2,r2
 40015c8:	1885883a 	add	r2,r3,r2
 40015cc:	8085883a 	add	r2,r16,r2
 40015d0:	e0bffa15 	stw	r2,-24(fp)
    bytes_per_line = ((Hend - Hstart) * 4);
 40015d4:	e0fffd0f 	ldh	r3,-12(fp)
 40015d8:	e0bffc0f 	ldh	r2,-16(fp)
 40015dc:	1885c83a 	sub	r2,r3,r2
 40015e0:	1085883a 	add	r2,r2,r2
 40015e4:	1085883a 	add	r2,r2,r2
 40015e8:	e0bffb15 	stw	r2,-20(fp)
    for (i = 0; i < bytes_per_line; i+=4) 
 40015ec:	e03ff715 	stw	zero,-36(fp)
 40015f0:	00000806 	br	4001614 <vid_draw_horiz_line+0xf0>
    {
      // Does the right hand side of this assignment determine the size?
      *(int*)(fast_buffer + i) = (unsigned int)color;
 40015f4:	e0bff717 	ldw	r2,-36(fp)
 40015f8:	e0fff817 	ldw	r3,-32(fp)
 40015fc:	1885883a 	add	r2,r3,r2
 4001600:	e0ffff17 	ldw	r3,-4(fp)
 4001604:	10c00015 	stw	r3,0(r2)
  
  if(display->color_depth == 32)
  { 
    addr = (int)(VIPFR_GetDrawFrame(display)) + ((V * (display->width * 4)) + (Hstart * 4));
    bytes_per_line = ((Hend - Hstart) * 4);
    for (i = 0; i < bytes_per_line; i+=4) 
 4001608:	e0bff717 	ldw	r2,-36(fp)
 400160c:	10800104 	addi	r2,r2,4
 4001610:	e0bff715 	stw	r2,-36(fp)
 4001614:	e0fff717 	ldw	r3,-36(fp)
 4001618:	e0bffb17 	ldw	r2,-20(fp)
 400161c:	18bff516 	blt	r3,r2,40015f4 <__reset+0xfb0005f4>
    {
      // Does the right hand side of this assignment determine the size?
      *(int*)(fast_buffer + i) = (unsigned int)color;
    }
    memcpy( (void*)addr, fast_buffer, bytes_per_line );
 4001620:	e0fffa17 	ldw	r3,-24(fp)
 4001624:	e0bffb17 	ldw	r2,-20(fp)
 4001628:	1809883a 	mov	r4,r3
 400162c:	e17ff817 	ldw	r5,-32(fp)
 4001630:	100d883a 	mov	r6,r2
 4001634:	400abf80 	call	400abf8 <memcpy>
  }
  if(display->color_depth == 24)
 4001638:	e0800317 	ldw	r2,12(fp)
 400163c:	10800417 	ldw	r2,16(r2)
 4001640:	10800618 	cmpnei	r2,r2,24
 4001644:	10003c1e 	bne	r2,zero,4001738 <vid_draw_horiz_line+0x214>
  { 
    addr = (int)(VIPFR_GetDrawFrame(display)) + ((V * (display->width * 3)) + (Hstart * 3));
 4001648:	e1000317 	ldw	r4,12(fp)
 400164c:	4008a380 	call	4008a38 <VIPFR_GetDrawFrame>
 4001650:	1021883a 	mov	r16,r2
 4001654:	e0800317 	ldw	r2,12(fp)
 4001658:	10c00517 	ldw	r3,20(r2)
 400165c:	1805883a 	mov	r2,r3
 4001660:	1085883a 	add	r2,r2,r2
 4001664:	10c5883a 	add	r2,r2,r3
 4001668:	1009883a 	mov	r4,r2
 400166c:	e17ffe17 	ldw	r5,-8(fp)
 4001670:	4009dd80 	call	4009dd8 <__mulsi3>
 4001674:	1009883a 	mov	r4,r2
 4001678:	e0fffc0f 	ldh	r3,-16(fp)
 400167c:	1805883a 	mov	r2,r3
 4001680:	1085883a 	add	r2,r2,r2
 4001684:	10c5883a 	add	r2,r2,r3
 4001688:	2085883a 	add	r2,r4,r2
 400168c:	8085883a 	add	r2,r16,r2
 4001690:	e0bffa15 	stw	r2,-24(fp)
    bytes_per_line = ((Hend - Hstart) * 3);
 4001694:	e0fffd0f 	ldh	r3,-12(fp)
 4001698:	e0bffc0f 	ldh	r2,-16(fp)
 400169c:	1887c83a 	sub	r3,r3,r2
 40016a0:	1805883a 	mov	r2,r3
 40016a4:	1085883a 	add	r2,r2,r2
 40016a8:	10c5883a 	add	r2,r2,r3
 40016ac:	e0bffb15 	stw	r2,-20(fp)
    for (i = 0; i < bytes_per_line; i+=3) 
 40016b0:	e03ff715 	stw	zero,-36(fp)
 40016b4:	00001606 	br	4001710 <vid_draw_horiz_line+0x1ec>
    {
      *(fast_buffer + i) = (unsigned char)color;
 40016b8:	e0bff717 	ldw	r2,-36(fp)
 40016bc:	e0fff817 	ldw	r3,-32(fp)
 40016c0:	1885883a 	add	r2,r3,r2
 40016c4:	e0ffff17 	ldw	r3,-4(fp)
 40016c8:	10c00005 	stb	r3,0(r2)
      *(fast_buffer + i + 1) = (unsigned char)(color >> 8);
 40016cc:	e0bff717 	ldw	r2,-36(fp)
 40016d0:	10800044 	addi	r2,r2,1
 40016d4:	e0fff817 	ldw	r3,-32(fp)
 40016d8:	1885883a 	add	r2,r3,r2
 40016dc:	e0ffff17 	ldw	r3,-4(fp)
 40016e0:	1807d23a 	srai	r3,r3,8
 40016e4:	10c00005 	stb	r3,0(r2)
      *(fast_buffer + i + 2) = (unsigned char)(color >> 16);
 40016e8:	e0bff717 	ldw	r2,-36(fp)
 40016ec:	10800084 	addi	r2,r2,2
 40016f0:	e0fff817 	ldw	r3,-32(fp)
 40016f4:	1885883a 	add	r2,r3,r2
 40016f8:	e0ffff17 	ldw	r3,-4(fp)
 40016fc:	1807d43a 	srai	r3,r3,16
 4001700:	10c00005 	stb	r3,0(r2)
  }
  if(display->color_depth == 24)
  { 
    addr = (int)(VIPFR_GetDrawFrame(display)) + ((V * (display->width * 3)) + (Hstart * 3));
    bytes_per_line = ((Hend - Hstart) * 3);
    for (i = 0; i < bytes_per_line; i+=3) 
 4001704:	e0bff717 	ldw	r2,-36(fp)
 4001708:	108000c4 	addi	r2,r2,3
 400170c:	e0bff715 	stw	r2,-36(fp)
 4001710:	e0fff717 	ldw	r3,-36(fp)
 4001714:	e0bffb17 	ldw	r2,-20(fp)
 4001718:	18bfe716 	blt	r3,r2,40016b8 <__reset+0xfb0006b8>
    {
      *(fast_buffer + i) = (unsigned char)color;
      *(fast_buffer + i + 1) = (unsigned char)(color >> 8);
      *(fast_buffer + i + 2) = (unsigned char)(color >> 16);
    }
    memcpy( (void*)addr, fast_buffer, bytes_per_line );
 400171c:	e0fffa17 	ldw	r3,-24(fp)
 4001720:	e0bffb17 	ldw	r2,-20(fp)
 4001724:	1809883a 	mov	r4,r3
 4001728:	e17ff817 	ldw	r5,-32(fp)
 400172c:	100d883a 	mov	r6,r2
 4001730:	400abf80 	call	400abf8 <memcpy>
 4001734:	00003206 	br	4001800 <vid_draw_horiz_line+0x2dc>
  }
  else if(display->color_depth == 16)
 4001738:	e0800317 	ldw	r2,12(fp)
 400173c:	10800417 	ldw	r2,16(r2)
 4001740:	10800418 	cmpnei	r2,r2,16
 4001744:	10002e1e 	bne	r2,zero,4001800 <vid_draw_horiz_line+0x2dc>
  {
    addr = (int)(VIPFR_GetDrawFrame(display)) + ((V * (display->width * 2)) + (Hstart * 2));
 4001748:	e1000317 	ldw	r4,12(fp)
 400174c:	4008a380 	call	4008a38 <VIPFR_GetDrawFrame>
 4001750:	1021883a 	mov	r16,r2
 4001754:	e0800317 	ldw	r2,12(fp)
 4001758:	10800517 	ldw	r2,20(r2)
 400175c:	1085883a 	add	r2,r2,r2
 4001760:	1009883a 	mov	r4,r2
 4001764:	e17ffe17 	ldw	r5,-8(fp)
 4001768:	4009dd80 	call	4009dd8 <__mulsi3>
 400176c:	1007883a 	mov	r3,r2
 4001770:	e0bffc0f 	ldh	r2,-16(fp)
 4001774:	1085883a 	add	r2,r2,r2
 4001778:	1885883a 	add	r2,r3,r2
 400177c:	8085883a 	add	r2,r16,r2
 4001780:	e0bffa15 	stw	r2,-24(fp)
    bytes_per_line = ((Hend - Hstart) * 2);
 4001784:	e0fffd0f 	ldh	r3,-12(fp)
 4001788:	e0bffc0f 	ldh	r2,-16(fp)
 400178c:	1885c83a 	sub	r2,r3,r2
 4001790:	1085883a 	add	r2,r2,r2
 4001794:	e0bffb15 	stw	r2,-20(fp)
    for (i = 0; i < bytes_per_line; i+=2) 
 4001798:	e03ff715 	stw	zero,-36(fp)
 400179c:	00000f06 	br	40017dc <vid_draw_horiz_line+0x2b8>
    {
      *(fast_buffer + i) = (unsigned char)color;
 40017a0:	e0bff717 	ldw	r2,-36(fp)
 40017a4:	e0fff817 	ldw	r3,-32(fp)
 40017a8:	1885883a 	add	r2,r3,r2
 40017ac:	e0ffff17 	ldw	r3,-4(fp)
 40017b0:	10c00005 	stb	r3,0(r2)
      *(fast_buffer + i + 1) = (unsigned char)(color >> 8);
 40017b4:	e0bff717 	ldw	r2,-36(fp)
 40017b8:	10800044 	addi	r2,r2,1
 40017bc:	e0fff817 	ldw	r3,-32(fp)
 40017c0:	1885883a 	add	r2,r3,r2
 40017c4:	e0ffff17 	ldw	r3,-4(fp)
 40017c8:	1807d23a 	srai	r3,r3,8
 40017cc:	10c00005 	stb	r3,0(r2)
  }
  else if(display->color_depth == 16)
  {
    addr = (int)(VIPFR_GetDrawFrame(display)) + ((V * (display->width * 2)) + (Hstart * 2));
    bytes_per_line = ((Hend - Hstart) * 2);
    for (i = 0; i < bytes_per_line; i+=2) 
 40017d0:	e0bff717 	ldw	r2,-36(fp)
 40017d4:	10800084 	addi	r2,r2,2
 40017d8:	e0bff715 	stw	r2,-36(fp)
 40017dc:	e0fff717 	ldw	r3,-36(fp)
 40017e0:	e0bffb17 	ldw	r2,-20(fp)
 40017e4:	18bfee16 	blt	r3,r2,40017a0 <__reset+0xfb0007a0>
    {
      *(fast_buffer + i) = (unsigned char)color;
      *(fast_buffer + i + 1) = (unsigned char)(color >> 8);
    }
    memcpy( (void*)addr, fast_buffer, bytes_per_line );
 40017e8:	e0fffa17 	ldw	r3,-24(fp)
 40017ec:	e0bffb17 	ldw	r2,-20(fp)
 40017f0:	1809883a 	mov	r4,r3
 40017f4:	e17ff817 	ldw	r5,-32(fp)
 40017f8:	100d883a 	mov	r6,r2
 40017fc:	400abf80 	call	400abf8 <memcpy>
  }
  free(fast_buffer);
 4001800:	e13ff817 	ldw	r4,-32(fp)
 4001804:	400a4600 	call	400a460 <free>
}
 4001808:	e037883a 	mov	sp,fp
 400180c:	dfc00217 	ldw	ra,8(sp)
 4001810:	df000117 	ldw	fp,4(sp)
 4001814:	dc000017 	ldw	r16,0(sp)
 4001818:	dec00304 	addi	sp,sp,12
 400181c:	f800283a 	ret

04001820 <vid_merge_colors>:
*  Purpose: Takes 5-bit color values for each red, green, and blue
*           and merges them into one 16-bit color value.
*
******************************************************************/
int vid_merge_colors(int red, int green, int blue)
{
 4001820:	defffc04 	addi	sp,sp,-16
 4001824:	df000315 	stw	fp,12(sp)
 4001828:	df000304 	addi	fp,sp,12
 400182c:	e13ffd15 	stw	r4,-12(fp)
 4001830:	e17ffe15 	stw	r5,-8(fp)
 4001834:	e1bfff15 	stw	r6,-4(fp)
  // Green actually has 6-bits, but we'll make it's LSB 1 to be consistent.
  return ((blue) | (((green << 1) | 0x1) << 5) | (red << 11));
 4001838:	e0bffe17 	ldw	r2,-8(fp)
 400183c:	1085883a 	add	r2,r2,r2
 4001840:	10800054 	ori	r2,r2,1
 4001844:	1006917a 	slli	r3,r2,5
 4001848:	e0bfff17 	ldw	r2,-4(fp)
 400184c:	1886b03a 	or	r3,r3,r2
 4001850:	e0bffd17 	ldw	r2,-12(fp)
 4001854:	100492fa 	slli	r2,r2,11
 4001858:	1884b03a 	or	r2,r3,r2
}
 400185c:	e037883a 	mov	sp,fp
 4001860:	df000017 	ldw	fp,0(sp)
 4001864:	dec00104 	addi	sp,sp,4
 4001868:	f800283a 	ret

0400186c <vid_color_convert24_16>:
*           sample and converts it to 16-bits, displayable by the 
*           VGA controller in 16-bit mode
*
******************************************************************/
unsigned short vid_color_convert24_16(char* color24)
{
 400186c:	defffc04 	addi	sp,sp,-16
 4001870:	df000315 	stw	fp,12(sp)
 4001874:	df000304 	addi	fp,sp,12
 4001878:	e13fff15 	stw	r4,-4(fp)
	unsigned char red, green, blue;
	unsigned short output;
	
	red = *(color24 + 0) & 0xF8;
 400187c:	e0bfff17 	ldw	r2,-4(fp)
 4001880:	10800003 	ldbu	r2,0(r2)
 4001884:	1007883a 	mov	r3,r2
 4001888:	00bffe04 	movi	r2,-8
 400188c:	1884703a 	and	r2,r3,r2
 4001890:	e0bffd05 	stb	r2,-12(fp)
	green = *(color24 + 1) & 0xFC; // green is actualy 6 bits
 4001894:	e0bfff17 	ldw	r2,-4(fp)
 4001898:	10800044 	addi	r2,r2,1
 400189c:	10800003 	ldbu	r2,0(r2)
 40018a0:	1007883a 	mov	r3,r2
 40018a4:	00bfff04 	movi	r2,-4
 40018a8:	1884703a 	and	r2,r3,r2
 40018ac:	e0bffd45 	stb	r2,-11(fp)
	blue = *(color24 + 2) & 0xF8;
 40018b0:	e0bfff17 	ldw	r2,-4(fp)
 40018b4:	10800084 	addi	r2,r2,2
 40018b8:	10800003 	ldbu	r2,0(r2)
 40018bc:	1007883a 	mov	r3,r2
 40018c0:	00bffe04 	movi	r2,-8
 40018c4:	1884703a 	and	r2,r3,r2
 40018c8:	e0bffd85 	stb	r2,-10(fp)

	output = ((blue >> 3) | (green << 3) | (red << 8));  
 40018cc:	e0bffd83 	ldbu	r2,-10(fp)
 40018d0:	1004d0fa 	srli	r2,r2,3
 40018d4:	10c03fcc 	andi	r3,r2,255
 40018d8:	e0bffd43 	ldbu	r2,-11(fp)
 40018dc:	100490fa 	slli	r2,r2,3
 40018e0:	1884b03a 	or	r2,r3,r2
 40018e4:	1007883a 	mov	r3,r2
 40018e8:	e0bffd03 	ldbu	r2,-12(fp)
 40018ec:	1004923a 	slli	r2,r2,8
 40018f0:	1884b03a 	or	r2,r3,r2
 40018f4:	e0bffe0d 	sth	r2,-8(fp)
	return output;
 40018f8:	e0bffe0b 	ldhu	r2,-8(fp)
}
 40018fc:	e037883a 	mov	sp,fp
 4001900:	df000017 	ldw	fp,0(sp)
 4001904:	dec00104 	addi	sp,sp,4
 4001908:	f800283a 	ret

0400190c <vid_color_convert16_24>:
*           sample and converts it to 16-bits, displayable by the 
*           VGA controller in 16-bit mode
*
******************************************************************/
int vid_color_convert16_24(unsigned short color16, char* color24)
{
 400190c:	defffd04 	addi	sp,sp,-12
 4001910:	df000215 	stw	fp,8(sp)
 4001914:	df000204 	addi	fp,sp,8
 4001918:	2005883a 	mov	r2,r4
 400191c:	e17fff15 	stw	r5,-4(fp)
 4001920:	e0bffe0d 	sth	r2,-8(fp)
	*(color24 + 0) = color16 >> 11;
 4001924:	e0bffe0b 	ldhu	r2,-8(fp)
 4001928:	1004d2fa 	srli	r2,r2,11
 400192c:	1007883a 	mov	r3,r2
 4001930:	e0bfff17 	ldw	r2,-4(fp)
 4001934:	10c00005 	stb	r3,0(r2)
	*(color24 + 1) = ((color16 & 0x3E) >> 5);
 4001938:	e0bfff17 	ldw	r2,-4(fp)
 400193c:	10800044 	addi	r2,r2,1
 4001940:	e0fffe0b 	ldhu	r3,-8(fp)
 4001944:	18c00f8c 	andi	r3,r3,62
 4001948:	1807d17a 	srai	r3,r3,5
 400194c:	10c00005 	stb	r3,0(r2)
	*(color24 + 2) = (color16 & 0x1F);
 4001950:	e0bfff17 	ldw	r2,-4(fp)
 4001954:	10800084 	addi	r2,r2,2
 4001958:	e0fffe0b 	ldhu	r3,-8(fp)
 400195c:	18c007cc 	andi	r3,r3,31
 4001960:	10c00005 	stb	r3,0(r2)
	
	return (0);
 4001964:	0005883a 	mov	r2,zero
}
 4001968:	e037883a 	mov	sp,fp
 400196c:	df000017 	ldw	fp,0(sp)
 4001970:	dec00104 	addi	sp,sp,4
 4001974:	f800283a 	ret

04001978 <vid_copy_line_to_frame_buffer>:
*           the specified coordinates.  Converts color depth if
*           necessary.
*
******************************************************************/
int vid_copy_line_to_frame_buffer( int x, int y, char* buffer, int num_pixels, int source_color_depth, alt_video_display* display )
{
 4001978:	defff304 	addi	sp,sp,-52
 400197c:	dfc00c15 	stw	ra,48(sp)
 4001980:	df000b15 	stw	fp,44(sp)
 4001984:	dc400a15 	stw	r17,40(sp)
 4001988:	dc000915 	stw	r16,36(sp)
 400198c:	df000904 	addi	fp,sp,36
 4001990:	e13ffc15 	stw	r4,-16(fp)
 4001994:	e17ffd15 	stw	r5,-12(fp)
 4001998:	e1bffe15 	stw	r6,-8(fp)
 400199c:	e1ffff15 	stw	r7,-4(fp)
  unsigned short* temp_line;
  int index_24 = 0;
 40019a0:	e03ff715 	stw	zero,-36(fp)
  int index_16 = 0;
 40019a4:	e03ff815 	stw	zero,-32(fp)
  unsigned int dest_addr;
  unsigned int bytes_in_line;
  
  dest_addr = (int)(VIPFR_GetDrawFrame(display)) + 
 40019a8:	e1000517 	ldw	r4,20(fp)
 40019ac:	4008a380 	call	4008a38 <VIPFR_GetDrawFrame>
 40019b0:	1021883a 	mov	r16,r2
    ((y * (display->width * (display->bytes_per_pixel))) + 
 40019b4:	e0800517 	ldw	r2,20(fp)
 40019b8:	10c00517 	ldw	r3,20(r2)
 40019bc:	e0800517 	ldw	r2,20(fp)
 40019c0:	10800717 	ldw	r2,28(r2)
 40019c4:	1809883a 	mov	r4,r3
 40019c8:	100b883a 	mov	r5,r2
 40019cc:	4009dd80 	call	4009dd8 <__mulsi3>
 40019d0:	1009883a 	mov	r4,r2
 40019d4:	e17ffd17 	ldw	r5,-12(fp)
 40019d8:	4009dd80 	call	4009dd8 <__mulsi3>
 40019dc:	1023883a 	mov	r17,r2
    (x * (display->bytes_per_pixel)));
 40019e0:	e0800517 	ldw	r2,20(fp)
 40019e4:	10800717 	ldw	r2,28(r2)
 40019e8:	1009883a 	mov	r4,r2
 40019ec:	e17ffc17 	ldw	r5,-16(fp)
 40019f0:	4009dd80 	call	4009dd8 <__mulsi3>
  int index_16 = 0;
  unsigned int dest_addr;
  unsigned int bytes_in_line;
  
  dest_addr = (int)(VIPFR_GetDrawFrame(display)) + 
    ((y * (display->width * (display->bytes_per_pixel))) + 
 40019f4:	8885883a 	add	r2,r17,r2
  int index_24 = 0;
  int index_16 = 0;
  unsigned int dest_addr;
  unsigned int bytes_in_line;
  
  dest_addr = (int)(VIPFR_GetDrawFrame(display)) + 
 40019f8:	8085883a 	add	r2,r16,r2
 40019fc:	e0bff915 	stw	r2,-28(fp)
    ((y * (display->width * (display->bytes_per_pixel))) + 
    (x * (display->bytes_per_pixel)));
  
  bytes_in_line = num_pixels * display->bytes_per_pixel;
 4001a00:	e0800517 	ldw	r2,20(fp)
 4001a04:	10800717 	ldw	r2,28(r2)
 4001a08:	1009883a 	mov	r4,r2
 4001a0c:	e17fff17 	ldw	r5,-4(fp)
 4001a10:	4009dd80 	call	4009dd8 <__mulsi3>
 4001a14:	e0bffa15 	stw	r2,-24(fp)
  
  if(source_color_depth == 24)
 4001a18:	e0800417 	ldw	r2,16(fp)
 4001a1c:	10800618 	cmpnei	r2,r2,24
 4001a20:	1000491e 	bne	r2,zero,4001b48 <vid_copy_line_to_frame_buffer+0x1d0>
  {
    if(display->color_depth == 16)
 4001a24:	e0800517 	ldw	r2,20(fp)
 4001a28:	10800417 	ldw	r2,16(r2)
 4001a2c:	10800418 	cmpnei	r2,r2,16
 4001a30:	10003b1e 	bne	r2,zero,4001b20 <vid_copy_line_to_frame_buffer+0x1a8>
    {
      temp_line = malloc(bytes_in_line);
 4001a34:	e13ffa17 	ldw	r4,-24(fp)
 4001a38:	400a44c0 	call	400a44c <malloc>
 4001a3c:	e0bffb15 	stw	r2,-20(fp)
      while(index_24 < bytes_in_line)
 4001a40:	00002c06 	br	4001af4 <vid_copy_line_to_frame_buffer+0x17c>
      {
        *(temp_line + index_16) = vid_color_convert24_16_m((char*)(buffer + index_24));
 4001a44:	e0bff817 	ldw	r2,-32(fp)
 4001a48:	1085883a 	add	r2,r2,r2
 4001a4c:	e0fffb17 	ldw	r3,-20(fp)
 4001a50:	1885883a 	add	r2,r3,r2
 4001a54:	e0fff717 	ldw	r3,-36(fp)
 4001a58:	18c00084 	addi	r3,r3,2
 4001a5c:	e13ffe17 	ldw	r4,-8(fp)
 4001a60:	20c7883a 	add	r3,r4,r3
 4001a64:	18c00003 	ldbu	r3,0(r3)
 4001a68:	18c03fcc 	andi	r3,r3,255
 4001a6c:	18c0201c 	xori	r3,r3,128
 4001a70:	18ffe004 	addi	r3,r3,-128
 4001a74:	18c03e0c 	andi	r3,r3,248
 4001a78:	1807d0fa 	srai	r3,r3,3
 4001a7c:	1809883a 	mov	r4,r3
 4001a80:	e0fff717 	ldw	r3,-36(fp)
 4001a84:	18c00044 	addi	r3,r3,1
 4001a88:	e17ffe17 	ldw	r5,-8(fp)
 4001a8c:	28c7883a 	add	r3,r5,r3
 4001a90:	18c00003 	ldbu	r3,0(r3)
 4001a94:	18c03fcc 	andi	r3,r3,255
 4001a98:	18c0201c 	xori	r3,r3,128
 4001a9c:	18ffe004 	addi	r3,r3,-128
 4001aa0:	18c03f0c 	andi	r3,r3,252
 4001aa4:	180690fa 	slli	r3,r3,3
 4001aa8:	20c6b03a 	or	r3,r4,r3
 4001aac:	1809883a 	mov	r4,r3
 4001ab0:	e0fff717 	ldw	r3,-36(fp)
 4001ab4:	e17ffe17 	ldw	r5,-8(fp)
 4001ab8:	28c7883a 	add	r3,r5,r3
 4001abc:	18c00003 	ldbu	r3,0(r3)
 4001ac0:	18c03fcc 	andi	r3,r3,255
 4001ac4:	18c0201c 	xori	r3,r3,128
 4001ac8:	18ffe004 	addi	r3,r3,-128
 4001acc:	18c03e0c 	andi	r3,r3,248
 4001ad0:	1806923a 	slli	r3,r3,8
 4001ad4:	20c6b03a 	or	r3,r4,r3
 4001ad8:	10c0000d 	sth	r3,0(r2)
        index_16++;
 4001adc:	e0bff817 	ldw	r2,-32(fp)
 4001ae0:	10800044 	addi	r2,r2,1
 4001ae4:	e0bff815 	stw	r2,-32(fp)
        index_24+=3;
 4001ae8:	e0bff717 	ldw	r2,-36(fp)
 4001aec:	108000c4 	addi	r2,r2,3
 4001af0:	e0bff715 	stw	r2,-36(fp)
  if(source_color_depth == 24)
  {
    if(display->color_depth == 16)
    {
      temp_line = malloc(bytes_in_line);
      while(index_24 < bytes_in_line)
 4001af4:	e0fff717 	ldw	r3,-36(fp)
 4001af8:	e0bffa17 	ldw	r2,-24(fp)
 4001afc:	18bfd136 	bltu	r3,r2,4001a44 <__reset+0xfb000a44>
      {
        *(temp_line + index_16) = vid_color_convert24_16_m((char*)(buffer + index_24));
        index_16++;
        index_24+=3;
      }
      memcpy( (void*)dest_addr, (void*)temp_line, bytes_in_line );
 4001b00:	e0bff917 	ldw	r2,-28(fp)
 4001b04:	1009883a 	mov	r4,r2
 4001b08:	e17ffb17 	ldw	r5,-20(fp)
 4001b0c:	e1bffa17 	ldw	r6,-24(fp)
 4001b10:	400abf80 	call	400abf8 <memcpy>
      free(temp_line);
 4001b14:	e13ffb17 	ldw	r4,-20(fp)
 4001b18:	400a4600 	call	400a460 <free>
 4001b1c:	00003e06 	br	4001c18 <vid_copy_line_to_frame_buffer+0x2a0>
    }
    else if(display->color_depth == 24)
 4001b20:	e0800517 	ldw	r2,20(fp)
 4001b24:	10800417 	ldw	r2,16(r2)
 4001b28:	10800618 	cmpnei	r2,r2,24
 4001b2c:	10003a1e 	bne	r2,zero,4001c18 <vid_copy_line_to_frame_buffer+0x2a0>
    {
      memcpy( (void*)dest_addr, (void*)buffer, bytes_in_line );
 4001b30:	e0bff917 	ldw	r2,-28(fp)
 4001b34:	1009883a 	mov	r4,r2
 4001b38:	e17ffe17 	ldw	r5,-8(fp)
 4001b3c:	e1bffa17 	ldw	r6,-24(fp)
 4001b40:	400abf80 	call	400abf8 <memcpy>
 4001b44:	00003406 	br	4001c18 <vid_copy_line_to_frame_buffer+0x2a0>
    }
  }
  else if(source_color_depth == 16)
 4001b48:	e0800417 	ldw	r2,16(fp)
 4001b4c:	10800418 	cmpnei	r2,r2,16
 4001b50:	1000311e 	bne	r2,zero,4001c18 <vid_copy_line_to_frame_buffer+0x2a0>
  {
    if(display->color_depth == 24)
 4001b54:	e0800517 	ldw	r2,20(fp)
 4001b58:	10800417 	ldw	r2,16(r2)
 4001b5c:	10800618 	cmpnei	r2,r2,24
 4001b60:	1000241e 	bne	r2,zero,4001bf4 <vid_copy_line_to_frame_buffer+0x27c>
    {
      temp_line = malloc(bytes_in_line);
 4001b64:	e13ffa17 	ldw	r4,-24(fp)
 4001b68:	400a44c0 	call	400a44c <malloc>
 4001b6c:	e0bffb15 	stw	r2,-20(fp)
      while(index_16 < num_pixels )
 4001b70:	00001506 	br	4001bc8 <vid_copy_line_to_frame_buffer+0x250>
      {
        vid_color_convert16_24((short)*(buffer + index_16), (char*)(temp_line + index_24));
 4001b74:	e0bff817 	ldw	r2,-32(fp)
 4001b78:	e0fffe17 	ldw	r3,-8(fp)
 4001b7c:	1885883a 	add	r2,r3,r2
 4001b80:	10800003 	ldbu	r2,0(r2)
 4001b84:	10803fcc 	andi	r2,r2,255
 4001b88:	1080201c 	xori	r2,r2,128
 4001b8c:	10bfe004 	addi	r2,r2,-128
 4001b90:	10ffffcc 	andi	r3,r2,65535
 4001b94:	e0bff717 	ldw	r2,-36(fp)
 4001b98:	1085883a 	add	r2,r2,r2
 4001b9c:	e13ffb17 	ldw	r4,-20(fp)
 4001ba0:	2085883a 	add	r2,r4,r2
 4001ba4:	1809883a 	mov	r4,r3
 4001ba8:	100b883a 	mov	r5,r2
 4001bac:	400190c0 	call	400190c <vid_color_convert16_24>
        index_16++;
 4001bb0:	e0bff817 	ldw	r2,-32(fp)
 4001bb4:	10800044 	addi	r2,r2,1
 4001bb8:	e0bff815 	stw	r2,-32(fp)
        index_24+=3;
 4001bbc:	e0bff717 	ldw	r2,-36(fp)
 4001bc0:	108000c4 	addi	r2,r2,3
 4001bc4:	e0bff715 	stw	r2,-36(fp)
  else if(source_color_depth == 16)
  {
    if(display->color_depth == 24)
    {
      temp_line = malloc(bytes_in_line);
      while(index_16 < num_pixels )
 4001bc8:	e0fff817 	ldw	r3,-32(fp)
 4001bcc:	e0bfff17 	ldw	r2,-4(fp)
 4001bd0:	18bfe816 	blt	r3,r2,4001b74 <__reset+0xfb000b74>
      {
        vid_color_convert16_24((short)*(buffer + index_16), (char*)(temp_line + index_24));
        index_16++;
        index_24+=3;
      }
      memcpy( (void*)dest_addr, (void*)temp_line, bytes_in_line );
 4001bd4:	e0bff917 	ldw	r2,-28(fp)
 4001bd8:	1009883a 	mov	r4,r2
 4001bdc:	e17ffb17 	ldw	r5,-20(fp)
 4001be0:	e1bffa17 	ldw	r6,-24(fp)
 4001be4:	400abf80 	call	400abf8 <memcpy>
      free(temp_line);
 4001be8:	e13ffb17 	ldw	r4,-20(fp)
 4001bec:	400a4600 	call	400a460 <free>
 4001bf0:	00000906 	br	4001c18 <vid_copy_line_to_frame_buffer+0x2a0>
      
    }
    else if(display->color_depth == 16)
 4001bf4:	e0800517 	ldw	r2,20(fp)
 4001bf8:	10800417 	ldw	r2,16(r2)
 4001bfc:	10800418 	cmpnei	r2,r2,16
 4001c00:	1000051e 	bne	r2,zero,4001c18 <vid_copy_line_to_frame_buffer+0x2a0>
    {
      memcpy( (void*)dest_addr, (void*)buffer, bytes_in_line );
 4001c04:	e0bff917 	ldw	r2,-28(fp)
 4001c08:	1009883a 	mov	r4,r2
 4001c0c:	e17ffe17 	ldw	r5,-8(fp)
 4001c10:	e1bffa17 	ldw	r6,-24(fp)
 4001c14:	400abf80 	call	400abf8 <memcpy>
    }
  }
  return(0);
 4001c18:	0005883a 	mov	r2,zero
}
 4001c1c:	e037883a 	mov	sp,fp
 4001c20:	dfc00317 	ldw	ra,12(sp)
 4001c24:	df000217 	ldw	fp,8(sp)
 4001c28:	dc400117 	ldw	r17,4(sp)
 4001c2c:	dc000017 	ldw	r16,0(sp)
 4001c30:	dec00404 	addi	sp,sp,16
 4001c34:	f800283a 	ret

04001c38 <vid_draw_sloped_line>:
                           unsigned short horiz_end, 
                           unsigned short vert_end, 
                           unsigned short width, 
                           int color, 
                           alt_video_display* display)
{
 4001c38:	deffef04 	addi	sp,sp,-68
 4001c3c:	dfc01015 	stw	ra,64(sp)
 4001c40:	df000f15 	stw	fp,60(sp)
 4001c44:	df000f04 	addi	fp,sp,60
 4001c48:	2011883a 	mov	r8,r4
 4001c4c:	2809883a 	mov	r4,r5
 4001c50:	3007883a 	mov	r3,r6
 4001c54:	3805883a 	mov	r2,r7
 4001c58:	e1400217 	ldw	r5,8(fp)
 4001c5c:	e23ffb0d 	sth	r8,-20(fp)
 4001c60:	e13ffc0d 	sth	r4,-16(fp)
 4001c64:	e0fffd0d 	sth	r3,-12(fp)
 4001c68:	e0bffe0d 	sth	r2,-8(fp)
 4001c6c:	e17fff0d 	sth	r5,-4(fp)
  // Find the vertical and horizontal distance between the two points
  int horiz_delta = abs(horiz_end-horiz_start);
 4001c70:	e0fffd0b 	ldhu	r3,-12(fp)
 4001c74:	e0bffb0b 	ldhu	r2,-20(fp)
 4001c78:	1885c83a 	sub	r2,r3,r2
 4001c7c:	1000010e 	bge	r2,zero,4001c84 <vid_draw_sloped_line+0x4c>
 4001c80:	0085c83a 	sub	r2,zero,r2
 4001c84:	e0bff115 	stw	r2,-60(fp)
  int vert_delta = abs(vert_end-vert_start);
 4001c88:	e0fffe0b 	ldhu	r3,-8(fp)
 4001c8c:	e0bffc0b 	ldhu	r2,-16(fp)
 4001c90:	1885c83a 	sub	r2,r3,r2
 4001c94:	1000010e 	bge	r2,zero,4001c9c <vid_draw_sloped_line+0x64>
 4001c98:	0085c83a 	sub	r2,zero,r2
 4001c9c:	e0bff215 	stw	r2,-56(fp)

  // Find out what direction we are going
  int horiz_incr, vert_incr;
  if (horiz_start > horiz_end) { horiz_incr=-1; } else { horiz_incr=1; }
 4001ca0:	e0bffb0b 	ldhu	r2,-20(fp)
 4001ca4:	e0fffd0b 	ldhu	r3,-12(fp)
 4001ca8:	1880032e 	bgeu	r3,r2,4001cb8 <vid_draw_sloped_line+0x80>
 4001cac:	00bfffc4 	movi	r2,-1
 4001cb0:	e0bff315 	stw	r2,-52(fp)
 4001cb4:	00000206 	br	4001cc0 <vid_draw_sloped_line+0x88>
 4001cb8:	00800044 	movi	r2,1
 4001cbc:	e0bff315 	stw	r2,-52(fp)
  if (vert_start > vert_end) { vert_incr=-1; } else { vert_incr=1; }
 4001cc0:	e0bffc0b 	ldhu	r2,-16(fp)
 4001cc4:	e0fffe0b 	ldhu	r3,-8(fp)
 4001cc8:	1880032e 	bgeu	r3,r2,4001cd8 <vid_draw_sloped_line+0xa0>
 4001ccc:	00bfffc4 	movi	r2,-1
 4001cd0:	e0bff415 	stw	r2,-48(fp)
 4001cd4:	00000206 	br	4001ce0 <vid_draw_sloped_line+0xa8>
 4001cd8:	00800044 	movi	r2,1
 4001cdc:	e0bff415 	stw	r2,-48(fp)

  // Find out which axis is always incremented when drawing the line
  // If it's the horizontal axis
  if (horiz_delta >= vert_delta) {
 4001ce0:	e0fff117 	ldw	r3,-60(fp)
 4001ce4:	e0bff217 	ldw	r2,-56(fp)
 4001ce8:	18803416 	blt	r3,r2,4001dbc <vid_draw_sloped_line+0x184>
    int dPr   = vert_delta<<1;
 4001cec:	e0bff217 	ldw	r2,-56(fp)
 4001cf0:	1085883a 	add	r2,r2,r2
 4001cf4:	e0bff715 	stw	r2,-36(fp)
    int dPru  = dPr - (horiz_delta<<1);
 4001cf8:	e0bff117 	ldw	r2,-60(fp)
 4001cfc:	1085883a 	add	r2,r2,r2
 4001d00:	e0fff717 	ldw	r3,-36(fp)
 4001d04:	1885c83a 	sub	r2,r3,r2
 4001d08:	e0bff815 	stw	r2,-32(fp)
    int P     = dPr - horiz_delta;
 4001d0c:	e0fff717 	ldw	r3,-36(fp)
 4001d10:	e0bff117 	ldw	r2,-60(fp)
 4001d14:	1885c83a 	sub	r2,r3,r2
 4001d18:	e0bff515 	stw	r2,-44(fp)

    // Process the line, one horizontal point at at time
    for (; horiz_delta >= 0; horiz_delta--) {
 4001d1c:	00002406 	br	4001db0 <vid_draw_sloped_line+0x178>
      // plot the pixel
      vid_set_pixel(horiz_start, vert_start, color, display);
 4001d20:	e13ffb0b 	ldhu	r4,-20(fp)
 4001d24:	e0fffc0b 	ldhu	r3,-16(fp)
 4001d28:	e0800317 	ldw	r2,12(fp)
 4001d2c:	180b883a 	mov	r5,r3
 4001d30:	100d883a 	mov	r6,r2
 4001d34:	e1c00417 	ldw	r7,16(fp)
 4001d38:	40010bc0 	call	40010bc <vid_set_pixel>
      // If we're moving both up and right
      if (P > 0) {
 4001d3c:	e0bff517 	ldw	r2,-44(fp)
 4001d40:	00800f0e 	bge	zero,r2,4001d80 <vid_draw_sloped_line+0x148>
        horiz_start+=horiz_incr;
 4001d44:	e0bff317 	ldw	r2,-52(fp)
 4001d48:	1007883a 	mov	r3,r2
 4001d4c:	e0bffb0b 	ldhu	r2,-20(fp)
 4001d50:	1885883a 	add	r2,r3,r2
 4001d54:	e0bffb0d 	sth	r2,-20(fp)
        vert_start+=vert_incr;
 4001d58:	e0bff417 	ldw	r2,-48(fp)
 4001d5c:	1007883a 	mov	r3,r2
 4001d60:	e0bffc0b 	ldhu	r2,-16(fp)
 4001d64:	1885883a 	add	r2,r3,r2
 4001d68:	e0bffc0d 	sth	r2,-16(fp)
        P+=dPru;
 4001d6c:	e0fff517 	ldw	r3,-44(fp)
 4001d70:	e0bff817 	ldw	r2,-32(fp)
 4001d74:	1885883a 	add	r2,r3,r2
 4001d78:	e0bff515 	stw	r2,-44(fp)
 4001d7c:	00000906 	br	4001da4 <vid_draw_sloped_line+0x16c>
      } else {
        horiz_start+=horiz_incr;
 4001d80:	e0bff317 	ldw	r2,-52(fp)
 4001d84:	1007883a 	mov	r3,r2
 4001d88:	e0bffb0b 	ldhu	r2,-20(fp)
 4001d8c:	1885883a 	add	r2,r3,r2
 4001d90:	e0bffb0d 	sth	r2,-20(fp)
        P+=dPr;
 4001d94:	e0fff517 	ldw	r3,-44(fp)
 4001d98:	e0bff717 	ldw	r2,-36(fp)
 4001d9c:	1885883a 	add	r2,r3,r2
 4001da0:	e0bff515 	stw	r2,-44(fp)
    int dPr   = vert_delta<<1;
    int dPru  = dPr - (horiz_delta<<1);
    int P     = dPr - horiz_delta;

    // Process the line, one horizontal point at at time
    for (; horiz_delta >= 0; horiz_delta--) {
 4001da4:	e0bff117 	ldw	r2,-60(fp)
 4001da8:	10bfffc4 	addi	r2,r2,-1
 4001dac:	e0bff115 	stw	r2,-60(fp)
 4001db0:	e0bff117 	ldw	r2,-60(fp)
 4001db4:	103fda0e 	bge	r2,zero,4001d20 <__reset+0xfb000d20>
 4001db8:	00003306 	br	4001e88 <vid_draw_sloped_line+0x250>
        P+=dPr;
      }
    }
  // If it's the vertical axis
  } else {
    int dPr   = horiz_delta<<1;
 4001dbc:	e0bff117 	ldw	r2,-60(fp)
 4001dc0:	1085883a 	add	r2,r2,r2
 4001dc4:	e0bff915 	stw	r2,-28(fp)
    int dPru  = dPr - (vert_delta<<1);
 4001dc8:	e0bff217 	ldw	r2,-56(fp)
 4001dcc:	1085883a 	add	r2,r2,r2
 4001dd0:	e0fff917 	ldw	r3,-28(fp)
 4001dd4:	1885c83a 	sub	r2,r3,r2
 4001dd8:	e0bffa15 	stw	r2,-24(fp)
    int P     = dPr - vert_delta;
 4001ddc:	e0fff917 	ldw	r3,-28(fp)
 4001de0:	e0bff217 	ldw	r2,-56(fp)
 4001de4:	1885c83a 	sub	r2,r3,r2
 4001de8:	e0bff615 	stw	r2,-40(fp)

    // Process the line, one vertical point at at time
    for (; vert_delta>=0; vert_delta--) {
 4001dec:	00002406 	br	4001e80 <vid_draw_sloped_line+0x248>
      // plot the pixel
      vid_set_pixel(horiz_start, vert_start, color, display);
 4001df0:	e13ffb0b 	ldhu	r4,-20(fp)
 4001df4:	e0fffc0b 	ldhu	r3,-16(fp)
 4001df8:	e0800317 	ldw	r2,12(fp)
 4001dfc:	180b883a 	mov	r5,r3
 4001e00:	100d883a 	mov	r6,r2
 4001e04:	e1c00417 	ldw	r7,16(fp)
 4001e08:	40010bc0 	call	40010bc <vid_set_pixel>
      // If we're moving both up and right
      if (P > 0) {
 4001e0c:	e0bff617 	ldw	r2,-40(fp)
 4001e10:	00800f0e 	bge	zero,r2,4001e50 <vid_draw_sloped_line+0x218>
        horiz_start+=horiz_incr;
 4001e14:	e0bff317 	ldw	r2,-52(fp)
 4001e18:	1007883a 	mov	r3,r2
 4001e1c:	e0bffb0b 	ldhu	r2,-20(fp)
 4001e20:	1885883a 	add	r2,r3,r2
 4001e24:	e0bffb0d 	sth	r2,-20(fp)
        vert_start+=vert_incr;
 4001e28:	e0bff417 	ldw	r2,-48(fp)
 4001e2c:	1007883a 	mov	r3,r2
 4001e30:	e0bffc0b 	ldhu	r2,-16(fp)
 4001e34:	1885883a 	add	r2,r3,r2
 4001e38:	e0bffc0d 	sth	r2,-16(fp)
        P+=dPru;
 4001e3c:	e0fff617 	ldw	r3,-40(fp)
 4001e40:	e0bffa17 	ldw	r2,-24(fp)
 4001e44:	1885883a 	add	r2,r3,r2
 4001e48:	e0bff615 	stw	r2,-40(fp)
 4001e4c:	00000906 	br	4001e74 <vid_draw_sloped_line+0x23c>
      } else {
        vert_start+=vert_incr;
 4001e50:	e0bff417 	ldw	r2,-48(fp)
 4001e54:	1007883a 	mov	r3,r2
 4001e58:	e0bffc0b 	ldhu	r2,-16(fp)
 4001e5c:	1885883a 	add	r2,r3,r2
 4001e60:	e0bffc0d 	sth	r2,-16(fp)
        P+=dPr;
 4001e64:	e0fff617 	ldw	r3,-40(fp)
 4001e68:	e0bff917 	ldw	r2,-28(fp)
 4001e6c:	1885883a 	add	r2,r3,r2
 4001e70:	e0bff615 	stw	r2,-40(fp)
    int dPr   = horiz_delta<<1;
    int dPru  = dPr - (vert_delta<<1);
    int P     = dPr - vert_delta;

    // Process the line, one vertical point at at time
    for (; vert_delta>=0; vert_delta--) {
 4001e74:	e0bff217 	ldw	r2,-56(fp)
 4001e78:	10bfffc4 	addi	r2,r2,-1
 4001e7c:	e0bff215 	stw	r2,-56(fp)
 4001e80:	e0bff217 	ldw	r2,-56(fp)
 4001e84:	103fda0e 	bge	r2,zero,4001df0 <__reset+0xfb000df0>
        vert_start+=vert_incr;
        P+=dPr;
      }
    }
  }
}
 4001e88:	e037883a 	mov	sp,fp
 4001e8c:	dfc00117 	ldw	ra,4(sp)
 4001e90:	df000017 	ldw	fp,0(sp)
 4001e94:	dec00204 	addi	sp,sp,8
 4001e98:	f800283a 	ret

04001e9c <vid_draw_circle>:
*  tells the function whether or not to fill in the box.  1 = fill,
*  0 = do not fill.
*
******************************************************************/
int vid_draw_circle(int Hcenter, int Vcenter, int radius, int color, char fill, alt_video_display* display)
{
 4001e9c:	defff104 	addi	sp,sp,-60
 4001ea0:	dfc00e15 	stw	ra,56(sp)
 4001ea4:	df000d15 	stw	fp,52(sp)
 4001ea8:	df000d04 	addi	fp,sp,52
 4001eac:	e13ffb15 	stw	r4,-20(fp)
 4001eb0:	e17ffc15 	stw	r5,-16(fp)
 4001eb4:	e1bffd15 	stw	r6,-12(fp)
 4001eb8:	e1fffe15 	stw	r7,-8(fp)
 4001ebc:	e0800217 	ldw	r2,8(fp)
 4001ec0:	e0bfff05 	stb	r2,-4(fp)
  int x = 0;
 4001ec4:	e03ff815 	stw	zero,-32(fp)
  int y = radius;
 4001ec8:	e0bffd17 	ldw	r2,-12(fp)
 4001ecc:	e0bff915 	stw	r2,-28(fp)
  int p = (5 - radius*4)/4;
 4001ed0:	e13ffd17 	ldw	r4,-12(fp)
 4001ed4:	017fff04 	movi	r5,-4
 4001ed8:	4009dd80 	call	4009dd8 <__mulsi3>
 4001edc:	10800144 	addi	r2,r2,5
 4001ee0:	1000010e 	bge	r2,zero,4001ee8 <vid_draw_circle+0x4c>
 4001ee4:	108000c4 	addi	r2,r2,3
 4001ee8:	1005d0ba 	srai	r2,r2,2
 4001eec:	e0bffa15 	stw	r2,-24(fp)

  // Start the circle with the top, bottom, left, and right pixels.
  vid_round_corner_points(Hcenter, Vcenter, x, y, 0, 0, color, fill, display);
 4001ef0:	e0bfff07 	ldb	r2,-4(fp)
 4001ef4:	d8000015 	stw	zero,0(sp)
 4001ef8:	d8000115 	stw	zero,4(sp)
 4001efc:	e0fffe17 	ldw	r3,-8(fp)
 4001f00:	d8c00215 	stw	r3,8(sp)
 4001f04:	d8800315 	stw	r2,12(sp)
 4001f08:	e0800317 	ldw	r2,12(fp)
 4001f0c:	d8800415 	stw	r2,16(sp)
 4001f10:	e13ffb17 	ldw	r4,-20(fp)
 4001f14:	e17ffc17 	ldw	r5,-16(fp)
 4001f18:	e1bff817 	ldw	r6,-32(fp)
 4001f1c:	e1fff917 	ldw	r7,-28(fp)
 4001f20:	40023980 	call	4002398 <vid_round_corner_points>

  // Now start moving out from those points until the lines meet
  while (x < y) {
 4001f24:	00002406 	br	4001fb8 <vid_draw_circle+0x11c>
    x++;
 4001f28:	e0bff817 	ldw	r2,-32(fp)
 4001f2c:	10800044 	addi	r2,r2,1
 4001f30:	e0bff815 	stw	r2,-32(fp)
    if (p < 0) {
 4001f34:	e0bffa17 	ldw	r2,-24(fp)
 4001f38:	1000070e 	bge	r2,zero,4001f58 <vid_draw_circle+0xbc>
      p += 2*x+1;
 4001f3c:	e0bff817 	ldw	r2,-32(fp)
 4001f40:	1085883a 	add	r2,r2,r2
 4001f44:	10800044 	addi	r2,r2,1
 4001f48:	e0fffa17 	ldw	r3,-24(fp)
 4001f4c:	1885883a 	add	r2,r3,r2
 4001f50:	e0bffa15 	stw	r2,-24(fp)
 4001f54:	00000b06 	br	4001f84 <vid_draw_circle+0xe8>
    } else {
      y--;
 4001f58:	e0bff917 	ldw	r2,-28(fp)
 4001f5c:	10bfffc4 	addi	r2,r2,-1
 4001f60:	e0bff915 	stw	r2,-28(fp)
      p += 2*(x-y)+1;
 4001f64:	e0fff817 	ldw	r3,-32(fp)
 4001f68:	e0bff917 	ldw	r2,-28(fp)
 4001f6c:	1885c83a 	sub	r2,r3,r2
 4001f70:	1085883a 	add	r2,r2,r2
 4001f74:	10800044 	addi	r2,r2,1
 4001f78:	e0fffa17 	ldw	r3,-24(fp)
 4001f7c:	1885883a 	add	r2,r3,r2
 4001f80:	e0bffa15 	stw	r2,-24(fp)
    }
    vid_round_corner_points(Hcenter, Vcenter, x, y, 0, 0, color, fill, display);
 4001f84:	e0bfff07 	ldb	r2,-4(fp)
 4001f88:	d8000015 	stw	zero,0(sp)
 4001f8c:	d8000115 	stw	zero,4(sp)
 4001f90:	e0fffe17 	ldw	r3,-8(fp)
 4001f94:	d8c00215 	stw	r3,8(sp)
 4001f98:	d8800315 	stw	r2,12(sp)
 4001f9c:	e0800317 	ldw	r2,12(fp)
 4001fa0:	d8800415 	stw	r2,16(sp)
 4001fa4:	e13ffb17 	ldw	r4,-20(fp)
 4001fa8:	e17ffc17 	ldw	r5,-16(fp)
 4001fac:	e1bff817 	ldw	r6,-32(fp)
 4001fb0:	e1fff917 	ldw	r7,-28(fp)
 4001fb4:	40023980 	call	4002398 <vid_round_corner_points>

  // Start the circle with the top, bottom, left, and right pixels.
  vid_round_corner_points(Hcenter, Vcenter, x, y, 0, 0, color, fill, display);

  // Now start moving out from those points until the lines meet
  while (x < y) {
 4001fb8:	e0fff817 	ldw	r3,-32(fp)
 4001fbc:	e0bff917 	ldw	r2,-28(fp)
 4001fc0:	18bfd916 	blt	r3,r2,4001f28 <__reset+0xfb000f28>
      y--;
      p += 2*(x-y)+1;
    }
    vid_round_corner_points(Hcenter, Vcenter, x, y, 0, 0, color, fill, display);
  }
  return (0);
 4001fc4:	0005883a 	mov	r2,zero
}
 4001fc8:	e037883a 	mov	sp,fp
 4001fcc:	dfc00117 	ldw	ra,4(sp)
 4001fd0:	df000017 	ldw	fp,0(sp)
 4001fd4:	dec00204 	addi	sp,sp,8
 4001fd8:	f800283a 	ret

04001fdc <vid_draw_round_corner_box>:
*  to fill in the box.  1 = fill, 0 = do not fill.
*
******************************************************************/
int vid_draw_round_corner_box ( int horiz_start, int vert_start, int horiz_end, int vert_end, 
                                int radius, int color, int fill, alt_video_display* display)
{
 4001fdc:	deffec04 	addi	sp,sp,-80
 4001fe0:	dfc01315 	stw	ra,76(sp)
 4001fe4:	df001215 	stw	fp,72(sp)
 4001fe8:	df001204 	addi	fp,sp,72
 4001fec:	e13ffc15 	stw	r4,-16(fp)
 4001ff0:	e17ffd15 	stw	r5,-12(fp)
 4001ff4:	e1bffe15 	stw	r6,-8(fp)
 4001ff8:	e1ffff15 	stw	r7,-4(fp)
  int diameter;
  int temp;
  unsigned int width, height, straight_width, straight_height;

  // Make sure the start point us up and left of the end point
  if( horiz_start > horiz_end )
 4001ffc:	e0bffc17 	ldw	r2,-16(fp)
 4002000:	e0fffe17 	ldw	r3,-8(fp)
 4002004:	1880060e 	bge	r3,r2,4002020 <vid_draw_round_corner_box+0x44>
  {
    temp = horiz_end;
 4002008:	e0bffe17 	ldw	r2,-8(fp)
 400200c:	e0bff615 	stw	r2,-40(fp)
    horiz_end = horiz_start;
 4002010:	e0bffc17 	ldw	r2,-16(fp)
 4002014:	e0bffe15 	stw	r2,-8(fp)
    horiz_start = temp;
 4002018:	e0bff617 	ldw	r2,-40(fp)
 400201c:	e0bffc15 	stw	r2,-16(fp)
  }
  
  if( vert_start > vert_end )
 4002020:	e0bffd17 	ldw	r2,-12(fp)
 4002024:	e0ffff17 	ldw	r3,-4(fp)
 4002028:	1880060e 	bge	r3,r2,4002044 <vid_draw_round_corner_box+0x68>
  {
    temp = vert_end;
 400202c:	e0bfff17 	ldw	r2,-4(fp)
 4002030:	e0bff615 	stw	r2,-40(fp)
    vert_end = vert_start;
 4002034:	e0bffd17 	ldw	r2,-12(fp)
 4002038:	e0bfff15 	stw	r2,-4(fp)
    vert_start = temp;
 400203c:	e0bff617 	ldw	r2,-40(fp)
 4002040:	e0bffd15 	stw	r2,-12(fp)
  }
  
  // These are the overall dimensions of the box
  width = horiz_end - horiz_start;
 4002044:	e0fffe17 	ldw	r3,-8(fp)
 4002048:	e0bffc17 	ldw	r2,-16(fp)
 400204c:	1885c83a 	sub	r2,r3,r2
 4002050:	e0bff715 	stw	r2,-36(fp)
  height = vert_end - vert_start;
 4002054:	e0ffff17 	ldw	r3,-4(fp)
 4002058:	e0bffd17 	ldw	r2,-12(fp)
 400205c:	1885c83a 	sub	r2,r3,r2
 4002060:	e0bff815 	stw	r2,-32(fp)

  // Make sure our radius isnt more than the shortest dimension 
  // of the box, or it'll screw us all up
  if( radius > ( width / 2 ))
 4002064:	e0800217 	ldw	r2,8(fp)
 4002068:	e0fff717 	ldw	r3,-36(fp)
 400206c:	1806d07a 	srli	r3,r3,1
 4002070:	1880032e 	bgeu	r3,r2,4002080 <vid_draw_round_corner_box+0xa4>
    radius = width / 2;
 4002074:	e0bff717 	ldw	r2,-36(fp)
 4002078:	1004d07a 	srli	r2,r2,1
 400207c:	e0800215 	stw	r2,8(fp)

  if( radius > ( height / 2 ))
 4002080:	e0800217 	ldw	r2,8(fp)
 4002084:	e0fff817 	ldw	r3,-32(fp)
 4002088:	1806d07a 	srli	r3,r3,1
 400208c:	1880032e 	bgeu	r3,r2,400209c <vid_draw_round_corner_box+0xc0>
    radius = height / 2;
 4002090:	e0bff817 	ldw	r2,-32(fp)
 4002094:	1004d07a 	srli	r2,r2,1
 4002098:	e0800215 	stw	r2,8(fp)
  
  // We use the diameter for some calculations, so we'll pre calculate it here.
  diameter = ( radius * 2 );
 400209c:	e0800217 	ldw	r2,8(fp)
 40020a0:	1085883a 	add	r2,r2,r2
 40020a4:	e0bff915 	stw	r2,-28(fp)

  // These are the lengths of the straight portions of the box edges.
  straight_width = width - diameter;
 40020a8:	e0bff917 	ldw	r2,-28(fp)
 40020ac:	e0fff717 	ldw	r3,-36(fp)
 40020b0:	1885c83a 	sub	r2,r3,r2
 40020b4:	e0bffa15 	stw	r2,-24(fp)
  straight_height = height - diameter;
 40020b8:	e0bff917 	ldw	r2,-28(fp)
 40020bc:	e0fff817 	ldw	r3,-32(fp)
 40020c0:	1885c83a 	sub	r2,r3,r2
 40020c4:	e0bffb15 	stw	r2,-20(fp)

  x = 0;
 40020c8:	e03ff315 	stw	zero,-52(fp)
  y = radius;
 40020cc:	e0800217 	ldw	r2,8(fp)
 40020d0:	e0bff415 	stw	r2,-48(fp)
  p = (5 - radius*4)/4;
 40020d4:	e1000217 	ldw	r4,8(fp)
 40020d8:	017fff04 	movi	r5,-4
 40020dc:	4009dd80 	call	4009dd8 <__mulsi3>
 40020e0:	10800144 	addi	r2,r2,5
 40020e4:	1000010e 	bge	r2,zero,40020ec <vid_draw_round_corner_box+0x110>
 40020e8:	108000c4 	addi	r2,r2,3
 40020ec:	1005d0ba 	srai	r2,r2,2
 40020f0:	e0bff515 	stw	r2,-44(fp)
   
  // Start the corners with the top, bottom, left, and right pixels.
  vid_round_corner_points( horiz_start + radius, vert_start + radius, x, y, 
 40020f4:	e0fffc17 	ldw	r3,-16(fp)
 40020f8:	e0800217 	ldw	r2,8(fp)
 40020fc:	1889883a 	add	r4,r3,r2
 4002100:	e0fffd17 	ldw	r3,-12(fp)
 4002104:	e0800217 	ldw	r2,8(fp)
 4002108:	188b883a 	add	r5,r3,r2
 400210c:	e0fff317 	ldw	r3,-52(fp)
 4002110:	e0bff417 	ldw	r2,-48(fp)
 4002114:	e23ffa17 	ldw	r8,-24(fp)
 4002118:	e1fffb17 	ldw	r7,-20(fp)
 400211c:	e1800417 	ldw	r6,16(fp)
 4002120:	31803fcc 	andi	r6,r6,255
 4002124:	3180201c 	xori	r6,r6,128
 4002128:	31bfe004 	addi	r6,r6,-128
 400212c:	da000015 	stw	r8,0(sp)
 4002130:	d9c00115 	stw	r7,4(sp)
 4002134:	e1c00317 	ldw	r7,12(fp)
 4002138:	d9c00215 	stw	r7,8(sp)
 400213c:	d9800315 	stw	r6,12(sp)
 4002140:	e1800517 	ldw	r6,20(fp)
 4002144:	d9800415 	stw	r6,16(sp)
 4002148:	180d883a 	mov	r6,r3
 400214c:	100f883a 	mov	r7,r2
 4002150:	40023980 	call	4002398 <vid_round_corner_points>
                           straight_width, straight_height, color, fill, display );
  
  // Now start moving out from those points until the lines meet
  while (x < y) {
 4002154:	00003106 	br	400221c <vid_draw_round_corner_box+0x240>
    x++;
 4002158:	e0bff317 	ldw	r2,-52(fp)
 400215c:	10800044 	addi	r2,r2,1
 4002160:	e0bff315 	stw	r2,-52(fp)
    if (p < 0) {
 4002164:	e0bff517 	ldw	r2,-44(fp)
 4002168:	1000080e 	bge	r2,zero,400218c <vid_draw_round_corner_box+0x1b0>
      p += 2*x+1;
 400216c:	e0bff317 	ldw	r2,-52(fp)
 4002170:	1085883a 	add	r2,r2,r2
 4002174:	1007883a 	mov	r3,r2
 4002178:	e0bff517 	ldw	r2,-44(fp)
 400217c:	1885883a 	add	r2,r3,r2
 4002180:	10800044 	addi	r2,r2,1
 4002184:	e0bff515 	stw	r2,-44(fp)
 4002188:	00000c06 	br	40021bc <vid_draw_round_corner_box+0x1e0>
    } else {
      y--;
 400218c:	e0bff417 	ldw	r2,-48(fp)
 4002190:	10bfffc4 	addi	r2,r2,-1
 4002194:	e0bff415 	stw	r2,-48(fp)
      p += 2*(x-y)+1;
 4002198:	e0fff317 	ldw	r3,-52(fp)
 400219c:	e0bff417 	ldw	r2,-48(fp)
 40021a0:	1885c83a 	sub	r2,r3,r2
 40021a4:	1085883a 	add	r2,r2,r2
 40021a8:	1007883a 	mov	r3,r2
 40021ac:	e0bff517 	ldw	r2,-44(fp)
 40021b0:	1885883a 	add	r2,r3,r2
 40021b4:	10800044 	addi	r2,r2,1
 40021b8:	e0bff515 	stw	r2,-44(fp)
    }
    vid_round_corner_points( horiz_start + radius, vert_start + radius, x, y, 
 40021bc:	e0fffc17 	ldw	r3,-16(fp)
 40021c0:	e0800217 	ldw	r2,8(fp)
 40021c4:	1889883a 	add	r4,r3,r2
 40021c8:	e0fffd17 	ldw	r3,-12(fp)
 40021cc:	e0800217 	ldw	r2,8(fp)
 40021d0:	188b883a 	add	r5,r3,r2
 40021d4:	e0fff317 	ldw	r3,-52(fp)
 40021d8:	e0bff417 	ldw	r2,-48(fp)
 40021dc:	e23ffa17 	ldw	r8,-24(fp)
 40021e0:	e1fffb17 	ldw	r7,-20(fp)
 40021e4:	e1800417 	ldw	r6,16(fp)
 40021e8:	31803fcc 	andi	r6,r6,255
 40021ec:	3180201c 	xori	r6,r6,128
 40021f0:	31bfe004 	addi	r6,r6,-128
 40021f4:	da000015 	stw	r8,0(sp)
 40021f8:	d9c00115 	stw	r7,4(sp)
 40021fc:	e1c00317 	ldw	r7,12(fp)
 4002200:	d9c00215 	stw	r7,8(sp)
 4002204:	d9800315 	stw	r6,12(sp)
 4002208:	e1800517 	ldw	r6,20(fp)
 400220c:	d9800415 	stw	r6,16(sp)
 4002210:	180d883a 	mov	r6,r3
 4002214:	100f883a 	mov	r7,r2
 4002218:	40023980 	call	4002398 <vid_round_corner_points>
  // Start the corners with the top, bottom, left, and right pixels.
  vid_round_corner_points( horiz_start + radius, vert_start + radius, x, y, 
                           straight_width, straight_height, color, fill, display );
  
  // Now start moving out from those points until the lines meet
  while (x < y) {
 400221c:	e0fff317 	ldw	r3,-52(fp)
 4002220:	e0bff417 	ldw	r2,-48(fp)
 4002224:	18bfcc36 	bltu	r3,r2,4002158 <__reset+0xfb001158>
    vid_round_corner_points( horiz_start + radius, vert_start + radius, x, y, 
                             straight_width, straight_height, color, fill, display);
  }

  // If we want to fill in our box
  if (fill) {
 4002228:	e0800417 	ldw	r2,16(fp)
 400222c:	10001026 	beq	r2,zero,4002270 <vid_draw_round_corner_box+0x294>
     vid_paint_block (horiz_start, vert_start + radius, horiz_end, vert_end - radius, color, display);
 4002230:	e0fffd17 	ldw	r3,-12(fp)
 4002234:	e0800217 	ldw	r2,8(fp)
 4002238:	1887883a 	add	r3,r3,r2
 400223c:	e13fff17 	ldw	r4,-4(fp)
 4002240:	e0800217 	ldw	r2,8(fp)
 4002244:	2085c83a 	sub	r2,r4,r2
 4002248:	e1000317 	ldw	r4,12(fp)
 400224c:	d9000015 	stw	r4,0(sp)
 4002250:	e1000517 	ldw	r4,20(fp)
 4002254:	d9000115 	stw	r4,4(sp)
 4002258:	e13ffc17 	ldw	r4,-16(fp)
 400225c:	180b883a 	mov	r5,r3
 4002260:	e1bffe17 	ldw	r6,-8(fp)
 4002264:	100f883a 	mov	r7,r2
 4002268:	40012c40 	call	40012c4 <vid_paint_block>
 400226c:	00004406 	br	4002380 <vid_draw_round_corner_box+0x3a4>
  // If we're not filling in the box, just draw four lines.
  } else {
    vid_draw_line(horiz_start, vert_start + radius, horiz_start, vert_end - radius , 1, color, display); //left
 4002270:	e0fffd17 	ldw	r3,-12(fp)
 4002274:	e0800217 	ldw	r2,8(fp)
 4002278:	1887883a 	add	r3,r3,r2
 400227c:	e13fff17 	ldw	r4,-4(fp)
 4002280:	e0800217 	ldw	r2,8(fp)
 4002284:	2085c83a 	sub	r2,r4,r2
 4002288:	01000044 	movi	r4,1
 400228c:	d9000015 	stw	r4,0(sp)
 4002290:	e1000317 	ldw	r4,12(fp)
 4002294:	d9000115 	stw	r4,4(sp)
 4002298:	e1000517 	ldw	r4,20(fp)
 400229c:	d9000215 	stw	r4,8(sp)
 40022a0:	e13ffc17 	ldw	r4,-16(fp)
 40022a4:	180b883a 	mov	r5,r3
 40022a8:	e1bffc17 	ldw	r6,-16(fp)
 40022ac:	100f883a 	mov	r7,r2
 40022b0:	40006600 	call	4000660 <vid_draw_line>
    vid_draw_line(horiz_end, vert_start + radius, horiz_end, vert_end - radius , 1, color, display); //right
 40022b4:	e0fffd17 	ldw	r3,-12(fp)
 40022b8:	e0800217 	ldw	r2,8(fp)
 40022bc:	1887883a 	add	r3,r3,r2
 40022c0:	e13fff17 	ldw	r4,-4(fp)
 40022c4:	e0800217 	ldw	r2,8(fp)
 40022c8:	2085c83a 	sub	r2,r4,r2
 40022cc:	01000044 	movi	r4,1
 40022d0:	d9000015 	stw	r4,0(sp)
 40022d4:	e1000317 	ldw	r4,12(fp)
 40022d8:	d9000115 	stw	r4,4(sp)
 40022dc:	e1000517 	ldw	r4,20(fp)
 40022e0:	d9000215 	stw	r4,8(sp)
 40022e4:	e13ffe17 	ldw	r4,-8(fp)
 40022e8:	180b883a 	mov	r5,r3
 40022ec:	e1bffe17 	ldw	r6,-8(fp)
 40022f0:	100f883a 	mov	r7,r2
 40022f4:	40006600 	call	4000660 <vid_draw_line>
    vid_draw_line(horiz_start + radius, vert_start, horiz_end - radius , vert_start, 1, color, display); //top
 40022f8:	e0fffc17 	ldw	r3,-16(fp)
 40022fc:	e0800217 	ldw	r2,8(fp)
 4002300:	1887883a 	add	r3,r3,r2
 4002304:	e13ffe17 	ldw	r4,-8(fp)
 4002308:	e0800217 	ldw	r2,8(fp)
 400230c:	2085c83a 	sub	r2,r4,r2
 4002310:	01000044 	movi	r4,1
 4002314:	d9000015 	stw	r4,0(sp)
 4002318:	e1000317 	ldw	r4,12(fp)
 400231c:	d9000115 	stw	r4,4(sp)
 4002320:	e1000517 	ldw	r4,20(fp)
 4002324:	d9000215 	stw	r4,8(sp)
 4002328:	1809883a 	mov	r4,r3
 400232c:	e17ffd17 	ldw	r5,-12(fp)
 4002330:	100d883a 	mov	r6,r2
 4002334:	e1fffd17 	ldw	r7,-12(fp)
 4002338:	40006600 	call	4000660 <vid_draw_line>
    vid_draw_line(horiz_start + radius, vert_end, horiz_end - radius , vert_end, 1, color, display); //bottom
 400233c:	e0fffc17 	ldw	r3,-16(fp)
 4002340:	e0800217 	ldw	r2,8(fp)
 4002344:	1887883a 	add	r3,r3,r2
 4002348:	e13ffe17 	ldw	r4,-8(fp)
 400234c:	e0800217 	ldw	r2,8(fp)
 4002350:	2085c83a 	sub	r2,r4,r2
 4002354:	01000044 	movi	r4,1
 4002358:	d9000015 	stw	r4,0(sp)
 400235c:	e1000317 	ldw	r4,12(fp)
 4002360:	d9000115 	stw	r4,4(sp)
 4002364:	e1000517 	ldw	r4,20(fp)
 4002368:	d9000215 	stw	r4,8(sp)
 400236c:	1809883a 	mov	r4,r3
 4002370:	e17fff17 	ldw	r5,-4(fp)
 4002374:	100d883a 	mov	r6,r2
 4002378:	e1ffff17 	ldw	r7,-4(fp)
 400237c:	40006600 	call	4000660 <vid_draw_line>
  }

  return (0);
 4002380:	0005883a 	mov	r2,zero
}
 4002384:	e037883a 	mov	sp,fp
 4002388:	dfc00117 	ldw	ra,4(sp)
 400238c:	df000017 	ldw	fp,0(sp)
 4002390:	dec00204 	addi	sp,sp,8
 4002394:	f800283a 	ret

04002398 <vid_round_corner_points>:
******************************************************************/

void vid_round_corner_points( int cx, int cy, int x, int y, 
                              int straight_width, int straight_height, int color, 
                              char fill, alt_video_display* display)
{
 4002398:	defff604 	addi	sp,sp,-40
 400239c:	dfc00915 	stw	ra,36(sp)
 40023a0:	df000815 	stw	fp,32(sp)
 40023a4:	df000804 	addi	fp,sp,32
 40023a8:	e13ffb15 	stw	r4,-20(fp)
 40023ac:	e17ffc15 	stw	r5,-16(fp)
 40023b0:	e1bffd15 	stw	r6,-12(fp)
 40023b4:	e1fffe15 	stw	r7,-8(fp)
 40023b8:	e0800517 	ldw	r2,20(fp)
 40023bc:	e0bfff05 	stb	r2,-4(fp)

    // If we're directly above, below, left and right of center (0 degrees), plot those 4 pixels
    if (x == 0) {
 40023c0:	e0bffd17 	ldw	r2,-12(fp)
 40023c4:	1000861e 	bne	r2,zero,40025e0 <vid_round_corner_points+0x248>
        // bottom
        vid_set_pixel(cx, cy + y + straight_height, color, display);
 40023c8:	e0fffc17 	ldw	r3,-16(fp)
 40023cc:	e0bffe17 	ldw	r2,-8(fp)
 40023d0:	1887883a 	add	r3,r3,r2
 40023d4:	e0800317 	ldw	r2,12(fp)
 40023d8:	1887883a 	add	r3,r3,r2
 40023dc:	e0800417 	ldw	r2,16(fp)
 40023e0:	e13ffb17 	ldw	r4,-20(fp)
 40023e4:	180b883a 	mov	r5,r3
 40023e8:	100d883a 	mov	r6,r2
 40023ec:	e1c00617 	ldw	r7,24(fp)
 40023f0:	40010bc0 	call	40010bc <vid_set_pixel>
        vid_set_pixel(cx + straight_width, cy + y + straight_height, color, display);
 40023f4:	e0fffb17 	ldw	r3,-20(fp)
 40023f8:	e0800217 	ldw	r2,8(fp)
 40023fc:	1889883a 	add	r4,r3,r2
 4002400:	e0fffc17 	ldw	r3,-16(fp)
 4002404:	e0bffe17 	ldw	r2,-8(fp)
 4002408:	1887883a 	add	r3,r3,r2
 400240c:	e0800317 	ldw	r2,12(fp)
 4002410:	1887883a 	add	r3,r3,r2
 4002414:	e0800417 	ldw	r2,16(fp)
 4002418:	180b883a 	mov	r5,r3
 400241c:	100d883a 	mov	r6,r2
 4002420:	e1c00617 	ldw	r7,24(fp)
 4002424:	40010bc0 	call	40010bc <vid_set_pixel>
        // top
        vid_set_pixel(cx, cy - y, color, display);
 4002428:	e0fffc17 	ldw	r3,-16(fp)
 400242c:	e0bffe17 	ldw	r2,-8(fp)
 4002430:	1887c83a 	sub	r3,r3,r2
 4002434:	e0800417 	ldw	r2,16(fp)
 4002438:	e13ffb17 	ldw	r4,-20(fp)
 400243c:	180b883a 	mov	r5,r3
 4002440:	100d883a 	mov	r6,r2
 4002444:	e1c00617 	ldw	r7,24(fp)
 4002448:	40010bc0 	call	40010bc <vid_set_pixel>
        vid_set_pixel(cx + straight_width, cy - y, color, display);
 400244c:	e0fffb17 	ldw	r3,-20(fp)
 4002450:	e0800217 	ldw	r2,8(fp)
 4002454:	1889883a 	add	r4,r3,r2
 4002458:	e0fffc17 	ldw	r3,-16(fp)
 400245c:	e0bffe17 	ldw	r2,-8(fp)
 4002460:	1887c83a 	sub	r3,r3,r2
 4002464:	e0800417 	ldw	r2,16(fp)
 4002468:	180b883a 	mov	r5,r3
 400246c:	100d883a 	mov	r6,r2
 4002470:	e1c00617 	ldw	r7,24(fp)
 4002474:	40010bc0 	call	40010bc <vid_set_pixel>

        if(fill) {
 4002478:	e0bfff07 	ldb	r2,-4(fp)
 400247c:	10002b26 	beq	r2,zero,400252c <vid_round_corner_points+0x194>
          vid_draw_line(cx - y, cy, cx + y + straight_width, cy, 1, color, display);
 4002480:	e0fffb17 	ldw	r3,-20(fp)
 4002484:	e0bffe17 	ldw	r2,-8(fp)
 4002488:	1887c83a 	sub	r3,r3,r2
 400248c:	e13ffb17 	ldw	r4,-20(fp)
 4002490:	e0bffe17 	ldw	r2,-8(fp)
 4002494:	2089883a 	add	r4,r4,r2
 4002498:	e0800217 	ldw	r2,8(fp)
 400249c:	2085883a 	add	r2,r4,r2
 40024a0:	01000044 	movi	r4,1
 40024a4:	d9000015 	stw	r4,0(sp)
 40024a8:	e1000417 	ldw	r4,16(fp)
 40024ac:	d9000115 	stw	r4,4(sp)
 40024b0:	e1000617 	ldw	r4,24(fp)
 40024b4:	d9000215 	stw	r4,8(sp)
 40024b8:	1809883a 	mov	r4,r3
 40024bc:	e17ffc17 	ldw	r5,-16(fp)
 40024c0:	100d883a 	mov	r6,r2
 40024c4:	e1fffc17 	ldw	r7,-16(fp)
 40024c8:	40006600 	call	4000660 <vid_draw_line>
          vid_draw_line(cx - y, cy + straight_height, cx + y + straight_width, cy + straight_height, 1, color, display);
 40024cc:	e0fffb17 	ldw	r3,-20(fp)
 40024d0:	e0bffe17 	ldw	r2,-8(fp)
 40024d4:	1889c83a 	sub	r4,r3,r2
 40024d8:	e0fffc17 	ldw	r3,-16(fp)
 40024dc:	e0800317 	ldw	r2,12(fp)
 40024e0:	188b883a 	add	r5,r3,r2
 40024e4:	e0fffb17 	ldw	r3,-20(fp)
 40024e8:	e0bffe17 	ldw	r2,-8(fp)
 40024ec:	1887883a 	add	r3,r3,r2
 40024f0:	e0800217 	ldw	r2,8(fp)
 40024f4:	1887883a 	add	r3,r3,r2
 40024f8:	e1bffc17 	ldw	r6,-16(fp)
 40024fc:	e0800317 	ldw	r2,12(fp)
 4002500:	3085883a 	add	r2,r6,r2
 4002504:	01800044 	movi	r6,1
 4002508:	d9800015 	stw	r6,0(sp)
 400250c:	e1800417 	ldw	r6,16(fp)
 4002510:	d9800115 	stw	r6,4(sp)
 4002514:	e1800617 	ldw	r6,24(fp)
 4002518:	d9800215 	stw	r6,8(sp)
 400251c:	180d883a 	mov	r6,r3
 4002520:	100f883a 	mov	r7,r2
 4002524:	40006600 	call	4000660 <vid_draw_line>
 4002528:	00016c06 	br	4002adc <vid_round_corner_points+0x744>
        } else {
          //right
          vid_set_pixel(cx + y + straight_width, cy, color, display);
 400252c:	e0fffb17 	ldw	r3,-20(fp)
 4002530:	e0bffe17 	ldw	r2,-8(fp)
 4002534:	1887883a 	add	r3,r3,r2
 4002538:	e0800217 	ldw	r2,8(fp)
 400253c:	1887883a 	add	r3,r3,r2
 4002540:	e0800417 	ldw	r2,16(fp)
 4002544:	1809883a 	mov	r4,r3
 4002548:	e17ffc17 	ldw	r5,-16(fp)
 400254c:	100d883a 	mov	r6,r2
 4002550:	e1c00617 	ldw	r7,24(fp)
 4002554:	40010bc0 	call	40010bc <vid_set_pixel>
          vid_set_pixel(cx + y + straight_width, cy + straight_height, color, display);
 4002558:	e0fffb17 	ldw	r3,-20(fp)
 400255c:	e0bffe17 	ldw	r2,-8(fp)
 4002560:	1887883a 	add	r3,r3,r2
 4002564:	e0800217 	ldw	r2,8(fp)
 4002568:	1889883a 	add	r4,r3,r2
 400256c:	e0fffc17 	ldw	r3,-16(fp)
 4002570:	e0800317 	ldw	r2,12(fp)
 4002574:	1887883a 	add	r3,r3,r2
 4002578:	e0800417 	ldw	r2,16(fp)
 400257c:	180b883a 	mov	r5,r3
 4002580:	100d883a 	mov	r6,r2
 4002584:	e1c00617 	ldw	r7,24(fp)
 4002588:	40010bc0 	call	40010bc <vid_set_pixel>
          //left
          vid_set_pixel(cx - y, cy, color, display);
 400258c:	e0fffb17 	ldw	r3,-20(fp)
 4002590:	e0bffe17 	ldw	r2,-8(fp)
 4002594:	1887c83a 	sub	r3,r3,r2
 4002598:	e0800417 	ldw	r2,16(fp)
 400259c:	1809883a 	mov	r4,r3
 40025a0:	e17ffc17 	ldw	r5,-16(fp)
 40025a4:	100d883a 	mov	r6,r2
 40025a8:	e1c00617 	ldw	r7,24(fp)
 40025ac:	40010bc0 	call	40010bc <vid_set_pixel>
          vid_set_pixel(cx - y, cy + straight_height, color, display);
 40025b0:	e0fffb17 	ldw	r3,-20(fp)
 40025b4:	e0bffe17 	ldw	r2,-8(fp)
 40025b8:	1889c83a 	sub	r4,r3,r2
 40025bc:	e0fffc17 	ldw	r3,-16(fp)
 40025c0:	e0800317 	ldw	r2,12(fp)
 40025c4:	1887883a 	add	r3,r3,r2
 40025c8:	e0800417 	ldw	r2,16(fp)
 40025cc:	180b883a 	mov	r5,r3
 40025d0:	100d883a 	mov	r6,r2
 40025d4:	e1c00617 	ldw	r7,24(fp)
 40025d8:	40010bc0 	call	40010bc <vid_set_pixel>
 40025dc:	00013f06 	br	4002adc <vid_round_corner_points+0x744>
        }

    } else
    // If we've reached the 45 degree points (x=y), plot those 4 pixels
    if (x == y) {
 40025e0:	e0fffd17 	ldw	r3,-12(fp)
 40025e4:	e0bffe17 	ldw	r2,-8(fp)
 40025e8:	18806a1e 	bne	r3,r2,4002794 <vid_round_corner_points+0x3fc>
      if(fill) {
 40025ec:	e0bfff07 	ldb	r2,-4(fp)
 40025f0:	10003326 	beq	r2,zero,40026c0 <vid_round_corner_points+0x328>
        vid_draw_line(cx - x, cy + y + straight_height, cx + x + straight_width, cy + y + straight_height, 1, color, display); // lower
 40025f4:	e0fffb17 	ldw	r3,-20(fp)
 40025f8:	e0bffd17 	ldw	r2,-12(fp)
 40025fc:	1889c83a 	sub	r4,r3,r2
 4002600:	e0fffc17 	ldw	r3,-16(fp)
 4002604:	e0bffe17 	ldw	r2,-8(fp)
 4002608:	1887883a 	add	r3,r3,r2
 400260c:	e0800317 	ldw	r2,12(fp)
 4002610:	188b883a 	add	r5,r3,r2
 4002614:	e0fffb17 	ldw	r3,-20(fp)
 4002618:	e0bffd17 	ldw	r2,-12(fp)
 400261c:	1887883a 	add	r3,r3,r2
 4002620:	e0800217 	ldw	r2,8(fp)
 4002624:	1887883a 	add	r3,r3,r2
 4002628:	e1bffc17 	ldw	r6,-16(fp)
 400262c:	e0bffe17 	ldw	r2,-8(fp)
 4002630:	308d883a 	add	r6,r6,r2
 4002634:	e0800317 	ldw	r2,12(fp)
 4002638:	3085883a 	add	r2,r6,r2
 400263c:	01800044 	movi	r6,1
 4002640:	d9800015 	stw	r6,0(sp)
 4002644:	e1800417 	ldw	r6,16(fp)
 4002648:	d9800115 	stw	r6,4(sp)
 400264c:	e1800617 	ldw	r6,24(fp)
 4002650:	d9800215 	stw	r6,8(sp)
 4002654:	180d883a 	mov	r6,r3
 4002658:	100f883a 	mov	r7,r2
 400265c:	40006600 	call	4000660 <vid_draw_line>
        vid_draw_line(cx - x, cy - y, cx + x + straight_width, cy - y, 1, color, display); // upper
 4002660:	e0fffb17 	ldw	r3,-20(fp)
 4002664:	e0bffd17 	ldw	r2,-12(fp)
 4002668:	1889c83a 	sub	r4,r3,r2
 400266c:	e0fffc17 	ldw	r3,-16(fp)
 4002670:	e0bffe17 	ldw	r2,-8(fp)
 4002674:	188bc83a 	sub	r5,r3,r2
 4002678:	e0fffb17 	ldw	r3,-20(fp)
 400267c:	e0bffd17 	ldw	r2,-12(fp)
 4002680:	1887883a 	add	r3,r3,r2
 4002684:	e0800217 	ldw	r2,8(fp)
 4002688:	1887883a 	add	r3,r3,r2
 400268c:	e1bffc17 	ldw	r6,-16(fp)
 4002690:	e0bffe17 	ldw	r2,-8(fp)
 4002694:	3085c83a 	sub	r2,r6,r2
 4002698:	01800044 	movi	r6,1
 400269c:	d9800015 	stw	r6,0(sp)
 40026a0:	e1800417 	ldw	r6,16(fp)
 40026a4:	d9800115 	stw	r6,4(sp)
 40026a8:	e1800617 	ldw	r6,24(fp)
 40026ac:	d9800215 	stw	r6,8(sp)
 40026b0:	180d883a 	mov	r6,r3
 40026b4:	100f883a 	mov	r7,r2
 40026b8:	40006600 	call	4000660 <vid_draw_line>
 40026bc:	00010706 	br	4002adc <vid_round_corner_points+0x744>
        
      } else {
        vid_set_pixel(cx + x + straight_width, cy + y + straight_height, color, display); // bottom right
 40026c0:	e0fffb17 	ldw	r3,-20(fp)
 40026c4:	e0bffd17 	ldw	r2,-12(fp)
 40026c8:	1887883a 	add	r3,r3,r2
 40026cc:	e0800217 	ldw	r2,8(fp)
 40026d0:	1889883a 	add	r4,r3,r2
 40026d4:	e0fffc17 	ldw	r3,-16(fp)
 40026d8:	e0bffe17 	ldw	r2,-8(fp)
 40026dc:	1887883a 	add	r3,r3,r2
 40026e0:	e0800317 	ldw	r2,12(fp)
 40026e4:	1887883a 	add	r3,r3,r2
 40026e8:	e0800417 	ldw	r2,16(fp)
 40026ec:	180b883a 	mov	r5,r3
 40026f0:	100d883a 	mov	r6,r2
 40026f4:	e1c00617 	ldw	r7,24(fp)
 40026f8:	40010bc0 	call	40010bc <vid_set_pixel>
        vid_set_pixel(cx - x, cy + y + straight_height, color, display); // bottom left
 40026fc:	e0fffb17 	ldw	r3,-20(fp)
 4002700:	e0bffd17 	ldw	r2,-12(fp)
 4002704:	1889c83a 	sub	r4,r3,r2
 4002708:	e0fffc17 	ldw	r3,-16(fp)
 400270c:	e0bffe17 	ldw	r2,-8(fp)
 4002710:	1887883a 	add	r3,r3,r2
 4002714:	e0800317 	ldw	r2,12(fp)
 4002718:	1887883a 	add	r3,r3,r2
 400271c:	e0800417 	ldw	r2,16(fp)
 4002720:	180b883a 	mov	r5,r3
 4002724:	100d883a 	mov	r6,r2
 4002728:	e1c00617 	ldw	r7,24(fp)
 400272c:	40010bc0 	call	40010bc <vid_set_pixel>
        vid_set_pixel(cx + x + straight_width, cy - y, color, display); // top right
 4002730:	e0fffb17 	ldw	r3,-20(fp)
 4002734:	e0bffd17 	ldw	r2,-12(fp)
 4002738:	1887883a 	add	r3,r3,r2
 400273c:	e0800217 	ldw	r2,8(fp)
 4002740:	1889883a 	add	r4,r3,r2
 4002744:	e0fffc17 	ldw	r3,-16(fp)
 4002748:	e0bffe17 	ldw	r2,-8(fp)
 400274c:	1887c83a 	sub	r3,r3,r2
 4002750:	e0800417 	ldw	r2,16(fp)
 4002754:	180b883a 	mov	r5,r3
 4002758:	100d883a 	mov	r6,r2
 400275c:	e1c00617 	ldw	r7,24(fp)
 4002760:	40010bc0 	call	40010bc <vid_set_pixel>
        vid_set_pixel(cx - x, cy - y, color, display); // top left
 4002764:	e0fffb17 	ldw	r3,-20(fp)
 4002768:	e0bffd17 	ldw	r2,-12(fp)
 400276c:	1889c83a 	sub	r4,r3,r2
 4002770:	e0fffc17 	ldw	r3,-16(fp)
 4002774:	e0bffe17 	ldw	r2,-8(fp)
 4002778:	1887c83a 	sub	r3,r3,r2
 400277c:	e0800417 	ldw	r2,16(fp)
 4002780:	180b883a 	mov	r5,r3
 4002784:	100d883a 	mov	r6,r2
 4002788:	e1c00617 	ldw	r7,24(fp)
 400278c:	40010bc0 	call	40010bc <vid_set_pixel>
 4002790:	0000d206 	br	4002adc <vid_round_corner_points+0x744>
      }
    } else
    // If we're between 0 and 45 degrees plot 8 pixels.
    if (x < y) {
 4002794:	e0fffd17 	ldw	r3,-12(fp)
 4002798:	e0bffe17 	ldw	r2,-8(fp)
 400279c:	1880cf0e 	bge	r3,r2,4002adc <vid_round_corner_points+0x744>
        if(fill) {
 40027a0:	e0bfff07 	ldb	r2,-4(fp)
 40027a4:	10006526 	beq	r2,zero,400293c <vid_round_corner_points+0x5a4>
          vid_draw_line(cx - x, cy + y + straight_height, cx + x + straight_width, cy + y + straight_height, 1, color, display);
 40027a8:	e0fffb17 	ldw	r3,-20(fp)
 40027ac:	e0bffd17 	ldw	r2,-12(fp)
 40027b0:	1889c83a 	sub	r4,r3,r2
 40027b4:	e0fffc17 	ldw	r3,-16(fp)
 40027b8:	e0bffe17 	ldw	r2,-8(fp)
 40027bc:	1887883a 	add	r3,r3,r2
 40027c0:	e0800317 	ldw	r2,12(fp)
 40027c4:	188b883a 	add	r5,r3,r2
 40027c8:	e0fffb17 	ldw	r3,-20(fp)
 40027cc:	e0bffd17 	ldw	r2,-12(fp)
 40027d0:	1887883a 	add	r3,r3,r2
 40027d4:	e0800217 	ldw	r2,8(fp)
 40027d8:	1887883a 	add	r3,r3,r2
 40027dc:	e1bffc17 	ldw	r6,-16(fp)
 40027e0:	e0bffe17 	ldw	r2,-8(fp)
 40027e4:	308d883a 	add	r6,r6,r2
 40027e8:	e0800317 	ldw	r2,12(fp)
 40027ec:	3085883a 	add	r2,r6,r2
 40027f0:	01800044 	movi	r6,1
 40027f4:	d9800015 	stw	r6,0(sp)
 40027f8:	e1800417 	ldw	r6,16(fp)
 40027fc:	d9800115 	stw	r6,4(sp)
 4002800:	e1800617 	ldw	r6,24(fp)
 4002804:	d9800215 	stw	r6,8(sp)
 4002808:	180d883a 	mov	r6,r3
 400280c:	100f883a 	mov	r7,r2
 4002810:	40006600 	call	4000660 <vid_draw_line>
          vid_draw_line(cx - y, cy + x + straight_height, cx + y + straight_width, cy + x + straight_height, 1, color, display);
 4002814:	e0fffb17 	ldw	r3,-20(fp)
 4002818:	e0bffe17 	ldw	r2,-8(fp)
 400281c:	1889c83a 	sub	r4,r3,r2
 4002820:	e0fffc17 	ldw	r3,-16(fp)
 4002824:	e0bffd17 	ldw	r2,-12(fp)
 4002828:	1887883a 	add	r3,r3,r2
 400282c:	e0800317 	ldw	r2,12(fp)
 4002830:	188b883a 	add	r5,r3,r2
 4002834:	e0fffb17 	ldw	r3,-20(fp)
 4002838:	e0bffe17 	ldw	r2,-8(fp)
 400283c:	1887883a 	add	r3,r3,r2
 4002840:	e0800217 	ldw	r2,8(fp)
 4002844:	1887883a 	add	r3,r3,r2
 4002848:	e1bffc17 	ldw	r6,-16(fp)
 400284c:	e0bffd17 	ldw	r2,-12(fp)
 4002850:	308d883a 	add	r6,r6,r2
 4002854:	e0800317 	ldw	r2,12(fp)
 4002858:	3085883a 	add	r2,r6,r2
 400285c:	01800044 	movi	r6,1
 4002860:	d9800015 	stw	r6,0(sp)
 4002864:	e1800417 	ldw	r6,16(fp)
 4002868:	d9800115 	stw	r6,4(sp)
 400286c:	e1800617 	ldw	r6,24(fp)
 4002870:	d9800215 	stw	r6,8(sp)
 4002874:	180d883a 	mov	r6,r3
 4002878:	100f883a 	mov	r7,r2
 400287c:	40006600 	call	4000660 <vid_draw_line>
          vid_draw_line(cx - y, cy - x, cx + y + straight_width, cy - x, 1, color, display);
 4002880:	e0fffb17 	ldw	r3,-20(fp)
 4002884:	e0bffe17 	ldw	r2,-8(fp)
 4002888:	1889c83a 	sub	r4,r3,r2
 400288c:	e0fffc17 	ldw	r3,-16(fp)
 4002890:	e0bffd17 	ldw	r2,-12(fp)
 4002894:	188bc83a 	sub	r5,r3,r2
 4002898:	e0fffb17 	ldw	r3,-20(fp)
 400289c:	e0bffe17 	ldw	r2,-8(fp)
 40028a0:	1887883a 	add	r3,r3,r2
 40028a4:	e0800217 	ldw	r2,8(fp)
 40028a8:	1887883a 	add	r3,r3,r2
 40028ac:	e1bffc17 	ldw	r6,-16(fp)
 40028b0:	e0bffd17 	ldw	r2,-12(fp)
 40028b4:	3085c83a 	sub	r2,r6,r2
 40028b8:	01800044 	movi	r6,1
 40028bc:	d9800015 	stw	r6,0(sp)
 40028c0:	e1800417 	ldw	r6,16(fp)
 40028c4:	d9800115 	stw	r6,4(sp)
 40028c8:	e1800617 	ldw	r6,24(fp)
 40028cc:	d9800215 	stw	r6,8(sp)
 40028d0:	180d883a 	mov	r6,r3
 40028d4:	100f883a 	mov	r7,r2
 40028d8:	40006600 	call	4000660 <vid_draw_line>
          vid_draw_line(cx - x, cy - y, cx + x + straight_width, cy - y, 1, color, display);
 40028dc:	e0fffb17 	ldw	r3,-20(fp)
 40028e0:	e0bffd17 	ldw	r2,-12(fp)
 40028e4:	1889c83a 	sub	r4,r3,r2
 40028e8:	e0fffc17 	ldw	r3,-16(fp)
 40028ec:	e0bffe17 	ldw	r2,-8(fp)
 40028f0:	188bc83a 	sub	r5,r3,r2
 40028f4:	e0fffb17 	ldw	r3,-20(fp)
 40028f8:	e0bffd17 	ldw	r2,-12(fp)
 40028fc:	1887883a 	add	r3,r3,r2
 4002900:	e0800217 	ldw	r2,8(fp)
 4002904:	1887883a 	add	r3,r3,r2
 4002908:	e1bffc17 	ldw	r6,-16(fp)
 400290c:	e0bffe17 	ldw	r2,-8(fp)
 4002910:	3085c83a 	sub	r2,r6,r2
 4002914:	01800044 	movi	r6,1
 4002918:	d9800015 	stw	r6,0(sp)
 400291c:	e1800417 	ldw	r6,16(fp)
 4002920:	d9800115 	stw	r6,4(sp)
 4002924:	e1800617 	ldw	r6,24(fp)
 4002928:	d9800215 	stw	r6,8(sp)
 400292c:	180d883a 	mov	r6,r3
 4002930:	100f883a 	mov	r7,r2
 4002934:	40006600 	call	4000660 <vid_draw_line>
 4002938:	00006806 	br	4002adc <vid_round_corner_points+0x744>
        } else {
          vid_set_pixel(cx + x + straight_width, cy + y + straight_height, color, display);
 400293c:	e0fffb17 	ldw	r3,-20(fp)
 4002940:	e0bffd17 	ldw	r2,-12(fp)
 4002944:	1887883a 	add	r3,r3,r2
 4002948:	e0800217 	ldw	r2,8(fp)
 400294c:	1889883a 	add	r4,r3,r2
 4002950:	e0fffc17 	ldw	r3,-16(fp)
 4002954:	e0bffe17 	ldw	r2,-8(fp)
 4002958:	1887883a 	add	r3,r3,r2
 400295c:	e0800317 	ldw	r2,12(fp)
 4002960:	1887883a 	add	r3,r3,r2
 4002964:	e0800417 	ldw	r2,16(fp)
 4002968:	180b883a 	mov	r5,r3
 400296c:	100d883a 	mov	r6,r2
 4002970:	e1c00617 	ldw	r7,24(fp)
 4002974:	40010bc0 	call	40010bc <vid_set_pixel>
          vid_set_pixel(cx - x, cy + y + straight_height, color, display);
 4002978:	e0fffb17 	ldw	r3,-20(fp)
 400297c:	e0bffd17 	ldw	r2,-12(fp)
 4002980:	1889c83a 	sub	r4,r3,r2
 4002984:	e0fffc17 	ldw	r3,-16(fp)
 4002988:	e0bffe17 	ldw	r2,-8(fp)
 400298c:	1887883a 	add	r3,r3,r2
 4002990:	e0800317 	ldw	r2,12(fp)
 4002994:	1887883a 	add	r3,r3,r2
 4002998:	e0800417 	ldw	r2,16(fp)
 400299c:	180b883a 	mov	r5,r3
 40029a0:	100d883a 	mov	r6,r2
 40029a4:	e1c00617 	ldw	r7,24(fp)
 40029a8:	40010bc0 	call	40010bc <vid_set_pixel>
          vid_set_pixel(cx + x + straight_width, cy - y, color, display);
 40029ac:	e0fffb17 	ldw	r3,-20(fp)
 40029b0:	e0bffd17 	ldw	r2,-12(fp)
 40029b4:	1887883a 	add	r3,r3,r2
 40029b8:	e0800217 	ldw	r2,8(fp)
 40029bc:	1889883a 	add	r4,r3,r2
 40029c0:	e0fffc17 	ldw	r3,-16(fp)
 40029c4:	e0bffe17 	ldw	r2,-8(fp)
 40029c8:	1887c83a 	sub	r3,r3,r2
 40029cc:	e0800417 	ldw	r2,16(fp)
 40029d0:	180b883a 	mov	r5,r3
 40029d4:	100d883a 	mov	r6,r2
 40029d8:	e1c00617 	ldw	r7,24(fp)
 40029dc:	40010bc0 	call	40010bc <vid_set_pixel>
          vid_set_pixel(cx - x, cy - y, color, display);
 40029e0:	e0fffb17 	ldw	r3,-20(fp)
 40029e4:	e0bffd17 	ldw	r2,-12(fp)
 40029e8:	1889c83a 	sub	r4,r3,r2
 40029ec:	e0fffc17 	ldw	r3,-16(fp)
 40029f0:	e0bffe17 	ldw	r2,-8(fp)
 40029f4:	1887c83a 	sub	r3,r3,r2
 40029f8:	e0800417 	ldw	r2,16(fp)
 40029fc:	180b883a 	mov	r5,r3
 4002a00:	100d883a 	mov	r6,r2
 4002a04:	e1c00617 	ldw	r7,24(fp)
 4002a08:	40010bc0 	call	40010bc <vid_set_pixel>
          vid_set_pixel(cx + y + straight_width, cy + x + straight_height, color, display);
 4002a0c:	e0fffb17 	ldw	r3,-20(fp)
 4002a10:	e0bffe17 	ldw	r2,-8(fp)
 4002a14:	1887883a 	add	r3,r3,r2
 4002a18:	e0800217 	ldw	r2,8(fp)
 4002a1c:	1889883a 	add	r4,r3,r2
 4002a20:	e0fffc17 	ldw	r3,-16(fp)
 4002a24:	e0bffd17 	ldw	r2,-12(fp)
 4002a28:	1887883a 	add	r3,r3,r2
 4002a2c:	e0800317 	ldw	r2,12(fp)
 4002a30:	1887883a 	add	r3,r3,r2
 4002a34:	e0800417 	ldw	r2,16(fp)
 4002a38:	180b883a 	mov	r5,r3
 4002a3c:	100d883a 	mov	r6,r2
 4002a40:	e1c00617 	ldw	r7,24(fp)
 4002a44:	40010bc0 	call	40010bc <vid_set_pixel>
          vid_set_pixel(cx - y, cy + x + straight_height, color, display);
 4002a48:	e0fffb17 	ldw	r3,-20(fp)
 4002a4c:	e0bffe17 	ldw	r2,-8(fp)
 4002a50:	1889c83a 	sub	r4,r3,r2
 4002a54:	e0fffc17 	ldw	r3,-16(fp)
 4002a58:	e0bffd17 	ldw	r2,-12(fp)
 4002a5c:	1887883a 	add	r3,r3,r2
 4002a60:	e0800317 	ldw	r2,12(fp)
 4002a64:	1887883a 	add	r3,r3,r2
 4002a68:	e0800417 	ldw	r2,16(fp)
 4002a6c:	180b883a 	mov	r5,r3
 4002a70:	100d883a 	mov	r6,r2
 4002a74:	e1c00617 	ldw	r7,24(fp)
 4002a78:	40010bc0 	call	40010bc <vid_set_pixel>
          vid_set_pixel(cx + y + straight_width, cy - x, color, display);
 4002a7c:	e0fffb17 	ldw	r3,-20(fp)
 4002a80:	e0bffe17 	ldw	r2,-8(fp)
 4002a84:	1887883a 	add	r3,r3,r2
 4002a88:	e0800217 	ldw	r2,8(fp)
 4002a8c:	1889883a 	add	r4,r3,r2
 4002a90:	e0fffc17 	ldw	r3,-16(fp)
 4002a94:	e0bffd17 	ldw	r2,-12(fp)
 4002a98:	1887c83a 	sub	r3,r3,r2
 4002a9c:	e0800417 	ldw	r2,16(fp)
 4002aa0:	180b883a 	mov	r5,r3
 4002aa4:	100d883a 	mov	r6,r2
 4002aa8:	e1c00617 	ldw	r7,24(fp)
 4002aac:	40010bc0 	call	40010bc <vid_set_pixel>
          vid_set_pixel(cx - y, cy - x, color, display);
 4002ab0:	e0fffb17 	ldw	r3,-20(fp)
 4002ab4:	e0bffe17 	ldw	r2,-8(fp)
 4002ab8:	1889c83a 	sub	r4,r3,r2
 4002abc:	e0fffc17 	ldw	r3,-16(fp)
 4002ac0:	e0bffd17 	ldw	r2,-12(fp)
 4002ac4:	1887c83a 	sub	r3,r3,r2
 4002ac8:	e0800417 	ldw	r2,16(fp)
 4002acc:	180b883a 	mov	r5,r3
 4002ad0:	100d883a 	mov	r6,r2
 4002ad4:	e1c00617 	ldw	r7,24(fp)
 4002ad8:	40010bc0 	call	40010bc <vid_set_pixel>
        }
    }
}
 4002adc:	e037883a 	mov	sp,fp
 4002ae0:	dfc00117 	ldw	ra,4(sp)
 4002ae4:	df000017 	ldw	fp,0(sp)
 4002ae8:	dec00204 	addi	sp,sp,8
 4002aec:	f800283a 	ret

04002af0 <max3>:
*  Purpose:  Returns the minimum value of 3 parameters
*            Used for drawing filled shapes
*
******************************************************************/
__inline__ int max3( int a, int b, int c )
{
 4002af0:	defffc04 	addi	sp,sp,-16
 4002af4:	df000315 	stw	fp,12(sp)
 4002af8:	df000304 	addi	fp,sp,12
 4002afc:	e13ffd15 	stw	r4,-12(fp)
 4002b00:	e17ffe15 	stw	r5,-8(fp)
 4002b04:	e1bfff15 	stw	r6,-4(fp)
  if( a < b )
 4002b08:	e0fffd17 	ldw	r3,-12(fp)
 4002b0c:	e0bffe17 	ldw	r2,-8(fp)
 4002b10:	1880020e 	bge	r3,r2,4002b1c <max3+0x2c>
    a = b;
 4002b14:	e0bffe17 	ldw	r2,-8(fp)
 4002b18:	e0bffd15 	stw	r2,-12(fp)
  if( a < c )
 4002b1c:	e0fffd17 	ldw	r3,-12(fp)
 4002b20:	e0bfff17 	ldw	r2,-4(fp)
 4002b24:	1880020e 	bge	r3,r2,4002b30 <max3+0x40>
    a = c;
 4002b28:	e0bfff17 	ldw	r2,-4(fp)
 4002b2c:	e0bffd15 	stw	r2,-12(fp)
  
  return a;
 4002b30:	e0bffd17 	ldw	r2,-12(fp)
}
 4002b34:	e037883a 	mov	sp,fp
 4002b38:	df000017 	ldw	fp,0(sp)
 4002b3c:	dec00104 	addi	sp,sp,4
 4002b40:	f800283a 	ret

04002b44 <min3>:
*  Purpose:  Returns the minimum value of 3 parameters
*            Used for drawing filled shapes.
*
******************************************************************/
__inline__ int min3( int a, int b, int c )
{
 4002b44:	defffc04 	addi	sp,sp,-16
 4002b48:	df000315 	stw	fp,12(sp)
 4002b4c:	df000304 	addi	fp,sp,12
 4002b50:	e13ffd15 	stw	r4,-12(fp)
 4002b54:	e17ffe15 	stw	r5,-8(fp)
 4002b58:	e1bfff15 	stw	r6,-4(fp)
  if( a > b )
 4002b5c:	e0bffd17 	ldw	r2,-12(fp)
 4002b60:	e0fffe17 	ldw	r3,-8(fp)
 4002b64:	1880020e 	bge	r3,r2,4002b70 <min3+0x2c>
    a = b;
 4002b68:	e0bffe17 	ldw	r2,-8(fp)
 4002b6c:	e0bffd15 	stw	r2,-12(fp)
  if( a > c )
 4002b70:	e0bffd17 	ldw	r2,-12(fp)
 4002b74:	e0ffff17 	ldw	r3,-4(fp)
 4002b78:	1880020e 	bge	r3,r2,4002b84 <min3+0x40>
    a = c;
 4002b7c:	e0bfff17 	ldw	r2,-4(fp)
 4002b80:	e0bffd15 	stw	r2,-12(fp)
  
  return a;
 4002b84:	e0bffd17 	ldw	r2,-12(fp)
}
 4002b88:	e037883a 	mov	sp,fp
 4002b8c:	df000017 	ldw	fp,0(sp)
 4002b90:	dec00104 	addi	sp,sp,4
 4002b94:	f800283a 	ret

04002b98 <max_diff3>:
*  Purpose:  Returns the positive max difference between 3 
*            parameters.  Used for drawing filled shapes
*
******************************************************************/
__inline__ int max_diff3(int a, int b, int c)
{
 4002b98:	defff904 	addi	sp,sp,-28
 4002b9c:	dfc00615 	stw	ra,24(sp)
 4002ba0:	df000515 	stw	fp,20(sp)
 4002ba4:	df000504 	addi	fp,sp,20
 4002ba8:	e13ffd15 	stw	r4,-12(fp)
 4002bac:	e17ffe15 	stw	r5,-8(fp)
 4002bb0:	e1bfff15 	stw	r6,-4(fp)
  int max, min;
    
  max = max3( a, b, c );
 4002bb4:	e13ffd17 	ldw	r4,-12(fp)
 4002bb8:	e17ffe17 	ldw	r5,-8(fp)
 4002bbc:	e1bfff17 	ldw	r6,-4(fp)
 4002bc0:	4002af00 	call	4002af0 <max3>
 4002bc4:	e0bffb15 	stw	r2,-20(fp)
  min = min3( a, b, c );
 4002bc8:	e13ffd17 	ldw	r4,-12(fp)
 4002bcc:	e17ffe17 	ldw	r5,-8(fp)
 4002bd0:	e1bfff17 	ldw	r6,-4(fp)
 4002bd4:	4002b440 	call	4002b44 <min3>
 4002bd8:	e0bffc15 	stw	r2,-16(fp)
  return (max - min);
 4002bdc:	e0fffb17 	ldw	r3,-20(fp)
 4002be0:	e0bffc17 	ldw	r2,-16(fp)
 4002be4:	1885c83a 	sub	r2,r3,r2
}
 4002be8:	e037883a 	mov	sp,fp
 4002bec:	dfc00117 	ldw	ra,4(sp)
 4002bf0:	df000017 	ldw	fp,0(sp)
 4002bf4:	dec00204 	addi	sp,sp,8
 4002bf8:	f800283a 	ret

04002bfc <vid_put_pixel_in_span_map>:
*            min value of an element that represents a span, 
*            essentially just a horizontal line used to fill shapes.
*
******************************************************************/
inline void vid_put_pixel_in_span_map( int x, int y, int *span_array )
{
 4002bfc:	defffc04 	addi	sp,sp,-16
 4002c00:	df000315 	stw	fp,12(sp)
 4002c04:	df000304 	addi	fp,sp,12
 4002c08:	e13ffd15 	stw	r4,-12(fp)
 4002c0c:	e17ffe15 	stw	r5,-8(fp)
 4002c10:	e1bfff15 	stw	r6,-4(fp)
  if (span_array[y*2] == -1)
 4002c14:	e0bffe17 	ldw	r2,-8(fp)
 4002c18:	100490fa 	slli	r2,r2,3
 4002c1c:	e0ffff17 	ldw	r3,-4(fp)
 4002c20:	1885883a 	add	r2,r3,r2
 4002c24:	10800017 	ldw	r2,0(r2)
 4002c28:	10bfffd8 	cmpnei	r2,r2,-1
 4002c2c:	10000e1e 	bne	r2,zero,4002c68 <vid_put_pixel_in_span_map+0x6c>
  {
    span_array[y*2] = x;
 4002c30:	e0bffe17 	ldw	r2,-8(fp)
 4002c34:	100490fa 	slli	r2,r2,3
 4002c38:	e0ffff17 	ldw	r3,-4(fp)
 4002c3c:	1885883a 	add	r2,r3,r2
 4002c40:	e0fffd17 	ldw	r3,-12(fp)
 4002c44:	10c00015 	stw	r3,0(r2)
    span_array[(y*2)+1] = x;
 4002c48:	e0bffe17 	ldw	r2,-8(fp)
 4002c4c:	100490fa 	slli	r2,r2,3
 4002c50:	10800104 	addi	r2,r2,4
 4002c54:	e0ffff17 	ldw	r3,-4(fp)
 4002c58:	1885883a 	add	r2,r3,r2
 4002c5c:	e0fffd17 	ldw	r3,-12(fp)
 4002c60:	10c00015 	stw	r3,0(r2)
 4002c64:	00001d06 	br	4002cdc <vid_put_pixel_in_span_map+0xe0>
  }
  else if( span_array[y*2] > x )
 4002c68:	e0bffe17 	ldw	r2,-8(fp)
 4002c6c:	100490fa 	slli	r2,r2,3
 4002c70:	e0ffff17 	ldw	r3,-4(fp)
 4002c74:	1885883a 	add	r2,r3,r2
 4002c78:	10800017 	ldw	r2,0(r2)
 4002c7c:	e0fffd17 	ldw	r3,-12(fp)
 4002c80:	1880070e 	bge	r3,r2,4002ca0 <vid_put_pixel_in_span_map+0xa4>
    span_array[y*2] = x;
 4002c84:	e0bffe17 	ldw	r2,-8(fp)
 4002c88:	100490fa 	slli	r2,r2,3
 4002c8c:	e0ffff17 	ldw	r3,-4(fp)
 4002c90:	1885883a 	add	r2,r3,r2
 4002c94:	e0fffd17 	ldw	r3,-12(fp)
 4002c98:	10c00015 	stw	r3,0(r2)
 4002c9c:	00000f06 	br	4002cdc <vid_put_pixel_in_span_map+0xe0>
  else if( span_array[(y*2)+1] < x )
 4002ca0:	e0bffe17 	ldw	r2,-8(fp)
 4002ca4:	100490fa 	slli	r2,r2,3
 4002ca8:	10800104 	addi	r2,r2,4
 4002cac:	e0ffff17 	ldw	r3,-4(fp)
 4002cb0:	1885883a 	add	r2,r3,r2
 4002cb4:	10c00017 	ldw	r3,0(r2)
 4002cb8:	e0bffd17 	ldw	r2,-12(fp)
 4002cbc:	1880070e 	bge	r3,r2,4002cdc <vid_put_pixel_in_span_map+0xe0>
    span_array[(y*2)+1] = x;
 4002cc0:	e0bffe17 	ldw	r2,-8(fp)
 4002cc4:	100490fa 	slli	r2,r2,3
 4002cc8:	10800104 	addi	r2,r2,4
 4002ccc:	e0ffff17 	ldw	r3,-4(fp)
 4002cd0:	1885883a 	add	r2,r3,r2
 4002cd4:	e0fffd17 	ldw	r3,-12(fp)
 4002cd8:	10c00015 	stw	r3,0(r2)
}
 4002cdc:	e037883a 	mov	sp,fp
 4002ce0:	df000017 	ldw	fp,0(sp)
 4002ce4:	dec00104 	addi	sp,sp,4
 4002ce8:	f800283a 	ret

04002cec <vid_bres_scan_edges>:
*            filled shapes where you fill by drawing successive
*            horizontal lines.
*
******************************************************************/
void vid_bres_scan_edges( int x1, int y1, int x2, int y2, int *span_array) 
{
 4002cec:	deffee04 	addi	sp,sp,-72
 4002cf0:	dfc01115 	stw	ra,68(sp)
 4002cf4:	df001015 	stw	fp,64(sp)
 4002cf8:	df001004 	addi	fp,sp,64
 4002cfc:	e13ffc15 	stw	r4,-16(fp)
 4002d00:	e17ffd15 	stw	r5,-12(fp)
 4002d04:	e1bffe15 	stw	r6,-8(fp)
 4002d08:	e1ffff15 	stw	r7,-4(fp)

  int x_incr, y_incr;
  int y_delta, x_delta;

  // Assure we always draw left to right
  if( x1 > x2 )
 4002d0c:	e0bffc17 	ldw	r2,-16(fp)
 4002d10:	e0fffe17 	ldw	r3,-8(fp)
 4002d14:	18800c0e 	bge	r3,r2,4002d48 <vid_bres_scan_edges+0x5c>
  {
    int tempx = x2;
 4002d18:	e0bffe17 	ldw	r2,-8(fp)
 4002d1c:	e0bff515 	stw	r2,-44(fp)
    x2 = x1;
 4002d20:	e0bffc17 	ldw	r2,-16(fp)
 4002d24:	e0bffe15 	stw	r2,-8(fp)
    x1 = tempx;
 4002d28:	e0bff517 	ldw	r2,-44(fp)
 4002d2c:	e0bffc15 	stw	r2,-16(fp)
    int tempy = y2;
 4002d30:	e0bfff17 	ldw	r2,-4(fp)
 4002d34:	e0bff615 	stw	r2,-40(fp)
    y2 = y1;
 4002d38:	e0bffd17 	ldw	r2,-12(fp)
 4002d3c:	e0bfff15 	stw	r2,-4(fp)
    y1 = tempy;
 4002d40:	e0bff617 	ldw	r2,-40(fp)
 4002d44:	e0bffd15 	stw	r2,-12(fp)
  }
  
  // Find the vertical and horizontal distance between the two points
  y_delta = abs(y1-y2);
 4002d48:	e0fffd17 	ldw	r3,-12(fp)
 4002d4c:	e0bfff17 	ldw	r2,-4(fp)
 4002d50:	1885c83a 	sub	r2,r3,r2
 4002d54:	1000010e 	bge	r2,zero,4002d5c <vid_bres_scan_edges+0x70>
 4002d58:	0085c83a 	sub	r2,zero,r2
 4002d5c:	e0bff115 	stw	r2,-60(fp)
  x_delta = (x2-x1);
 4002d60:	e0fffe17 	ldw	r3,-8(fp)
 4002d64:	e0bffc17 	ldw	r2,-16(fp)
 4002d68:	1885c83a 	sub	r2,r3,r2
 4002d6c:	e0bff215 	stw	r2,-56(fp)

  // Find out what direction we are going
  if (y1 > y2) { y_incr=-1; } else { y_incr=1; }
 4002d70:	e0bffd17 	ldw	r2,-12(fp)
 4002d74:	e0ffff17 	ldw	r3,-4(fp)
 4002d78:	1880030e 	bge	r3,r2,4002d88 <vid_bres_scan_edges+0x9c>
 4002d7c:	00bfffc4 	movi	r2,-1
 4002d80:	e0bff015 	stw	r2,-64(fp)
 4002d84:	00000206 	br	4002d90 <vid_bres_scan_edges+0xa4>
 4002d88:	00800044 	movi	r2,1
 4002d8c:	e0bff015 	stw	r2,-64(fp)
  x_incr=1;
 4002d90:	00800044 	movi	r2,1
 4002d94:	e0bff715 	stw	r2,-36(fp)

  // Find out which axis is always incremented when drawing the line
  // If it's the horizontal axis
  if (x_delta >= y_delta) {
 4002d98:	e0fff217 	ldw	r3,-56(fp)
 4002d9c:	e0bff117 	ldw	r2,-60(fp)
 4002da0:	18802e16 	blt	r3,r2,4002e5c <vid_bres_scan_edges+0x170>
    int dPr   = y_delta<<1;
 4002da4:	e0bff117 	ldw	r2,-60(fp)
 4002da8:	1085883a 	add	r2,r2,r2
 4002dac:	e0bff815 	stw	r2,-32(fp)
    int dPru  = dPr - (x_delta<<1);
 4002db0:	e0bff217 	ldw	r2,-56(fp)
 4002db4:	1085883a 	add	r2,r2,r2
 4002db8:	e0fff817 	ldw	r3,-32(fp)
 4002dbc:	1885c83a 	sub	r2,r3,r2
 4002dc0:	e0bff915 	stw	r2,-28(fp)
    int P     = dPr - x_delta;
 4002dc4:	e0fff817 	ldw	r3,-32(fp)
 4002dc8:	e0bff217 	ldw	r2,-56(fp)
 4002dcc:	1885c83a 	sub	r2,r3,r2
 4002dd0:	e0bff315 	stw	r2,-52(fp)

    // Process the line, one horizontal point at at time
    for (; x_delta >= 0; x_delta--) {
 4002dd4:	00001e06 	br	4002e50 <vid_bres_scan_edges+0x164>
      // map the pixel
      vid_put_pixel_in_span_map(x1, y1, span_array);
 4002dd8:	e13ffc17 	ldw	r4,-16(fp)
 4002ddc:	e17ffd17 	ldw	r5,-12(fp)
 4002de0:	e1800217 	ldw	r6,8(fp)
 4002de4:	4002bfc0 	call	4002bfc <vid_put_pixel_in_span_map>
      // If we're moving along both axis
      if (P > 0) {
 4002de8:	e0bff317 	ldw	r2,-52(fp)
 4002dec:	00800d0e 	bge	zero,r2,4002e24 <vid_bres_scan_edges+0x138>
        x1+=x_incr;
 4002df0:	e0fffc17 	ldw	r3,-16(fp)
 4002df4:	e0bff717 	ldw	r2,-36(fp)
 4002df8:	1885883a 	add	r2,r3,r2
 4002dfc:	e0bffc15 	stw	r2,-16(fp)
        y1+=y_incr;
 4002e00:	e0fffd17 	ldw	r3,-12(fp)
 4002e04:	e0bff017 	ldw	r2,-64(fp)
 4002e08:	1885883a 	add	r2,r3,r2
 4002e0c:	e0bffd15 	stw	r2,-12(fp)
        P+=dPru;
 4002e10:	e0fff317 	ldw	r3,-52(fp)
 4002e14:	e0bff917 	ldw	r2,-28(fp)
 4002e18:	1885883a 	add	r2,r3,r2
 4002e1c:	e0bff315 	stw	r2,-52(fp)
 4002e20:	00000806 	br	4002e44 <vid_bres_scan_edges+0x158>
      } else {
        x1+=x_incr;
 4002e24:	e0fffc17 	ldw	r3,-16(fp)
 4002e28:	e0bff717 	ldw	r2,-36(fp)
 4002e2c:	1885883a 	add	r2,r3,r2
 4002e30:	e0bffc15 	stw	r2,-16(fp)
        P+=dPr;
 4002e34:	e0fff317 	ldw	r3,-52(fp)
 4002e38:	e0bff817 	ldw	r2,-32(fp)
 4002e3c:	1885883a 	add	r2,r3,r2
 4002e40:	e0bff315 	stw	r2,-52(fp)
    int dPr   = y_delta<<1;
    int dPru  = dPr - (x_delta<<1);
    int P     = dPr - x_delta;

    // Process the line, one horizontal point at at time
    for (; x_delta >= 0; x_delta--) {
 4002e44:	e0bff217 	ldw	r2,-56(fp)
 4002e48:	10bfffc4 	addi	r2,r2,-1
 4002e4c:	e0bff215 	stw	r2,-56(fp)
 4002e50:	e0bff217 	ldw	r2,-56(fp)
 4002e54:	103fe00e 	bge	r2,zero,4002dd8 <__reset+0xfb001dd8>
 4002e58:	00002d06 	br	4002f10 <vid_bres_scan_edges+0x224>
      }
    }
  }
  else // If it's the vertical axis
  {
    int dPr   = x_delta<<1;
 4002e5c:	e0bff217 	ldw	r2,-56(fp)
 4002e60:	1085883a 	add	r2,r2,r2
 4002e64:	e0bffa15 	stw	r2,-24(fp)
    int dPru  = dPr - (y_delta<<1);
 4002e68:	e0bff117 	ldw	r2,-60(fp)
 4002e6c:	1085883a 	add	r2,r2,r2
 4002e70:	e0fffa17 	ldw	r3,-24(fp)
 4002e74:	1885c83a 	sub	r2,r3,r2
 4002e78:	e0bffb15 	stw	r2,-20(fp)
    int P     = dPr - y_delta;
 4002e7c:	e0fffa17 	ldw	r3,-24(fp)
 4002e80:	e0bff117 	ldw	r2,-60(fp)
 4002e84:	1885c83a 	sub	r2,r3,r2
 4002e88:	e0bff415 	stw	r2,-48(fp)

    // Process the line, one vertical point at at time
    for (; y_delta>=0; y_delta--) {
 4002e8c:	00001e06 	br	4002f08 <vid_bres_scan_edges+0x21c>
      // plot the pixel
      vid_put_pixel_in_span_map(x1, y1, span_array);
 4002e90:	e13ffc17 	ldw	r4,-16(fp)
 4002e94:	e17ffd17 	ldw	r5,-12(fp)
 4002e98:	e1800217 	ldw	r6,8(fp)
 4002e9c:	4002bfc0 	call	4002bfc <vid_put_pixel_in_span_map>
      // If we're moving along both axis
      if (P > 0) {
 4002ea0:	e0bff417 	ldw	r2,-48(fp)
 4002ea4:	00800d0e 	bge	zero,r2,4002edc <vid_bres_scan_edges+0x1f0>
        x1+=x_incr;
 4002ea8:	e0fffc17 	ldw	r3,-16(fp)
 4002eac:	e0bff717 	ldw	r2,-36(fp)
 4002eb0:	1885883a 	add	r2,r3,r2
 4002eb4:	e0bffc15 	stw	r2,-16(fp)
        y1+=y_incr;
 4002eb8:	e0fffd17 	ldw	r3,-12(fp)
 4002ebc:	e0bff017 	ldw	r2,-64(fp)
 4002ec0:	1885883a 	add	r2,r3,r2
 4002ec4:	e0bffd15 	stw	r2,-12(fp)
        P+=dPru;
 4002ec8:	e0fff417 	ldw	r3,-48(fp)
 4002ecc:	e0bffb17 	ldw	r2,-20(fp)
 4002ed0:	1885883a 	add	r2,r3,r2
 4002ed4:	e0bff415 	stw	r2,-48(fp)
 4002ed8:	00000806 	br	4002efc <vid_bres_scan_edges+0x210>
      } else {
        y1+=y_incr;
 4002edc:	e0fffd17 	ldw	r3,-12(fp)
 4002ee0:	e0bff017 	ldw	r2,-64(fp)
 4002ee4:	1885883a 	add	r2,r3,r2
 4002ee8:	e0bffd15 	stw	r2,-12(fp)
        P+=dPr;
 4002eec:	e0fff417 	ldw	r3,-48(fp)
 4002ef0:	e0bffa17 	ldw	r2,-24(fp)
 4002ef4:	1885883a 	add	r2,r3,r2
 4002ef8:	e0bff415 	stw	r2,-48(fp)
    int dPr   = x_delta<<1;
    int dPru  = dPr - (y_delta<<1);
    int P     = dPr - y_delta;

    // Process the line, one vertical point at at time
    for (; y_delta>=0; y_delta--) {
 4002efc:	e0bff117 	ldw	r2,-60(fp)
 4002f00:	10bfffc4 	addi	r2,r2,-1
 4002f04:	e0bff115 	stw	r2,-60(fp)
 4002f08:	e0bff117 	ldw	r2,-60(fp)
 4002f0c:	103fe00e 	bge	r2,zero,4002e90 <__reset+0xfb001e90>
        y1+=y_incr;
        P+=dPr;
      }
    }
  }
}
 4002f10:	e037883a 	mov	sp,fp
 4002f14:	dfc00117 	ldw	ra,4(sp)
 4002f18:	df000017 	ldw	fp,0(sp)
 4002f1c:	dec00204 	addi	sp,sp,8
 4002f20:	f800283a 	ret

04002f24 <vid_draw_triangle>:
*  Purpose:  This function draws a triangle on the screen between
*            three points defined by the structure tri.
*
******************************************************************/
void vid_draw_triangle(triangle_struct* tri, alt_video_display* display)
{
 4002f24:	defff804 	addi	sp,sp,-32
 4002f28:	dfc00715 	stw	ra,28(sp)
 4002f2c:	df000615 	stw	fp,24(sp)
 4002f30:	df000604 	addi	fp,sp,24
 4002f34:	e13ffe15 	stw	r4,-8(fp)
 4002f38:	e17fff15 	stw	r5,-4(fp)
  int i;
  
  // Outline it first
    vid_draw_line( tri->vertex_x[0], tri->vertex_y[0], 
 4002f3c:	e0bffe17 	ldw	r2,-8(fp)
 4002f40:	11000017 	ldw	r4,0(r2)
 4002f44:	e0bffe17 	ldw	r2,-8(fp)
 4002f48:	11400317 	ldw	r5,12(r2)
                   tri->vertex_x[1], tri->vertex_y[1], 1, 
 4002f4c:	e0bffe17 	ldw	r2,-8(fp)
void vid_draw_triangle(triangle_struct* tri, alt_video_display* display)
{
  int i;
  
  // Outline it first
    vid_draw_line( tri->vertex_x[0], tri->vertex_y[0], 
 4002f50:	10c00117 	ldw	r3,4(r2)
                   tri->vertex_x[1], tri->vertex_y[1], 1, 
 4002f54:	e0bffe17 	ldw	r2,-8(fp)
void vid_draw_triangle(triangle_struct* tri, alt_video_display* display)
{
  int i;
  
  // Outline it first
    vid_draw_line( tri->vertex_x[0], tri->vertex_y[0], 
 4002f58:	10800417 	ldw	r2,16(r2)
                   tri->vertex_x[1], tri->vertex_y[1], 1, 
                   tri->col, display);
 4002f5c:	e1bffe17 	ldw	r6,-8(fp)
void vid_draw_triangle(triangle_struct* tri, alt_video_display* display)
{
  int i;
  
  // Outline it first
    vid_draw_line( tri->vertex_x[0], tri->vertex_y[0], 
 4002f60:	31800a17 	ldw	r6,40(r6)
 4002f64:	01c00044 	movi	r7,1
 4002f68:	d9c00015 	stw	r7,0(sp)
 4002f6c:	d9800115 	stw	r6,4(sp)
 4002f70:	e1bfff17 	ldw	r6,-4(fp)
 4002f74:	d9800215 	stw	r6,8(sp)
 4002f78:	180d883a 	mov	r6,r3
 4002f7c:	100f883a 	mov	r7,r2
 4002f80:	40006600 	call	4000660 <vid_draw_line>
                   tri->vertex_x[1], tri->vertex_y[1], 1, 
                   tri->col, display);
    vid_draw_line( tri->vertex_x[1], tri->vertex_y[1], 
 4002f84:	e0bffe17 	ldw	r2,-8(fp)
 4002f88:	11000117 	ldw	r4,4(r2)
 4002f8c:	e0bffe17 	ldw	r2,-8(fp)
 4002f90:	11400417 	ldw	r5,16(r2)
                   tri->vertex_x[2], tri->vertex_y[2], 1, 
 4002f94:	e0bffe17 	ldw	r2,-8(fp)
  
  // Outline it first
    vid_draw_line( tri->vertex_x[0], tri->vertex_y[0], 
                   tri->vertex_x[1], tri->vertex_y[1], 1, 
                   tri->col, display);
    vid_draw_line( tri->vertex_x[1], tri->vertex_y[1], 
 4002f98:	10c00217 	ldw	r3,8(r2)
                   tri->vertex_x[2], tri->vertex_y[2], 1, 
 4002f9c:	e0bffe17 	ldw	r2,-8(fp)
  
  // Outline it first
    vid_draw_line( tri->vertex_x[0], tri->vertex_y[0], 
                   tri->vertex_x[1], tri->vertex_y[1], 1, 
                   tri->col, display);
    vid_draw_line( tri->vertex_x[1], tri->vertex_y[1], 
 4002fa0:	10800517 	ldw	r2,20(r2)
                   tri->vertex_x[2], tri->vertex_y[2], 1, 
                   tri->col, display);
 4002fa4:	e1bffe17 	ldw	r6,-8(fp)
  
  // Outline it first
    vid_draw_line( tri->vertex_x[0], tri->vertex_y[0], 
                   tri->vertex_x[1], tri->vertex_y[1], 1, 
                   tri->col, display);
    vid_draw_line( tri->vertex_x[1], tri->vertex_y[1], 
 4002fa8:	31800a17 	ldw	r6,40(r6)
 4002fac:	01c00044 	movi	r7,1
 4002fb0:	d9c00015 	stw	r7,0(sp)
 4002fb4:	d9800115 	stw	r6,4(sp)
 4002fb8:	e1bfff17 	ldw	r6,-4(fp)
 4002fbc:	d9800215 	stw	r6,8(sp)
 4002fc0:	180d883a 	mov	r6,r3
 4002fc4:	100f883a 	mov	r7,r2
 4002fc8:	40006600 	call	4000660 <vid_draw_line>
                   tri->vertex_x[2], tri->vertex_y[2], 1, 
                   tri->col, display);
    vid_draw_line( tri->vertex_x[2], tri->vertex_y[2], 
 4002fcc:	e0bffe17 	ldw	r2,-8(fp)
 4002fd0:	11000217 	ldw	r4,8(r2)
 4002fd4:	e0bffe17 	ldw	r2,-8(fp)
 4002fd8:	11400517 	ldw	r5,20(r2)
                   tri->vertex_x[0], tri->vertex_y[0], 1, 
 4002fdc:	e0bffe17 	ldw	r2,-8(fp)
                   tri->vertex_x[1], tri->vertex_y[1], 1, 
                   tri->col, display);
    vid_draw_line( tri->vertex_x[1], tri->vertex_y[1], 
                   tri->vertex_x[2], tri->vertex_y[2], 1, 
                   tri->col, display);
    vid_draw_line( tri->vertex_x[2], tri->vertex_y[2], 
 4002fe0:	10c00017 	ldw	r3,0(r2)
                   tri->vertex_x[0], tri->vertex_y[0], 1, 
 4002fe4:	e0bffe17 	ldw	r2,-8(fp)
                   tri->vertex_x[1], tri->vertex_y[1], 1, 
                   tri->col, display);
    vid_draw_line( tri->vertex_x[1], tri->vertex_y[1], 
                   tri->vertex_x[2], tri->vertex_y[2], 1, 
                   tri->col, display);
    vid_draw_line( tri->vertex_x[2], tri->vertex_y[2], 
 4002fe8:	10800317 	ldw	r2,12(r2)
                   tri->vertex_x[0], tri->vertex_y[0], 1, 
                   tri->col, display);
 4002fec:	e1bffe17 	ldw	r6,-8(fp)
                   tri->vertex_x[1], tri->vertex_y[1], 1, 
                   tri->col, display);
    vid_draw_line( tri->vertex_x[1], tri->vertex_y[1], 
                   tri->vertex_x[2], tri->vertex_y[2], 1, 
                   tri->col, display);
    vid_draw_line( tri->vertex_x[2], tri->vertex_y[2], 
 4002ff0:	31800a17 	ldw	r6,40(r6)
 4002ff4:	01c00044 	movi	r7,1
 4002ff8:	d9c00015 	stw	r7,0(sp)
 4002ffc:	d9800115 	stw	r6,4(sp)
 4003000:	e1bfff17 	ldw	r6,-4(fp)
 4003004:	d9800215 	stw	r6,8(sp)
 4003008:	180d883a 	mov	r6,r3
 400300c:	100f883a 	mov	r7,r2
 4003010:	40006600 	call	4000660 <vid_draw_line>
                   tri->vertex_x[0], tri->vertex_y[0], 1, 
                   tri->col, display);
//  vid_draw_line(tri->bx, tri->by, tri->cx, tri->cy, 1, tri->col, display);
//  vid_draw_line(tri->cx, tri->cy, tri->ax, tri->ay, 1, tri->col, display);
  
  if(tri->fill == DO_FILL)
 4003014:	e0bffe17 	ldw	r2,-8(fp)
 4003018:	10800b17 	ldw	r2,44(r2)
 400301c:	10800058 	cmpnei	r2,r2,1
 4003020:	1000a01e 	bne	r2,zero,40032a4 <vid_draw_triangle+0x380>
  {
    tri->top_y = min3(tri->vertex_y[0], tri->vertex_y[1], tri->vertex_y[2]);
 4003024:	e0bffe17 	ldw	r2,-8(fp)
 4003028:	11000317 	ldw	r4,12(r2)
 400302c:	e0bffe17 	ldw	r2,-8(fp)
 4003030:	10c00417 	ldw	r3,16(r2)
 4003034:	e0bffe17 	ldw	r2,-8(fp)
 4003038:	10800517 	ldw	r2,20(r2)
 400303c:	180b883a 	mov	r5,r3
 4003040:	100d883a 	mov	r6,r2
 4003044:	4002b440 	call	4002b44 <min3>
 4003048:	e0fffe17 	ldw	r3,-8(fp)
 400304c:	18800815 	stw	r2,32(r3)
    tri->bottom_y = max3(tri->vertex_y[0], tri->vertex_y[1], tri->vertex_y[2]);
 4003050:	e0bffe17 	ldw	r2,-8(fp)
 4003054:	11000317 	ldw	r4,12(r2)
 4003058:	e0bffe17 	ldw	r2,-8(fp)
 400305c:	10c00417 	ldw	r3,16(r2)
 4003060:	e0bffe17 	ldw	r2,-8(fp)
 4003064:	10800517 	ldw	r2,20(r2)
 4003068:	180b883a 	mov	r5,r3
 400306c:	100d883a 	mov	r6,r2
 4003070:	4002af00 	call	4002af0 <max3>
 4003074:	e0fffe17 	ldw	r3,-8(fp)
 4003078:	18800915 	stw	r2,36(r3)
    tri->spans_needed = max_diff3(tri->vertex_y[0], tri->vertex_y[1], tri->vertex_y[2]);
 400307c:	e0bffe17 	ldw	r2,-8(fp)
 4003080:	11000317 	ldw	r4,12(r2)
 4003084:	e0bffe17 	ldw	r2,-8(fp)
 4003088:	10c00417 	ldw	r3,16(r2)
 400308c:	e0bffe17 	ldw	r2,-8(fp)
 4003090:	10800517 	ldw	r2,20(r2)
 4003094:	180b883a 	mov	r5,r3
 4003098:	100d883a 	mov	r6,r2
 400309c:	4002b980 	call	4002b98 <max_diff3>
 40030a0:	e0fffe17 	ldw	r3,-8(fp)
 40030a4:	18800615 	stw	r2,24(r3)
    tri->max_span = max_diff3(tri->vertex_x[0], tri->vertex_x[1], tri->vertex_x[2]);
 40030a8:	e0bffe17 	ldw	r2,-8(fp)
 40030ac:	11000017 	ldw	r4,0(r2)
 40030b0:	e0bffe17 	ldw	r2,-8(fp)
 40030b4:	10c00117 	ldw	r3,4(r2)
 40030b8:	e0bffe17 	ldw	r2,-8(fp)
 40030bc:	10800217 	ldw	r2,8(r2)
 40030c0:	180b883a 	mov	r5,r3
 40030c4:	100d883a 	mov	r6,r2
 40030c8:	4002b980 	call	4002b98 <max_diff3>
 40030cc:	e0fffe17 	ldw	r3,-8(fp)
 40030d0:	18800715 	stw	r2,28(r3)
    tri->span_array = malloc(display->height * 4 * 2);
 40030d4:	e0bfff17 	ldw	r2,-4(fp)
 40030d8:	10800617 	ldw	r2,24(r2)
 40030dc:	100490fa 	slli	r2,r2,3
 40030e0:	1009883a 	mov	r4,r2
 40030e4:	400a44c0 	call	400a44c <malloc>
 40030e8:	1007883a 	mov	r3,r2
 40030ec:	e0bffe17 	ldw	r2,-8(fp)
 40030f0:	10c00d15 	stw	r3,52(r2)

    //init the span array
    for( i = tri->top_y; i <= tri->bottom_y; i++)
 40030f4:	e0bffe17 	ldw	r2,-8(fp)
 40030f8:	10800817 	ldw	r2,32(r2)
 40030fc:	e0bffd15 	stw	r2,-12(fp)
 4003100:	00001206 	br	400314c <vid_draw_triangle+0x228>
    {
      tri->span_array[i*2] = -1;
 4003104:	e0bffe17 	ldw	r2,-8(fp)
 4003108:	10c00d17 	ldw	r3,52(r2)
 400310c:	e0bffd17 	ldw	r2,-12(fp)
 4003110:	100490fa 	slli	r2,r2,3
 4003114:	1885883a 	add	r2,r3,r2
 4003118:	00ffffc4 	movi	r3,-1
 400311c:	10c00015 	stw	r3,0(r2)
      tri->span_array[(i*2) + 1] = -1;
 4003120:	e0bffe17 	ldw	r2,-8(fp)
 4003124:	10c00d17 	ldw	r3,52(r2)
 4003128:	e0bffd17 	ldw	r2,-12(fp)
 400312c:	100490fa 	slli	r2,r2,3
 4003130:	10800104 	addi	r2,r2,4
 4003134:	1885883a 	add	r2,r3,r2
 4003138:	00ffffc4 	movi	r3,-1
 400313c:	10c00015 	stw	r3,0(r2)
    tri->spans_needed = max_diff3(tri->vertex_y[0], tri->vertex_y[1], tri->vertex_y[2]);
    tri->max_span = max_diff3(tri->vertex_x[0], tri->vertex_x[1], tri->vertex_x[2]);
    tri->span_array = malloc(display->height * 4 * 2);

    //init the span array
    for( i = tri->top_y; i <= tri->bottom_y; i++)
 4003140:	e0bffd17 	ldw	r2,-12(fp)
 4003144:	10800044 	addi	r2,r2,1
 4003148:	e0bffd15 	stw	r2,-12(fp)
 400314c:	e0bffe17 	ldw	r2,-8(fp)
 4003150:	10c00917 	ldw	r3,36(r2)
 4003154:	e0bffd17 	ldw	r2,-12(fp)
 4003158:	18bfea0e 	bge	r3,r2,4003104 <__reset+0xfb002104>
      tri->span_array[i*2] = -1;
      tri->span_array[(i*2) + 1] = -1;
    }
    
    // Scan-convert the triangle  
    vid_bres_scan_edges( tri->vertex_x[0], tri->vertex_y[0], 
 400315c:	e0bffe17 	ldw	r2,-8(fp)
 4003160:	11000017 	ldw	r4,0(r2)
 4003164:	e0bffe17 	ldw	r2,-8(fp)
 4003168:	11400317 	ldw	r5,12(r2)
                         tri->vertex_x[1], tri->vertex_y[1], tri->span_array);
 400316c:	e0bffe17 	ldw	r2,-8(fp)
      tri->span_array[i*2] = -1;
      tri->span_array[(i*2) + 1] = -1;
    }
    
    // Scan-convert the triangle  
    vid_bres_scan_edges( tri->vertex_x[0], tri->vertex_y[0], 
 4003170:	10c00117 	ldw	r3,4(r2)
                         tri->vertex_x[1], tri->vertex_y[1], tri->span_array);
 4003174:	e0bffe17 	ldw	r2,-8(fp)
      tri->span_array[i*2] = -1;
      tri->span_array[(i*2) + 1] = -1;
    }
    
    // Scan-convert the triangle  
    vid_bres_scan_edges( tri->vertex_x[0], tri->vertex_y[0], 
 4003178:	10800417 	ldw	r2,16(r2)
                         tri->vertex_x[1], tri->vertex_y[1], tri->span_array);
 400317c:	e1bffe17 	ldw	r6,-8(fp)
      tri->span_array[i*2] = -1;
      tri->span_array[(i*2) + 1] = -1;
    }
    
    // Scan-convert the triangle  
    vid_bres_scan_edges( tri->vertex_x[0], tri->vertex_y[0], 
 4003180:	31800d17 	ldw	r6,52(r6)
 4003184:	d9800015 	stw	r6,0(sp)
 4003188:	180d883a 	mov	r6,r3
 400318c:	100f883a 	mov	r7,r2
 4003190:	4002cec0 	call	4002cec <vid_bres_scan_edges>
                         tri->vertex_x[1], tri->vertex_y[1], tri->span_array);
    vid_bres_scan_edges( tri->vertex_x[1], tri->vertex_y[1], 
 4003194:	e0bffe17 	ldw	r2,-8(fp)
 4003198:	11000117 	ldw	r4,4(r2)
 400319c:	e0bffe17 	ldw	r2,-8(fp)
 40031a0:	11400417 	ldw	r5,16(r2)
                         tri->vertex_x[2], tri->vertex_y[2], tri->span_array);
 40031a4:	e0bffe17 	ldw	r2,-8(fp)
    }
    
    // Scan-convert the triangle  
    vid_bres_scan_edges( tri->vertex_x[0], tri->vertex_y[0], 
                         tri->vertex_x[1], tri->vertex_y[1], tri->span_array);
    vid_bres_scan_edges( tri->vertex_x[1], tri->vertex_y[1], 
 40031a8:	10c00217 	ldw	r3,8(r2)
                         tri->vertex_x[2], tri->vertex_y[2], tri->span_array);
 40031ac:	e0bffe17 	ldw	r2,-8(fp)
    }
    
    // Scan-convert the triangle  
    vid_bres_scan_edges( tri->vertex_x[0], tri->vertex_y[0], 
                         tri->vertex_x[1], tri->vertex_y[1], tri->span_array);
    vid_bres_scan_edges( tri->vertex_x[1], tri->vertex_y[1], 
 40031b0:	10800517 	ldw	r2,20(r2)
                         tri->vertex_x[2], tri->vertex_y[2], tri->span_array);
 40031b4:	e1bffe17 	ldw	r6,-8(fp)
    }
    
    // Scan-convert the triangle  
    vid_bres_scan_edges( tri->vertex_x[0], tri->vertex_y[0], 
                         tri->vertex_x[1], tri->vertex_y[1], tri->span_array);
    vid_bres_scan_edges( tri->vertex_x[1], tri->vertex_y[1], 
 40031b8:	31800d17 	ldw	r6,52(r6)
 40031bc:	d9800015 	stw	r6,0(sp)
 40031c0:	180d883a 	mov	r6,r3
 40031c4:	100f883a 	mov	r7,r2
 40031c8:	4002cec0 	call	4002cec <vid_bres_scan_edges>
                         tri->vertex_x[2], tri->vertex_y[2], tri->span_array);
    vid_bres_scan_edges( tri->vertex_x[2], tri->vertex_y[2], 
 40031cc:	e0bffe17 	ldw	r2,-8(fp)
 40031d0:	11000217 	ldw	r4,8(r2)
 40031d4:	e0bffe17 	ldw	r2,-8(fp)
 40031d8:	11400517 	ldw	r5,20(r2)
                         tri->vertex_x[0], tri->vertex_y[0], tri->span_array);
 40031dc:	e0bffe17 	ldw	r2,-8(fp)
    // Scan-convert the triangle  
    vid_bres_scan_edges( tri->vertex_x[0], tri->vertex_y[0], 
                         tri->vertex_x[1], tri->vertex_y[1], tri->span_array);
    vid_bres_scan_edges( tri->vertex_x[1], tri->vertex_y[1], 
                         tri->vertex_x[2], tri->vertex_y[2], tri->span_array);
    vid_bres_scan_edges( tri->vertex_x[2], tri->vertex_y[2], 
 40031e0:	10c00017 	ldw	r3,0(r2)
                         tri->vertex_x[0], tri->vertex_y[0], tri->span_array);
 40031e4:	e0bffe17 	ldw	r2,-8(fp)
    // Scan-convert the triangle  
    vid_bres_scan_edges( tri->vertex_x[0], tri->vertex_y[0], 
                         tri->vertex_x[1], tri->vertex_y[1], tri->span_array);
    vid_bres_scan_edges( tri->vertex_x[1], tri->vertex_y[1], 
                         tri->vertex_x[2], tri->vertex_y[2], tri->span_array);
    vid_bres_scan_edges( tri->vertex_x[2], tri->vertex_y[2], 
 40031e8:	10800317 	ldw	r2,12(r2)
                         tri->vertex_x[0], tri->vertex_y[0], tri->span_array);
 40031ec:	e1bffe17 	ldw	r6,-8(fp)
    // Scan-convert the triangle  
    vid_bres_scan_edges( tri->vertex_x[0], tri->vertex_y[0], 
                         tri->vertex_x[1], tri->vertex_y[1], tri->span_array);
    vid_bres_scan_edges( tri->vertex_x[1], tri->vertex_y[1], 
                         tri->vertex_x[2], tri->vertex_y[2], tri->span_array);
    vid_bres_scan_edges( tri->vertex_x[2], tri->vertex_y[2], 
 40031f0:	31800d17 	ldw	r6,52(r6)
 40031f4:	d9800015 	stw	r6,0(sp)
 40031f8:	180d883a 	mov	r6,r3
 40031fc:	100f883a 	mov	r7,r2
 4003200:	4002cec0 	call	4002cec <vid_bres_scan_edges>
                         tri->vertex_x[0], tri->vertex_y[0], tri->span_array);
  
    // Render the polygon
    for( i = tri->top_y; i <= tri->bottom_y; i++ )
 4003204:	e0bffe17 	ldw	r2,-8(fp)
 4003208:	10800817 	ldw	r2,32(r2)
 400320c:	e0bffd15 	stw	r2,-12(fp)
 4003210:	00001c06 	br	4003284 <vid_draw_triangle+0x360>
    {
//      vid_draw_horiz_line (tri->span_array[i*2], tri->span_array[(i*2)+1], i, tri->col, display);
      vid_draw_line (tri->span_array[i*2], i, tri->span_array[(i*2)+1], i, 1, tri->col, display);
 4003214:	e0bffe17 	ldw	r2,-8(fp)
 4003218:	10c00d17 	ldw	r3,52(r2)
 400321c:	e0bffd17 	ldw	r2,-12(fp)
 4003220:	100490fa 	slli	r2,r2,3
 4003224:	1885883a 	add	r2,r3,r2
 4003228:	10c00017 	ldw	r3,0(r2)
 400322c:	e0bffe17 	ldw	r2,-8(fp)
 4003230:	11000d17 	ldw	r4,52(r2)
 4003234:	e0bffd17 	ldw	r2,-12(fp)
 4003238:	100490fa 	slli	r2,r2,3
 400323c:	10800104 	addi	r2,r2,4
 4003240:	2085883a 	add	r2,r4,r2
 4003244:	10800017 	ldw	r2,0(r2)
 4003248:	e13ffe17 	ldw	r4,-8(fp)
 400324c:	21000a17 	ldw	r4,40(r4)
 4003250:	01400044 	movi	r5,1
 4003254:	d9400015 	stw	r5,0(sp)
 4003258:	d9000115 	stw	r4,4(sp)
 400325c:	e13fff17 	ldw	r4,-4(fp)
 4003260:	d9000215 	stw	r4,8(sp)
 4003264:	1809883a 	mov	r4,r3
 4003268:	e17ffd17 	ldw	r5,-12(fp)
 400326c:	100d883a 	mov	r6,r2
 4003270:	e1fffd17 	ldw	r7,-12(fp)
 4003274:	40006600 	call	4000660 <vid_draw_line>
                         tri->vertex_x[2], tri->vertex_y[2], tri->span_array);
    vid_bres_scan_edges( tri->vertex_x[2], tri->vertex_y[2], 
                         tri->vertex_x[0], tri->vertex_y[0], tri->span_array);
  
    // Render the polygon
    for( i = tri->top_y; i <= tri->bottom_y; i++ )
 4003278:	e0bffd17 	ldw	r2,-12(fp)
 400327c:	10800044 	addi	r2,r2,1
 4003280:	e0bffd15 	stw	r2,-12(fp)
 4003284:	e0bffe17 	ldw	r2,-8(fp)
 4003288:	10c00917 	ldw	r3,36(r2)
 400328c:	e0bffd17 	ldw	r2,-12(fp)
 4003290:	18bfe00e 	bge	r3,r2,4003214 <__reset+0xfb002214>
    {
//      vid_draw_horiz_line (tri->span_array[i*2], tri->span_array[(i*2)+1], i, tri->col, display);
      vid_draw_line (tri->span_array[i*2], i, tri->span_array[(i*2)+1], i, 1, tri->col, display);

    }
    free(tri->span_array);
 4003294:	e0bffe17 	ldw	r2,-8(fp)
 4003298:	10800d17 	ldw	r2,52(r2)
 400329c:	1009883a 	mov	r4,r2
 40032a0:	400a4600 	call	400a460 <free>
  }
}
 40032a4:	e037883a 	mov	sp,fp
 40032a8:	dfc00117 	ldw	ra,4(sp)
 40032ac:	df000017 	ldw	fp,0(sp)
 40032b0:	dec00204 	addi	sp,sp,8
 40032b4:	f800283a 	ret

040032b8 <CopyImage16>:

void CopyImage16( short * __restrict__ source_buffer, 
                  short * __restrict__ dest_buffer, 
                  short source_width, short source_height,
                  short dest_width, short dest_height )
{
 40032b8:	defff404 	addi	sp,sp,-48
 40032bc:	dfc00b15 	stw	ra,44(sp)
 40032c0:	df000a15 	stw	fp,40(sp)
 40032c4:	df000a04 	addi	fp,sp,40
 40032c8:	e13ffa15 	stw	r4,-24(fp)
 40032cc:	e17ffb15 	stw	r5,-20(fp)
 40032d0:	3007883a 	mov	r3,r6
 40032d4:	3805883a 	mov	r2,r7
 40032d8:	e1400217 	ldw	r5,8(fp)
 40032dc:	e1000317 	ldw	r4,12(fp)
 40032e0:	e0fffc0d 	sth	r3,-16(fp)
 40032e4:	e0bffd0d 	sth	r2,-12(fp)
 40032e8:	e17ffe0d 	sth	r5,-8(fp)
 40032ec:	e13fff0d 	sth	r4,-4(fp)
  int y_src, y_dst;
  int y_src_offset = 0;
 40032f0:	e03ff815 	stw	zero,-32(fp)
  int y_dst_offset = 0;
 40032f4:	e03ff915 	stw	zero,-28(fp)
  
  for( y_src = 0, y_dst = 0; 
 40032f8:	e03ff615 	stw	zero,-40(fp)
 40032fc:	e03ff715 	stw	zero,-36(fp)
 4003300:	00001b06 	br	4003370 <CopyImage16+0xb8>
       y_src <= ( source_height  - 1 ); 
       y_src++, y_dst++, y_src_offset += source_width, y_dst_offset += dest_width )
  {
    memcpy(( dest_buffer + y_dst_offset ), 
 4003304:	e0bff917 	ldw	r2,-28(fp)
 4003308:	1085883a 	add	r2,r2,r2
 400330c:	e0fffb17 	ldw	r3,-20(fp)
 4003310:	1889883a 	add	r4,r3,r2
 4003314:	e0bff817 	ldw	r2,-32(fp)
           ( source_buffer + y_src_offset ), 
 4003318:	1085883a 	add	r2,r2,r2
  
  for( y_src = 0, y_dst = 0; 
       y_src <= ( source_height  - 1 ); 
       y_src++, y_dst++, y_src_offset += source_width, y_dst_offset += dest_width )
  {
    memcpy(( dest_buffer + y_dst_offset ), 
 400331c:	e0fffa17 	ldw	r3,-24(fp)
 4003320:	1887883a 	add	r3,r3,r2
           ( source_buffer + y_src_offset ), 
           ( source_width << 1 ));
 4003324:	e0bffc0f 	ldh	r2,-16(fp)
 4003328:	1085883a 	add	r2,r2,r2
  
  for( y_src = 0, y_dst = 0; 
       y_src <= ( source_height  - 1 ); 
       y_src++, y_dst++, y_src_offset += source_width, y_dst_offset += dest_width )
  {
    memcpy(( dest_buffer + y_dst_offset ), 
 400332c:	180b883a 	mov	r5,r3
 4003330:	100d883a 	mov	r6,r2
 4003334:	400abf80 	call	400abf8 <memcpy>
  int y_src_offset = 0;
  int y_dst_offset = 0;
  
  for( y_src = 0, y_dst = 0; 
       y_src <= ( source_height  - 1 ); 
       y_src++, y_dst++, y_src_offset += source_width, y_dst_offset += dest_width )
 4003338:	e0bff617 	ldw	r2,-40(fp)
 400333c:	10800044 	addi	r2,r2,1
 4003340:	e0bff615 	stw	r2,-40(fp)
 4003344:	e0bff717 	ldw	r2,-36(fp)
 4003348:	10800044 	addi	r2,r2,1
 400334c:	e0bff715 	stw	r2,-36(fp)
 4003350:	e0bffc0f 	ldh	r2,-16(fp)
 4003354:	e0fff817 	ldw	r3,-32(fp)
 4003358:	1885883a 	add	r2,r3,r2
 400335c:	e0bff815 	stw	r2,-32(fp)
 4003360:	e0bffe0f 	ldh	r2,-8(fp)
 4003364:	e0fff917 	ldw	r3,-28(fp)
 4003368:	1885883a 	add	r2,r3,r2
 400336c:	e0bff915 	stw	r2,-28(fp)
  int y_src, y_dst;
  int y_src_offset = 0;
  int y_dst_offset = 0;
  
  for( y_src = 0, y_dst = 0; 
       y_src <= ( source_height  - 1 ); 
 4003370:	e0bffd0f 	ldh	r2,-12(fp)
 4003374:	10ffffc4 	addi	r3,r2,-1
{
  int y_src, y_dst;
  int y_src_offset = 0;
  int y_dst_offset = 0;
  
  for( y_src = 0, y_dst = 0; 
 4003378:	e0bff617 	ldw	r2,-40(fp)
 400337c:	18bfe10e 	bge	r3,r2,4003304 <__reset+0xfb002304>
  {
    memcpy(( dest_buffer + y_dst_offset ), 
           ( source_buffer + y_src_offset ), 
           ( source_width << 1 ));
  }
}
 4003380:	e037883a 	mov	sp,fp
 4003384:	dfc00117 	ldw	ra,4(sp)
 4003388:	df000017 	ldw	fp,0(sp)
 400338c:	dec00204 	addi	sp,sp,8
 4003390:	f800283a 	ret

04003394 <CropImage16>:
                  short * __restrict__ dest_buffer, 
                  short source_width, short source_height,
                  short crop_left, short crop_right,
                  short crop_top, short crop_bottom,
                  short dest_width, short dest_height )
{
 4003394:	defff004 	addi	sp,sp,-64
 4003398:	dfc00f15 	stw	ra,60(sp)
 400339c:	df000e15 	stw	fp,56(sp)
 40033a0:	df000e04 	addi	fp,sp,56
 40033a4:	e13ff615 	stw	r4,-40(fp)
 40033a8:	e17ff715 	stw	r5,-36(fp)
 40033ac:	3007883a 	mov	r3,r6
 40033b0:	3805883a 	mov	r2,r7
 40033b4:	e2400217 	ldw	r9,8(fp)
 40033b8:	e2000317 	ldw	r8,12(fp)
 40033bc:	e1c00417 	ldw	r7,16(fp)
 40033c0:	e1800517 	ldw	r6,20(fp)
 40033c4:	e1400617 	ldw	r5,24(fp)
 40033c8:	e1000717 	ldw	r4,28(fp)
 40033cc:	e0fff80d 	sth	r3,-32(fp)
 40033d0:	e0bff90d 	sth	r2,-28(fp)
 40033d4:	e27ffa0d 	sth	r9,-24(fp)
 40033d8:	e23ffb0d 	sth	r8,-20(fp)
 40033dc:	e1fffc0d 	sth	r7,-16(fp)
 40033e0:	e1bffd0d 	sth	r6,-12(fp)
 40033e4:	e17ffe0d 	sth	r5,-8(fp)
 40033e8:	e13fff0d 	sth	r4,-4(fp)
  int y_src, y_dst;
  int y_src_offset = (source_width * crop_top);
 40033ec:	e0fff80f 	ldh	r3,-32(fp)
 40033f0:	e0bffc0f 	ldh	r2,-16(fp)
 40033f4:	1809883a 	mov	r4,r3
 40033f8:	100b883a 	mov	r5,r2
 40033fc:	4009dd80 	call	4009dd8 <__mulsi3>
 4003400:	e0bff415 	stw	r2,-48(fp)
  int y_dst_offset = 0;
 4003404:	e03ff515 	stw	zero,-44(fp)
  
  for( y_src = crop_top, y_dst = 0; 
 4003408:	e0bffc0f 	ldh	r2,-16(fp)
 400340c:	e0bff215 	stw	r2,-56(fp)
 4003410:	e03ff315 	stw	zero,-52(fp)
 4003414:	00002106 	br	400349c <CropImage16+0x108>
       y_src <= ( source_height - crop_bottom - 1 ); 
       y_src++, y_dst++, y_src_offset += source_width, y_dst_offset += dest_width )
  {
    memcpy(( dest_buffer + y_dst_offset ), 
 4003418:	e0bff517 	ldw	r2,-44(fp)
 400341c:	1085883a 	add	r2,r2,r2
 4003420:	e0fff717 	ldw	r3,-36(fp)
 4003424:	1889883a 	add	r4,r3,r2
           ( source_buffer + y_src_offset + crop_left ), 
 4003428:	e0fffa0f 	ldh	r3,-24(fp)
 400342c:	e0bff417 	ldw	r2,-48(fp)
 4003430:	1885883a 	add	r2,r3,r2
 4003434:	1085883a 	add	r2,r2,r2
 4003438:	e0fff617 	ldw	r3,-40(fp)
 400343c:	1887883a 	add	r3,r3,r2
           ((source_width - crop_left - crop_right) << 1));
 4003440:	e17ff80f 	ldh	r5,-32(fp)
 4003444:	e0bffa0f 	ldh	r2,-24(fp)
 4003448:	288bc83a 	sub	r5,r5,r2
 400344c:	e0bffb0f 	ldh	r2,-20(fp)
 4003450:	2885c83a 	sub	r2,r5,r2
 4003454:	1085883a 	add	r2,r2,r2
  
  for( y_src = crop_top, y_dst = 0; 
       y_src <= ( source_height - crop_bottom - 1 ); 
       y_src++, y_dst++, y_src_offset += source_width, y_dst_offset += dest_width )
  {
    memcpy(( dest_buffer + y_dst_offset ), 
 4003458:	180b883a 	mov	r5,r3
 400345c:	100d883a 	mov	r6,r2
 4003460:	400abf80 	call	400abf8 <memcpy>
  int y_src_offset = (source_width * crop_top);
  int y_dst_offset = 0;
  
  for( y_src = crop_top, y_dst = 0; 
       y_src <= ( source_height - crop_bottom - 1 ); 
       y_src++, y_dst++, y_src_offset += source_width, y_dst_offset += dest_width )
 4003464:	e0bff217 	ldw	r2,-56(fp)
 4003468:	10800044 	addi	r2,r2,1
 400346c:	e0bff215 	stw	r2,-56(fp)
 4003470:	e0bff317 	ldw	r2,-52(fp)
 4003474:	10800044 	addi	r2,r2,1
 4003478:	e0bff315 	stw	r2,-52(fp)
 400347c:	e0bff80f 	ldh	r2,-32(fp)
 4003480:	e0fff417 	ldw	r3,-48(fp)
 4003484:	1885883a 	add	r2,r3,r2
 4003488:	e0bff415 	stw	r2,-48(fp)
 400348c:	e0bffe0f 	ldh	r2,-8(fp)
 4003490:	e0fff517 	ldw	r3,-44(fp)
 4003494:	1885883a 	add	r2,r3,r2
 4003498:	e0bff515 	stw	r2,-44(fp)
  int y_src, y_dst;
  int y_src_offset = (source_width * crop_top);
  int y_dst_offset = 0;
  
  for( y_src = crop_top, y_dst = 0; 
       y_src <= ( source_height - crop_bottom - 1 ); 
 400349c:	e0fff90f 	ldh	r3,-28(fp)
 40034a0:	e0bffd0f 	ldh	r2,-12(fp)
 40034a4:	1885c83a 	sub	r2,r3,r2
 40034a8:	10ffffc4 	addi	r3,r2,-1
{
  int y_src, y_dst;
  int y_src_offset = (source_width * crop_top);
  int y_dst_offset = 0;
  
  for( y_src = crop_top, y_dst = 0; 
 40034ac:	e0bff217 	ldw	r2,-56(fp)
 40034b0:	18bfd90e 	bge	r3,r2,4003418 <__reset+0xfb002418>
  {
    memcpy(( dest_buffer + y_dst_offset ), 
           ( source_buffer + y_src_offset + crop_left ), 
           ((source_width - crop_left - crop_right) << 1));
  }
}
 40034b4:	e037883a 	mov	sp,fp
 40034b8:	dfc00117 	ldw	ra,4(sp)
 40034bc:	df000017 	ldw	fp,0(sp)
 40034c0:	dec00204 	addi	sp,sp,8
 40034c4:	f800283a 	ret

040034c8 <vid_print_string_alpha>:
*           24 bit - R(8):G(8):B(8)  (packed)
*           32 bit - 0 : R(8):G(8):B(8) (unpacked)
******************************************************************/

int vid_print_string_alpha(int horiz_offset, int vert_offset, int color, int background_color, struct abc_font_struct font[], alt_video_display * display, char string[])
{
 40034c8:	defff404 	addi	sp,sp,-48
 40034cc:	dfc00b15 	stw	ra,44(sp)
 40034d0:	df000a15 	stw	fp,40(sp)
 40034d4:	df000a04 	addi	fp,sp,40
 40034d8:	e13ffc15 	stw	r4,-16(fp)
 40034dc:	e17ffd15 	stw	r5,-12(fp)
 40034e0:	e1bffe15 	stw	r6,-8(fp)
 40034e4:	e1ffff15 	stw	r7,-4(fp)
  int i = 0;
 40034e8:	e03ff915 	stw	zero,-28(fp)
  int tab;
  int original_horiz_offset;

  original_horiz_offset = horiz_offset;
 40034ec:	e0bffc17 	ldw	r2,-16(fp)
 40034f0:	e0bffb15 	stw	r2,-20(fp)

  // Print until we hit the '\0' char.
  while (string[i]) {
 40034f4:	00007d06 	br	40036ec <vid_print_string_alpha+0x224>
    //Handle newline char here.
    if (string[i] == '\n') {
 40034f8:	e0bff917 	ldw	r2,-28(fp)
 40034fc:	e0c00417 	ldw	r3,16(fp)
 4003500:	1885883a 	add	r2,r3,r2
 4003504:	10800003 	ldbu	r2,0(r2)
 4003508:	10803fcc 	andi	r2,r2,255
 400350c:	1080201c 	xori	r2,r2,128
 4003510:	10bfe004 	addi	r2,r2,-128
 4003514:	10800298 	cmpnei	r2,r2,10
 4003518:	10000c1e 	bne	r2,zero,400354c <vid_print_string_alpha+0x84>
      horiz_offset = original_horiz_offset;
 400351c:	e0bffb17 	ldw	r2,-20(fp)
 4003520:	e0bffc15 	stw	r2,-16(fp)
      vert_offset += font['|' - 33].bounds_height;  // we'll use "|" to add the line to line spacing
 4003524:	e0800217 	ldw	r2,8(fp)
 4003528:	1082d804 	addi	r2,r2,2912
 400352c:	10c00517 	ldw	r3,20(r2)
 4003530:	e0bffd17 	ldw	r2,-12(fp)
 4003534:	1885883a 	add	r2,r3,r2
 4003538:	e0bffd15 	stw	r2,-12(fp)
      i++;
 400353c:	e0bff917 	ldw	r2,-28(fp)
 4003540:	10800044 	addi	r2,r2,1
 4003544:	e0bff915 	stw	r2,-28(fp)
      continue;
 4003548:	00006806 	br	40036ec <vid_print_string_alpha+0x224>
    }
    // Lay down that character and increment our offsets.
    if(string[i] == 32)  // this is a space in ASCII
 400354c:	e0bff917 	ldw	r2,-28(fp)
 4003550:	e0c00417 	ldw	r3,16(fp)
 4003554:	1885883a 	add	r2,r3,r2
 4003558:	10800003 	ldbu	r2,0(r2)
 400355c:	10803fcc 	andi	r2,r2,255
 4003560:	1080201c 	xori	r2,r2,128
 4003564:	10bfe004 	addi	r2,r2,-128
 4003568:	10800818 	cmpnei	r2,r2,32
 400356c:	1000151e 	bne	r2,zero,40035c4 <vid_print_string_alpha+0xfc>
    {
      if(background_color != CLEAR_BACKGROUND)  // need to fill in this spot (setting foreground to background color so that it looks like a drawn in box)
 4003570:	e0bfff17 	ldw	r2,-4(fp)
 4003574:	10bfffe0 	cmpeqi	r2,r2,-1
 4003578:	10000b1e 	bne	r2,zero,40035a8 <vid_print_string_alpha+0xe0>
      {
        vid_print_char_alpha (horiz_offset, vert_offset, background_color, '-', background_color, font, display);
 400357c:	e0bfff17 	ldw	r2,-4(fp)
 4003580:	d8800015 	stw	r2,0(sp)
 4003584:	e0800217 	ldw	r2,8(fp)
 4003588:	d8800115 	stw	r2,4(sp)
 400358c:	e0800317 	ldw	r2,12(fp)
 4003590:	d8800215 	stw	r2,8(sp)
 4003594:	e13ffc17 	ldw	r4,-16(fp)
 4003598:	e17ffd17 	ldw	r5,-12(fp)
 400359c:	e1bfff17 	ldw	r6,-4(fp)
 40035a0:	01c00b44 	movi	r7,45
 40035a4:	4003ea40 	call	4003ea4 <vid_print_char_alpha>
      }
      horiz_offset += font[45 - 33].bounds_width;  // using the width of the '-' character for the space width since it's not present in the font
 40035a8:	e0800217 	ldw	r2,8(fp)
 40035ac:	10806004 	addi	r2,r2,384
 40035b0:	10c00417 	ldw	r3,16(r2)
 40035b4:	e0bffc17 	ldw	r2,-16(fp)
 40035b8:	1885883a 	add	r2,r3,r2
 40035bc:	e0bffc15 	stw	r2,-16(fp)
 40035c0:	00004706 	br	40036e0 <vid_print_string_alpha+0x218>
    }
    else if(string[i] == '\t')  // this is a tab
 40035c4:	e0bff917 	ldw	r2,-28(fp)
 40035c8:	e0c00417 	ldw	r3,16(fp)
 40035cc:	1885883a 	add	r2,r3,r2
 40035d0:	10800003 	ldbu	r2,0(r2)
 40035d4:	10803fcc 	andi	r2,r2,255
 40035d8:	1080201c 	xori	r2,r2,128
 40035dc:	10bfe004 	addi	r2,r2,-128
 40035e0:	10800258 	cmpnei	r2,r2,9
 40035e4:	10001d1e 	bne	r2,zero,400365c <vid_print_string_alpha+0x194>
    {
      for( tab = 0; tab < TAB_SPACING; tab++ )
 40035e8:	e03ffa15 	stw	zero,-24(fp)
 40035ec:	00001706 	br	400364c <vid_print_string_alpha+0x184>
      {
        if(background_color != CLEAR_BACKGROUND)  // need to fill in this spot (setting foreground to background color so that it looks like a drawn in box)
 40035f0:	e0bfff17 	ldw	r2,-4(fp)
 40035f4:	10bfffe0 	cmpeqi	r2,r2,-1
 40035f8:	10000b1e 	bne	r2,zero,4003628 <vid_print_string_alpha+0x160>
        {
          vid_print_char_alpha (horiz_offset, vert_offset, background_color, '-', background_color, font, display);
 40035fc:	e0bfff17 	ldw	r2,-4(fp)
 4003600:	d8800015 	stw	r2,0(sp)
 4003604:	e0800217 	ldw	r2,8(fp)
 4003608:	d8800115 	stw	r2,4(sp)
 400360c:	e0800317 	ldw	r2,12(fp)
 4003610:	d8800215 	stw	r2,8(sp)
 4003614:	e13ffc17 	ldw	r4,-16(fp)
 4003618:	e17ffd17 	ldw	r5,-12(fp)
 400361c:	e1bfff17 	ldw	r6,-4(fp)
 4003620:	01c00b44 	movi	r7,45
 4003624:	4003ea40 	call	4003ea4 <vid_print_char_alpha>
        }
        horiz_offset += font[45 - 33].bounds_width;  // using the width of the '-' character for the space width since it's not present in the font
 4003628:	e0800217 	ldw	r2,8(fp)
 400362c:	10806004 	addi	r2,r2,384
 4003630:	10c00417 	ldw	r3,16(r2)
 4003634:	e0bffc17 	ldw	r2,-16(fp)
 4003638:	1885883a 	add	r2,r3,r2
 400363c:	e0bffc15 	stw	r2,-16(fp)
      }
      horiz_offset += font[45 - 33].bounds_width;  // using the width of the '-' character for the space width since it's not present in the font
    }
    else if(string[i] == '\t')  // this is a tab
    {
      for( tab = 0; tab < TAB_SPACING; tab++ )
 4003640:	e0bffa17 	ldw	r2,-24(fp)
 4003644:	10800044 	addi	r2,r2,1
 4003648:	e0bffa15 	stw	r2,-24(fp)
 400364c:	e0bffa17 	ldw	r2,-24(fp)
 4003650:	10800090 	cmplti	r2,r2,2
 4003654:	103fe61e 	bne	r2,zero,40035f0 <__reset+0xfb0025f0>
 4003658:	00002106 	br	40036e0 <vid_print_string_alpha+0x218>
        horiz_offset += font[45 - 33].bounds_width;  // using the width of the '-' character for the space width since it's not present in the font
      }
    }
    else
    {
      vid_print_char_alpha (horiz_offset, vert_offset, color, string[i], background_color, font, display);
 400365c:	e0bff917 	ldw	r2,-28(fp)
 4003660:	e0c00417 	ldw	r3,16(fp)
 4003664:	1885883a 	add	r2,r3,r2
 4003668:	10800003 	ldbu	r2,0(r2)
 400366c:	10803fcc 	andi	r2,r2,255
 4003670:	1080201c 	xori	r2,r2,128
 4003674:	10bfe004 	addi	r2,r2,-128
 4003678:	e0ffff17 	ldw	r3,-4(fp)
 400367c:	d8c00015 	stw	r3,0(sp)
 4003680:	e0c00217 	ldw	r3,8(fp)
 4003684:	d8c00115 	stw	r3,4(sp)
 4003688:	e0c00317 	ldw	r3,12(fp)
 400368c:	d8c00215 	stw	r3,8(sp)
 4003690:	e13ffc17 	ldw	r4,-16(fp)
 4003694:	e17ffd17 	ldw	r5,-12(fp)
 4003698:	e1bffe17 	ldw	r6,-8(fp)
 400369c:	100f883a 	mov	r7,r2
 40036a0:	4003ea40 	call	4003ea4 <vid_print_char_alpha>
      horiz_offset += font[string[i] - 33].bounds_width;
 40036a4:	e0bff917 	ldw	r2,-28(fp)
 40036a8:	e0c00417 	ldw	r3,16(fp)
 40036ac:	1885883a 	add	r2,r3,r2
 40036b0:	10800003 	ldbu	r2,0(r2)
 40036b4:	10803fcc 	andi	r2,r2,255
 40036b8:	1080201c 	xori	r2,r2,128
 40036bc:	10bfe004 	addi	r2,r2,-128
 40036c0:	10bff7c4 	addi	r2,r2,-33
 40036c4:	1004917a 	slli	r2,r2,5
 40036c8:	e0c00217 	ldw	r3,8(fp)
 40036cc:	1885883a 	add	r2,r3,r2
 40036d0:	10c00417 	ldw	r3,16(r2)
 40036d4:	e0bffc17 	ldw	r2,-16(fp)
 40036d8:	1885883a 	add	r2,r3,r2
 40036dc:	e0bffc15 	stw	r2,-16(fp)
    }
    i++;
 40036e0:	e0bff917 	ldw	r2,-28(fp)
 40036e4:	10800044 	addi	r2,r2,1
 40036e8:	e0bff915 	stw	r2,-28(fp)
  int original_horiz_offset;

  original_horiz_offset = horiz_offset;

  // Print until we hit the '\0' char.
  while (string[i]) {
 40036ec:	e0bff917 	ldw	r2,-28(fp)
 40036f0:	e0c00417 	ldw	r3,16(fp)
 40036f4:	1885883a 	add	r2,r3,r2
 40036f8:	10800003 	ldbu	r2,0(r2)
 40036fc:	10803fcc 	andi	r2,r2,255
 4003700:	1080201c 	xori	r2,r2,128
 4003704:	10bfe004 	addi	r2,r2,-128
 4003708:	103f7b1e 	bne	r2,zero,40034f8 <__reset+0xfb0024f8>
      vid_print_char_alpha (horiz_offset, vert_offset, color, string[i], background_color, font, display);
      horiz_offset += font[string[i] - 33].bounds_width;
    }
    i++;
  }
  return (0);
 400370c:	0005883a 	mov	r2,zero
}
 4003710:	e037883a 	mov	sp,fp
 4003714:	dfc00117 	ldw	ra,4(sp)
 4003718:	df000017 	ldw	fp,0(sp)
 400371c:	dec00204 	addi	sp,sp,8
 4003720:	f800283a 	ret

04003724 <seperate_color_channels>:
*           the function working on pointers.
*
******************************************************************/

__inline__ int seperate_color_channels(int color_depth, unsigned char * color, unsigned char * red, unsigned char * green, unsigned char * blue)
{
 4003724:	defff904 	addi	sp,sp,-28
 4003728:	df000615 	stw	fp,24(sp)
 400372c:	df000604 	addi	fp,sp,24
 4003730:	e13ffc15 	stw	r4,-16(fp)
 4003734:	e17ffd15 	stw	r5,-12(fp)
 4003738:	e1bffe15 	stw	r6,-8(fp)
 400373c:	e1ffff15 	stw	r7,-4(fp)
  int return_value;  // error checking in case anyone is listening
  unsigned short temp_color = 0;
 4003740:	e03ffb0d 	sth	zero,-20(fp)
  
  if (color_depth == 16)  // R(5):G(6):B(5)
 4003744:	e0bffc17 	ldw	r2,-16(fp)
 4003748:	10800418 	cmpnei	r2,r2,16
 400374c:	1000231e 	bne	r2,zero,40037dc <seperate_color_channels+0xb8>
  {
    temp_color = *color++;        // get the first half of the 16 bit color
 4003750:	e0bffd17 	ldw	r2,-12(fp)
 4003754:	10800003 	ldbu	r2,0(r2)
 4003758:	10803fcc 	andi	r2,r2,255
 400375c:	e0bffb0d 	sth	r2,-20(fp)
 4003760:	e0bffd17 	ldw	r2,-12(fp)
 4003764:	10800044 	addi	r2,r2,1
 4003768:	e0bffd15 	stw	r2,-12(fp)
    temp_color += (*color << 8);  // get the second half of the 16 bit color
 400376c:	e0bffd17 	ldw	r2,-12(fp)
 4003770:	10800003 	ldbu	r2,0(r2)
 4003774:	10803fcc 	andi	r2,r2,255
 4003778:	1004923a 	slli	r2,r2,8
 400377c:	1007883a 	mov	r3,r2
 4003780:	e0bffb0b 	ldhu	r2,-20(fp)
 4003784:	1885883a 	add	r2,r3,r2
 4003788:	e0bffb0d 	sth	r2,-20(fp)
    *blue = temp_color & 0x1F; 
 400378c:	e0bffb0b 	ldhu	r2,-20(fp)
 4003790:	108007cc 	andi	r2,r2,31
 4003794:	1007883a 	mov	r3,r2
 4003798:	e0800117 	ldw	r2,4(fp)
 400379c:	10c00005 	stb	r3,0(r2)
    *green = (temp_color >> 5) & 0x3F;
 40037a0:	e0bffb0b 	ldhu	r2,-20(fp)
 40037a4:	1004d17a 	srli	r2,r2,5
 40037a8:	10800fcc 	andi	r2,r2,63
 40037ac:	1007883a 	mov	r3,r2
 40037b0:	e0bfff17 	ldw	r2,-4(fp)
 40037b4:	10c00005 	stb	r3,0(r2)
    *red = (temp_color >> 11) & 0x1F;
 40037b8:	e0bffb0b 	ldhu	r2,-20(fp)
 40037bc:	1004d2fa 	srli	r2,r2,11
 40037c0:	108007cc 	andi	r2,r2,31
 40037c4:	1007883a 	mov	r3,r2
 40037c8:	e0bffe17 	ldw	r2,-8(fp)
 40037cc:	10c00005 	stb	r3,0(r2)
    return_value = 1;
 40037d0:	00800044 	movi	r2,1
 40037d4:	e0bffa15 	stw	r2,-24(fp)
 40037d8:	00002206 	br	4003864 <seperate_color_channels+0x140>
  }
  else if ((color_depth == 24) || (color_depth == 32))  // R(8):G(8):B(8) packed/unpacked
 40037dc:	e0bffc17 	ldw	r2,-16(fp)
 40037e0:	10800620 	cmpeqi	r2,r2,24
 40037e4:	1000031e 	bne	r2,zero,40037f4 <seperate_color_channels+0xd0>
 40037e8:	e0bffc17 	ldw	r2,-16(fp)
 40037ec:	10800818 	cmpnei	r2,r2,32
 40037f0:	1000151e 	bne	r2,zero,4003848 <seperate_color_channels+0x124>
  {
    *blue = *color++;
 40037f4:	e0bffd17 	ldw	r2,-12(fp)
 40037f8:	10c00003 	ldbu	r3,0(r2)
 40037fc:	e0800117 	ldw	r2,4(fp)
 4003800:	10c00005 	stb	r3,0(r2)
 4003804:	e0bffd17 	ldw	r2,-12(fp)
 4003808:	10800044 	addi	r2,r2,1
 400380c:	e0bffd15 	stw	r2,-12(fp)
    *green = *color++;
 4003810:	e0bffd17 	ldw	r2,-12(fp)
 4003814:	10c00003 	ldbu	r3,0(r2)
 4003818:	e0bfff17 	ldw	r2,-4(fp)
 400381c:	10c00005 	stb	r3,0(r2)
 4003820:	e0bffd17 	ldw	r2,-12(fp)
 4003824:	10800044 	addi	r2,r2,1
 4003828:	e0bffd15 	stw	r2,-12(fp)
    *red = *color;   
 400382c:	e0bffd17 	ldw	r2,-12(fp)
 4003830:	10c00003 	ldbu	r3,0(r2)
 4003834:	e0bffe17 	ldw	r2,-8(fp)
 4003838:	10c00005 	stb	r3,0(r2)
    return_value = 1;
 400383c:	00800044 	movi	r2,1
 4003840:	e0bffa15 	stw	r2,-24(fp)
 4003844:	00000706 	br	4003864 <seperate_color_channels+0x140>
  }
  else  // not a valid color depth for this function
  {
    *red = 0;
 4003848:	e0bffe17 	ldw	r2,-8(fp)
 400384c:	10000005 	stb	zero,0(r2)
    *green = 0;
 4003850:	e0bfff17 	ldw	r2,-4(fp)
 4003854:	10000005 	stb	zero,0(r2)
    *blue = 0;    
 4003858:	e0800117 	ldw	r2,4(fp)
 400385c:	10000005 	stb	zero,0(r2)
    return_value = 0;    
 4003860:	e03ffa15 	stw	zero,-24(fp)
  }
  return return_value;
 4003864:	e0bffa17 	ldw	r2,-24(fp)
}
 4003868:	e037883a 	mov	sp,fp
 400386c:	df000017 	ldw	fp,0(sp)
 4003870:	dec00104 	addi	sp,sp,4
 4003874:	f800283a 	ret

04003878 <merge_color_channels>:
*           different color formats and packing.
*
******************************************************************/

__inline__ int merge_color_channels(int color_depth, unsigned char red, unsigned char green, unsigned char blue, unsigned char * color)
{
 4003878:	defff904 	addi	sp,sp,-28
 400387c:	df000615 	stw	fp,24(sp)
 4003880:	df000604 	addi	fp,sp,24
 4003884:	e13ffc15 	stw	r4,-16(fp)
 4003888:	2809883a 	mov	r4,r5
 400388c:	3007883a 	mov	r3,r6
 4003890:	3805883a 	mov	r2,r7
 4003894:	e13ffd05 	stb	r4,-12(fp)
 4003898:	e0fffe05 	stb	r3,-8(fp)
 400389c:	e0bfff05 	stb	r2,-4(fp)
  int return_value;  // error checking in case anyone is listening
  unsigned short temp_color;
    
  if (color_depth == 16)  // R(5):G(6):B(5)
 40038a0:	e0bffc17 	ldw	r2,-16(fp)
 40038a4:	10800418 	cmpnei	r2,r2,16
 40038a8:	10001b1e 	bne	r2,zero,4003918 <merge_color_channels+0xa0>
  {
    temp_color = (blue & 0x1F) | ((green & 0x3F) << 5) | ((red & 0x1F) << 11);  // 16 bit color format
 40038ac:	e0bfff03 	ldbu	r2,-4(fp)
 40038b0:	108007cc 	andi	r2,r2,31
 40038b4:	1007883a 	mov	r3,r2
 40038b8:	e0bffe03 	ldbu	r2,-8(fp)
 40038bc:	10800fcc 	andi	r2,r2,63
 40038c0:	1004917a 	slli	r2,r2,5
 40038c4:	1884b03a 	or	r2,r3,r2
 40038c8:	1007883a 	mov	r3,r2
 40038cc:	e0bffd03 	ldbu	r2,-12(fp)
 40038d0:	100492fa 	slli	r2,r2,11
 40038d4:	1884b03a 	or	r2,r3,r2
 40038d8:	e0bffb0d 	sth	r2,-20(fp)
    *color++ = temp_color & 0xFF;
 40038dc:	e0bffb0b 	ldhu	r2,-20(fp)
 40038e0:	1007883a 	mov	r3,r2
 40038e4:	e0800117 	ldw	r2,4(fp)
 40038e8:	10c00005 	stb	r3,0(r2)
 40038ec:	e0800117 	ldw	r2,4(fp)
 40038f0:	10800044 	addi	r2,r2,1
 40038f4:	e0800115 	stw	r2,4(fp)
    *color = (temp_color >> 8) & 0xFF;
 40038f8:	e0bffb0b 	ldhu	r2,-20(fp)
 40038fc:	1004d23a 	srli	r2,r2,8
 4003900:	1007883a 	mov	r3,r2
 4003904:	e0800117 	ldw	r2,4(fp)
 4003908:	10c00005 	stb	r3,0(r2)
    return_value = 1;
 400390c:	00800044 	movi	r2,1
 4003910:	e0bffa15 	stw	r2,-24(fp)
 4003914:	00002506 	br	40039ac <merge_color_channels+0x134>
  }
  else if ((color_depth == 24) || (color_depth == 32))  // R(8):G(8):B(8) packed/unpacked
 4003918:	e0bffc17 	ldw	r2,-16(fp)
 400391c:	10800620 	cmpeqi	r2,r2,24
 4003920:	1000031e 	bne	r2,zero,4003930 <merge_color_channels+0xb8>
 4003924:	e0bffc17 	ldw	r2,-16(fp)
 4003928:	10800818 	cmpnei	r2,r2,32
 400392c:	1000121e 	bne	r2,zero,4003978 <merge_color_channels+0x100>
  {
    *color++ = blue;
 4003930:	e0800117 	ldw	r2,4(fp)
 4003934:	e0ffff03 	ldbu	r3,-4(fp)
 4003938:	10c00005 	stb	r3,0(r2)
 400393c:	e0800117 	ldw	r2,4(fp)
 4003940:	10800044 	addi	r2,r2,1
 4003944:	e0800115 	stw	r2,4(fp)
    *color++ = green;
 4003948:	e0800117 	ldw	r2,4(fp)
 400394c:	e0fffe03 	ldbu	r3,-8(fp)
 4003950:	10c00005 	stb	r3,0(r2)
 4003954:	e0800117 	ldw	r2,4(fp)
 4003958:	10800044 	addi	r2,r2,1
 400395c:	e0800115 	stw	r2,4(fp)
    *color = red;
 4003960:	e0800117 	ldw	r2,4(fp)
 4003964:	e0fffd03 	ldbu	r3,-12(fp)
 4003968:	10c00005 	stb	r3,0(r2)
    return_value = 1;
 400396c:	00800044 	movi	r2,1
 4003970:	e0bffa15 	stw	r2,-24(fp)
 4003974:	00000d06 	br	40039ac <merge_color_channels+0x134>
  }
  else  // not a valid color depth for this function
  {
    *color++ = 0;
 4003978:	e0800117 	ldw	r2,4(fp)
 400397c:	10000005 	stb	zero,0(r2)
 4003980:	e0800117 	ldw	r2,4(fp)
 4003984:	10800044 	addi	r2,r2,1
 4003988:	e0800115 	stw	r2,4(fp)
    *color++ = 0;
 400398c:	e0800117 	ldw	r2,4(fp)
 4003990:	10000005 	stb	zero,0(r2)
 4003994:	e0800117 	ldw	r2,4(fp)
 4003998:	10800044 	addi	r2,r2,1
 400399c:	e0800115 	stw	r2,4(fp)
    *color = 0;
 40039a0:	e0800117 	ldw	r2,4(fp)
 40039a4:	10000005 	stb	zero,0(r2)
    return_value = 0;    
 40039a8:	e03ffa15 	stw	zero,-24(fp)
  }
  return return_value;  
 40039ac:	e0bffa17 	ldw	r2,-24(fp)
}
 40039b0:	e037883a 	mov	sp,fp
 40039b4:	df000017 	ldw	fp,0(sp)
 40039b8:	dec00104 	addi	sp,sp,4
 40039bc:	f800283a 	ret

040039c0 <read_from_frame>:
*           needed to calculate the new one.
*
******************************************************************/

__inline__ int read_from_frame (int horiz, int vert, unsigned char *red, unsigned char *green, unsigned char *blue, alt_video_display * display)
{
 40039c0:	defff604 	addi	sp,sp,-40
 40039c4:	dfc00915 	stw	ra,36(sp)
 40039c8:	df000815 	stw	fp,32(sp)
 40039cc:	dc000715 	stw	r16,28(sp)
 40039d0:	df000704 	addi	fp,sp,28
 40039d4:	e13ffc15 	stw	r4,-16(fp)
 40039d8:	e17ffd15 	stw	r5,-12(fp)
 40039dc:	e1bffe15 	stw	r6,-8(fp)
 40039e0:	e1ffff15 	stw	r7,-4(fp)
  int return_value;  // error checking in case anyone is listening
  unsigned int temp_color;
  unsigned int addr;
  
  if( display->color_depth == 32 )
 40039e4:	e0800417 	ldw	r2,16(fp)
 40039e8:	10800417 	ldw	r2,16(r2)
 40039ec:	10800818 	cmpnei	r2,r2,32
 40039f0:	1000231e 	bne	r2,zero,4003a80 <read_from_frame+0xc0>
  {
    addr = ((unsigned int)VIPFR_GetDrawFrame(display)) + ((unsigned int)((vert * display->width * 4) + (horiz * 4)));
 40039f4:	e1000417 	ldw	r4,16(fp)
 40039f8:	4008a380 	call	4008a38 <VIPFR_GetDrawFrame>
 40039fc:	1021883a 	mov	r16,r2
 4003a00:	e0800417 	ldw	r2,16(fp)
 4003a04:	10800517 	ldw	r2,20(r2)
 4003a08:	1009883a 	mov	r4,r2
 4003a0c:	e17ffd17 	ldw	r5,-12(fp)
 4003a10:	4009dd80 	call	4009dd8 <__mulsi3>
 4003a14:	1007883a 	mov	r3,r2
 4003a18:	e0bffc17 	ldw	r2,-16(fp)
 4003a1c:	1885883a 	add	r2,r3,r2
 4003a20:	1085883a 	add	r2,r2,r2
 4003a24:	1085883a 	add	r2,r2,r2
 4003a28:	8085883a 	add	r2,r16,r2
 4003a2c:	e0bffa15 	stw	r2,-24(fp)
    temp_color = IORD_32DIRECT(addr, 0);
 4003a30:	e0bffa17 	ldw	r2,-24(fp)
 4003a34:	10800037 	ldwio	r2,0(r2)
 4003a38:	e0bffb15 	stw	r2,-20(fp)
    *blue = (unsigned char)(temp_color & 0xFF);
 4003a3c:	e0bffb17 	ldw	r2,-20(fp)
 4003a40:	1007883a 	mov	r3,r2
 4003a44:	e0800317 	ldw	r2,12(fp)
 4003a48:	10c00005 	stb	r3,0(r2)
    *green = (unsigned char)((temp_color >> 8) & 0xFF);
 4003a4c:	e0bffb17 	ldw	r2,-20(fp)
 4003a50:	1004d23a 	srli	r2,r2,8
 4003a54:	1007883a 	mov	r3,r2
 4003a58:	e0bfff17 	ldw	r2,-4(fp)
 4003a5c:	10c00005 	stb	r3,0(r2)
    *red = (unsigned char)((temp_color >> 16) & 0xFF);
 4003a60:	e0bffb17 	ldw	r2,-20(fp)
 4003a64:	1004d43a 	srli	r2,r2,16
 4003a68:	1007883a 	mov	r3,r2
 4003a6c:	e0bffe17 	ldw	r2,-8(fp)
 4003a70:	10c00005 	stb	r3,0(r2)
    return_value = 1;
 4003a74:	00800044 	movi	r2,1
 4003a78:	e0bff915 	stw	r2,-28(fp)
 4003a7c:	00005c06 	br	4003bf0 <read_from_frame+0x230>
  }
  else if( display->color_depth == 24 )
 4003a80:	e0800417 	ldw	r2,16(fp)
 4003a84:	10800417 	ldw	r2,16(r2)
 4003a88:	10800618 	cmpnei	r2,r2,24
 4003a8c:	1000271e 	bne	r2,zero,4003b2c <read_from_frame+0x16c>
  {
    addr = ((unsigned int)VIPFR_GetDrawFrame(display)) + ((unsigned int)((vert * display->width * 3) + (horiz * 3)));
 4003a90:	e1000417 	ldw	r4,16(fp)
 4003a94:	4008a380 	call	4008a38 <VIPFR_GetDrawFrame>
 4003a98:	1021883a 	mov	r16,r2
 4003a9c:	e0800417 	ldw	r2,16(fp)
 4003aa0:	10800517 	ldw	r2,20(r2)
 4003aa4:	1009883a 	mov	r4,r2
 4003aa8:	e17ffd17 	ldw	r5,-12(fp)
 4003aac:	4009dd80 	call	4009dd8 <__mulsi3>
 4003ab0:	1007883a 	mov	r3,r2
 4003ab4:	e0bffc17 	ldw	r2,-16(fp)
 4003ab8:	1887883a 	add	r3,r3,r2
 4003abc:	1805883a 	mov	r2,r3
 4003ac0:	1085883a 	add	r2,r2,r2
 4003ac4:	10c5883a 	add	r2,r2,r3
 4003ac8:	8085883a 	add	r2,r16,r2
 4003acc:	e0bffa15 	stw	r2,-24(fp)
    *blue = IORD_8DIRECT(addr, 0);
 4003ad0:	e0bffa17 	ldw	r2,-24(fp)
 4003ad4:	10800023 	ldbuio	r2,0(r2)
 4003ad8:	10803fcc 	andi	r2,r2,255
 4003adc:	1007883a 	mov	r3,r2
 4003ae0:	e0800317 	ldw	r2,12(fp)
 4003ae4:	10c00005 	stb	r3,0(r2)
    *green = IORD_8DIRECT(addr, 1);
 4003ae8:	e0bffa17 	ldw	r2,-24(fp)
 4003aec:	10800044 	addi	r2,r2,1
 4003af0:	10800023 	ldbuio	r2,0(r2)
 4003af4:	10803fcc 	andi	r2,r2,255
 4003af8:	1007883a 	mov	r3,r2
 4003afc:	e0bfff17 	ldw	r2,-4(fp)
 4003b00:	10c00005 	stb	r3,0(r2)
    *red = IORD_8DIRECT(addr, 2);
 4003b04:	e0bffa17 	ldw	r2,-24(fp)
 4003b08:	10800084 	addi	r2,r2,2
 4003b0c:	10800023 	ldbuio	r2,0(r2)
 4003b10:	10803fcc 	andi	r2,r2,255
 4003b14:	1007883a 	mov	r3,r2
 4003b18:	e0bffe17 	ldw	r2,-8(fp)
 4003b1c:	10c00005 	stb	r3,0(r2)
    return_value = 1;
 4003b20:	00800044 	movi	r2,1
 4003b24:	e0bff915 	stw	r2,-28(fp)
 4003b28:	00003106 	br	4003bf0 <read_from_frame+0x230>
  }
  else if( display->color_depth == 16 )
 4003b2c:	e0800417 	ldw	r2,16(fp)
 4003b30:	10800417 	ldw	r2,16(r2)
 4003b34:	10800418 	cmpnei	r2,r2,16
 4003b38:	1000261e 	bne	r2,zero,4003bd4 <read_from_frame+0x214>
  {
    addr = ((unsigned int)VIPFR_GetDrawFrame(display)) + ((unsigned int)((vert * display->width * 2) + (horiz * 2)));
 4003b3c:	e1000417 	ldw	r4,16(fp)
 4003b40:	4008a380 	call	4008a38 <VIPFR_GetDrawFrame>
 4003b44:	1021883a 	mov	r16,r2
 4003b48:	e0800417 	ldw	r2,16(fp)
 4003b4c:	10800517 	ldw	r2,20(r2)
 4003b50:	1009883a 	mov	r4,r2
 4003b54:	e17ffd17 	ldw	r5,-12(fp)
 4003b58:	4009dd80 	call	4009dd8 <__mulsi3>
 4003b5c:	1007883a 	mov	r3,r2
 4003b60:	e0bffc17 	ldw	r2,-16(fp)
 4003b64:	1885883a 	add	r2,r3,r2
 4003b68:	1085883a 	add	r2,r2,r2
 4003b6c:	8085883a 	add	r2,r16,r2
 4003b70:	e0bffa15 	stw	r2,-24(fp)
    temp_color = (unsigned int)IORD_16DIRECT(addr, 0);
 4003b74:	e0bffa17 	ldw	r2,-24(fp)
 4003b78:	1080002b 	ldhuio	r2,0(r2)
 4003b7c:	10bfffcc 	andi	r2,r2,65535
 4003b80:	e0bffb15 	stw	r2,-20(fp)
    *blue = (unsigned char)(temp_color & 0x1F); 
 4003b84:	e0bffb17 	ldw	r2,-20(fp)
 4003b88:	108007cc 	andi	r2,r2,31
 4003b8c:	1007883a 	mov	r3,r2
 4003b90:	e0800317 	ldw	r2,12(fp)
 4003b94:	10c00005 	stb	r3,0(r2)
    *green = (unsigned char)((temp_color >> 5) & 0x3F);
 4003b98:	e0bffb17 	ldw	r2,-20(fp)
 4003b9c:	1004d17a 	srli	r2,r2,5
 4003ba0:	10800fcc 	andi	r2,r2,63
 4003ba4:	1007883a 	mov	r3,r2
 4003ba8:	e0bfff17 	ldw	r2,-4(fp)
 4003bac:	10c00005 	stb	r3,0(r2)
    *red = (unsigned char)((temp_color >> 11) & 0x1F);
 4003bb0:	e0bffb17 	ldw	r2,-20(fp)
 4003bb4:	1004d2fa 	srli	r2,r2,11
 4003bb8:	108007cc 	andi	r2,r2,31
 4003bbc:	1007883a 	mov	r3,r2
 4003bc0:	e0bffe17 	ldw	r2,-8(fp)
 4003bc4:	10c00005 	stb	r3,0(r2)
    return_value = 1;
 4003bc8:	00800044 	movi	r2,1
 4003bcc:	e0bff915 	stw	r2,-28(fp)
 4003bd0:	00000706 	br	4003bf0 <read_from_frame+0x230>
  }
  else
  {
    *blue = 0;
 4003bd4:	e0800317 	ldw	r2,12(fp)
 4003bd8:	10000005 	stb	zero,0(r2)
    *red = 0;
 4003bdc:	e0bffe17 	ldw	r2,-8(fp)
 4003be0:	10000005 	stb	zero,0(r2)
    *green = 0;
 4003be4:	e0bfff17 	ldw	r2,-4(fp)
 4003be8:	10000005 	stb	zero,0(r2)
    return_value = 0; 
 4003bec:	e03ff915 	stw	zero,-28(fp)
  }

  return return_value;
 4003bf0:	e0bff917 	ldw	r2,-28(fp)
}
 4003bf4:	e037883a 	mov	sp,fp
 4003bf8:	dfc00217 	ldw	ra,8(sp)
 4003bfc:	df000117 	ldw	fp,4(sp)
 4003c00:	dc000017 	ldw	r16,0(sp)
 4003c04:	dec00304 	addi	sp,sp,12
 4003c08:	f800283a 	ret

04003c0c <alpha_blending>:
*           the font color with the background color.
*
******************************************************************/

__inline__ int alpha_blending (int horiz_offset, int vert_offset, int background_color, unsigned char alpha, unsigned char *red, unsigned char *green, unsigned char *blue, alt_video_display * display)
{
 4003c0c:	defff204 	addi	sp,sp,-56
 4003c10:	dfc00d15 	stw	ra,52(sp)
 4003c14:	df000c15 	stw	fp,48(sp)
 4003c18:	dc000b15 	stw	r16,44(sp)
 4003c1c:	df000b04 	addi	fp,sp,44
 4003c20:	e13ffc15 	stw	r4,-16(fp)
 4003c24:	e17ffd15 	stw	r5,-12(fp)
 4003c28:	e1bffe15 	stw	r6,-8(fp)
 4003c2c:	3805883a 	mov	r2,r7
 4003c30:	e0bfff05 	stb	r2,-4(fp)
  int return_value;
  unsigned char background_red, background_green, background_blue;
  unsigned int blended_red, blended_green, blended_blue;  // short since there may be overflow to be clipped
  
  // set red, green, and blue of the background color
  if(background_color == CLEAR_BACKGROUND)
 4003c34:	e0bffe17 	ldw	r2,-8(fp)
 4003c38:	10bfffd8 	cmpnei	r2,r2,-1
 4003c3c:	10000c1e 	bne	r2,zero,4003c70 <alpha_blending+0x64>
  {
    read_from_frame (horiz_offset, vert_offset, &background_red, &background_green, &background_blue, display);
 4003c40:	e0fffb04 	addi	r3,fp,-20
 4003c44:	e0bffb44 	addi	r2,fp,-19
 4003c48:	e13ffb84 	addi	r4,fp,-18
 4003c4c:	d9000015 	stw	r4,0(sp)
 4003c50:	e1000617 	ldw	r4,24(fp)
 4003c54:	d9000115 	stw	r4,4(sp)
 4003c58:	e13ffc17 	ldw	r4,-16(fp)
 4003c5c:	e17ffd17 	ldw	r5,-12(fp)
 4003c60:	180d883a 	mov	r6,r3
 4003c64:	100f883a 	mov	r7,r2
 4003c68:	40039c00 	call	40039c0 <read_from_frame>
 4003c6c:	00000a06 	br	4003c98 <alpha_blending+0x8c>
  }
  else
  {
    seperate_color_channels(display->color_depth, (unsigned char *)&background_color, &background_red, &background_green, &background_blue);
 4003c70:	e0800617 	ldw	r2,24(fp)
 4003c74:	11000417 	ldw	r4,16(r2)
 4003c78:	e17ffe04 	addi	r5,fp,-8
 4003c7c:	e0fffb04 	addi	r3,fp,-20
 4003c80:	e0bffb44 	addi	r2,fp,-19
 4003c84:	e1bffb84 	addi	r6,fp,-18
 4003c88:	d9800015 	stw	r6,0(sp)
 4003c8c:	180d883a 	mov	r6,r3
 4003c90:	100f883a 	mov	r7,r2
 4003c94:	40037240 	call	4003724 <seperate_color_channels>
  }

  // these blended colors may need to be clipped to the maximum amounts the color depth supports
  blended_red = (((*red) * alpha) + (background_red * (255 - alpha)))/255;
 4003c98:	e0800317 	ldw	r2,12(fp)
 4003c9c:	10800003 	ldbu	r2,0(r2)
 4003ca0:	10c03fcc 	andi	r3,r2,255
 4003ca4:	e0bfff03 	ldbu	r2,-4(fp)
 4003ca8:	1809883a 	mov	r4,r3
 4003cac:	100b883a 	mov	r5,r2
 4003cb0:	4009dd80 	call	4009dd8 <__mulsi3>
 4003cb4:	1021883a 	mov	r16,r2
 4003cb8:	e0bffb03 	ldbu	r2,-20(fp)
 4003cbc:	10c03fcc 	andi	r3,r2,255
 4003cc0:	e0bfff03 	ldbu	r2,-4(fp)
 4003cc4:	01003fc4 	movi	r4,255
 4003cc8:	2085c83a 	sub	r2,r4,r2
 4003ccc:	1809883a 	mov	r4,r3
 4003cd0:	100b883a 	mov	r5,r2
 4003cd4:	4009dd80 	call	4009dd8 <__mulsi3>
 4003cd8:	8085883a 	add	r2,r16,r2
 4003cdc:	1009883a 	mov	r4,r2
 4003ce0:	01403fc4 	movi	r5,255
 4003ce4:	4009d1c0 	call	4009d1c <__divsi3>
 4003ce8:	e0bff815 	stw	r2,-32(fp)
  blended_green = (((*green) * alpha) + (background_green * (255 - alpha)))/255;
